Archive member included to satisfy reference by file (symbol)

c:/program files/microchip/xc32/v4.21/bin/bin/../../lib/gcc/pic32c/8.3.1/../../../../pic32c/lib/thumb/v8-m.base/nofp\libpic32c.a(data_init_wrapper.o)
                              build/Sercom/production/_ext/1491116340/startup_xc32.o (__pic32c_data_initialization)
c:/program files/microchip/xc32/v4.21/bin/bin/../../lib/gcc/pic32c/8.3.1/../../../../pic32c/lib/thumb/v8-m.base/nofp\libpic32c.a(data_init_0_1.o)
                              c:/program files/microchip/xc32/v4.21/bin/bin/../../lib/gcc/pic32c/8.3.1/../../../../pic32c/lib/thumb/v8-m.base/nofp\libpic32c.a(data_init_wrapper.o) (__pic32c_data_initialization_impl)
c:/program files/microchip/xc32/v4.21/bin/bin/../../lib/gcc/pic32c/8.3.1/../../../../pic32c/lib/thumb/v8-m.base/nofp\libc-musl.a(tolower.o)
                              build/Sercom/production/_ext/1664057780/asn.o (tolower)
c:/program files/microchip/xc32/v4.21/bin/bin/../../lib/gcc/pic32c/8.3.1/../../../../pic32c/lib/thumb/v8-m.base/nofp\libc-musl.a(toupper.o)
                              build/Sercom/production/_ext/1664057780/tfm.o (toupper)
c:/program files/microchip/xc32/v4.21/bin/bin/../../lib/gcc/pic32c/8.3.1/../../../../pic32c/lib/thumb/v8-m.base/nofp\libc-musl.a(__libc_start_main.o)
                              build/Sercom/production/_ext/1491116340/startup_xc32.o (__libc_init_array)
c:/program files/microchip/xc32/v4.21/bin/bin/../../lib/gcc/pic32c/8.3.1/../../../../pic32c/lib/thumb/v8-m.base/nofp\libc-musl.a(libc.o)
                              c:/program files/microchip/xc32/v4.21/bin/bin/../../lib/gcc/pic32c/8.3.1/../../../../pic32c/lib/thumb/v8-m.base/nofp\libc-musl.a(__libc_start_main.o) (__progname_full)
c:/program files/microchip/xc32/v4.21/bin/bin/../../lib/gcc/pic32c/8.3.1/../../../../pic32c/lib/thumb/v8-m.base/nofp\libc-musl.a(malloc.o)
                              build/Sercom/production/_ext/2090800303/crypto.o (free)
c:/program files/microchip/xc32/v4.21/bin/bin/../../lib/gcc/pic32c/8.3.1/../../../../pic32c/lib/thumb/v8-m.base/nofp\libc-musl.a(expand_heap.o)
                              c:/program files/microchip/xc32/v4.21/bin/bin/../../lib/gcc/pic32c/8.3.1/../../../../pic32c/lib/thumb/v8-m.base/nofp\libc-musl.a(malloc.o) (__expand_heap)
c:/program files/microchip/xc32/v4.21/bin/bin/../../lib/gcc/pic32c/8.3.1/../../../../pic32c/lib/thumb/v8-m.base/nofp\libc-musl.a(rand.o)
                              build/Sercom/production/_ext/1664057780/random.o (srand)
c:/program files/microchip/xc32/v4.21/bin/bin/../../lib/gcc/pic32c/8.3.1/../../../../pic32c/lib/thumb/v8-m.base/nofp\libc-musl.a(__sio_sprintf_doux.o)
                              (_sprintf_cdnopuxX)
c:/program files/microchip/xc32/v4.21/bin/bin/../../lib/gcc/pic32c/8.3.1/../../../../pic32c/lib/thumb/v8-m.base/nofp\libc-musl.a(__fmt_d.o)
                              c:/program files/microchip/xc32/v4.21/bin/bin/../../lib/gcc/pic32c/8.3.1/../../../../pic32c/lib/thumb/v8-m.base/nofp\libc-musl.a(__sio_sprintf_doux.o) (__fmt_d_needed)
c:/program files/microchip/xc32/v4.21/bin/bin/../../lib/gcc/pic32c/8.3.1/../../../../pic32c/lib/thumb/v8-m.base/nofp\libc-musl.a(__fmt_o.o)
                              c:/program files/microchip/xc32/v4.21/bin/bin/../../lib/gcc/pic32c/8.3.1/../../../../pic32c/lib/thumb/v8-m.base/nofp\libc-musl.a(__sio_sprintf_doux.o) (__fmt_o_needed)
c:/program files/microchip/xc32/v4.21/bin/bin/../../lib/gcc/pic32c/8.3.1/../../../../pic32c/lib/thumb/v8-m.base/nofp\libc-musl.a(__fmt_s.o)
                              c:/program files/microchip/xc32/v4.21/bin/bin/../../lib/gcc/pic32c/8.3.1/../../../../pic32c/lib/thumb/v8-m.base/nofp\libc-musl.a(__sio_sprintf_doux.o) (__fmt_s_needed)
c:/program files/microchip/xc32/v4.21/bin/bin/../../lib/gcc/pic32c/8.3.1/../../../../pic32c/lib/thumb/v8-m.base/nofp\libc-musl.a(__fmt_u.o)
                              c:/program files/microchip/xc32/v4.21/bin/bin/../../lib/gcc/pic32c/8.3.1/../../../../pic32c/lib/thumb/v8-m.base/nofp\libc-musl.a(__fmt_d.o) (__cvt_u)
c:/program files/microchip/xc32/v4.21/bin/bin/../../lib/gcc/pic32c/8.3.1/../../../../pic32c/lib/thumb/v8-m.base/nofp\libc-musl.a(__fmt_x.o)
                              c:/program files/microchip/xc32/v4.21/bin/bin/../../lib/gcc/pic32c/8.3.1/../../../../pic32c/lib/thumb/v8-m.base/nofp\libc-musl.a(__sio_sprintf_doux.o) (__fmt_x_needed)
c:/program files/microchip/xc32/v4.21/bin/bin/../../lib/gcc/pic32c/8.3.1/../../../../pic32c/lib/thumb/v8-m.base/nofp\libc-musl.a(__pop_int.o)
                              c:/program files/microchip/xc32/v4.21/bin/bin/../../lib/gcc/pic32c/8.3.1/../../../../pic32c/lib/thumb/v8-m.base/nofp\libc-musl.a(__sio_sprintf_doux.o) (__pop_int_needed)
c:/program files/microchip/xc32/v4.21/bin/bin/../../lib/gcc/pic32c/8.3.1/../../../../pic32c/lib/thumb/v8-m.base/nofp\libc-musl.a(__pop_ptr.o)
                              c:/program files/microchip/xc32/v4.21/bin/bin/../../lib/gcc/pic32c/8.3.1/../../../../pic32c/lib/thumb/v8-m.base/nofp\libc-musl.a(__sio_sprintf_doux.o) (__pop_ptr_needed)
c:/program files/microchip/xc32/v4.21/bin/bin/../../lib/gcc/pic32c/8.3.1/../../../../pic32c/lib/thumb/v8-m.base/nofp\libc-musl.a(__printf_core.o)
                              c:/program files/microchip/xc32/v4.21/bin/bin/../../lib/gcc/pic32c/8.3.1/../../../../pic32c/lib/thumb/v8-m.base/nofp\libc-musl.a(__fmt_d.o) (__pad)
c:/program files/microchip/xc32/v4.21/bin/bin/../../lib/gcc/pic32c/8.3.1/../../../../pic32c/lib/thumb/v8-m.base/nofp\libc-musl.a(stdin.o)
                              build/Sercom/production/_ext/1491116340/initialization.o (_stdin)
c:/program files/microchip/xc32/v4.21/bin/bin/../../lib/gcc/pic32c/8.3.1/../../../../pic32c/lib/thumb/v8-m.base/nofp\libc-musl.a(stdout.o)
                              build/Sercom/production/_ext/1491116340/initialization.o (_stdout)
c:/program files/microchip/xc32/v4.21/bin/bin/../../lib/gcc/pic32c/8.3.1/../../../../pic32c/lib/thumb/v8-m.base/nofp\libc-musl.a(setbuf.o)
                              build/Sercom/production/_ext/1491116340/initialization.o (setbuf)
c:/program files/microchip/xc32/v4.21/bin/bin/../../lib/gcc/pic32c/8.3.1/../../../../pic32c/lib/thumb/v8-m.base/nofp\libc-musl.a(atoi.o)
                              c:/program files/microchip/xc32/v4.21/bin/bin/../../lib/gcc/pic32c/8.3.1/../../../../pic32c/lib/thumb/v8-m.base/nofp\libc-musl.a(__printf_core.o) (atoi)
c:/program files/microchip/xc32/v4.21/bin/bin/../../lib/gcc/pic32c/8.3.1/../../../../pic32c/lib/thumb/v8-m.base/nofp\libc-musl.a(memcmp.o)
                              build/Sercom/production/_ext/1664057780/ecc.o (memcmp)
c:/program files/microchip/xc32/v4.21/bin/bin/../../lib/gcc/pic32c/8.3.1/../../../../pic32c/lib/thumb/v8-m.base/nofp\libc-musl.a(memcpy.o)
                              build/Sercom/production/_ext/1664057780/ecc.o (memcpy)
c:/program files/microchip/xc32/v4.21/bin/bin/../../lib/gcc/pic32c/8.3.1/../../../../pic32c/lib/thumb/v8-m.base/nofp\libc-musl.a(memmove.o)
                              build/Sercom/production/_ext/1664057780/asn.o (memmove)
c:/program files/microchip/xc32/v4.21/bin/bin/../../lib/gcc/pic32c/8.3.1/../../../../pic32c/lib/thumb/v8-m.base/nofp\libc-musl.a(memset.o)
                              build/Sercom/production/_ext/2025105575/sys_time.o (memset)
c:/program files/microchip/xc32/v4.21/bin/bin/../../lib/gcc/pic32c/8.3.1/../../../../pic32c/lib/thumb/v8-m.base/nofp\libc-musl.a(strlen.o)
                              build/Sercom/production/_ext/1664057780/ecc.o (strlen)
c:/program files/microchip/xc32/v4.21/bin/bin/../../lib/gcc/pic32c/8.3.1/../../../../pic32c/lib/thumb/v8-m.base/nofp\libc-musl.a(strcmp.o)
                              build/Sercom/production/_ext/1664057780/ecc.o (strcmp)
c:/program files/microchip/xc32/v4.21/bin/bin/../../lib/gcc/pic32c/8.3.1/../../../../pic32c/lib/thumb/v8-m.base/nofp\libc-musl.a(strncmp.o)
                              build/Sercom/production/_ext/1664057780/ecc.o (strncmp)
c:/program files/microchip/xc32/v4.21/bin/bin/../../lib/gcc/pic32c/8.3.1/../../../../pic32c/lib/thumb/v8-m.base/nofp\libc-musl.a(strncpy.o)
                              build/Sercom/production/_ext/2090800303/crypto.o (strncpy)
c:/program files/microchip/xc32/v4.21/bin/bin/../../lib/gcc/pic32c/8.3.1/../../../../pic32c/lib/thumb/v8-m.base/nofp\libc-musl.a(gmtime.o)
                              build/Sercom/production/_ext/1664057780/asn.o (gmtime)
c:/program files/microchip/xc32/v4.21/bin/bin/../../lib/gcc/pic32c/8.3.1/../../../../pic32c/lib/thumb/v8-m.base/nofp\libc-musl.a(gmtime_r.o)
                              c:/program files/microchip/xc32/v4.21/bin/bin/../../lib/gcc/pic32c/8.3.1/../../../../pic32c/lib/thumb/v8-m.base/nofp\libc-musl.a(gmtime.o) (__gmtime_r)
c:/program files/microchip/xc32/v4.21/bin/bin/../../lib/gcc/pic32c/8.3.1/../../../../pic32c/lib/thumb/v8-m.base/nofp\libc-musl.a(time.o)
                              build/Sercom/production/_ext/1664057780/asn.o (time)
c:/program files/microchip/xc32/v4.21/bin/bin/../../lib/gcc/pic32c/8.3.1/../../../../pic32c/lib/thumb/v8-m.base/nofp\libc-musl.a(__environ.o)
                              c:/program files/microchip/xc32/v4.21/bin/bin/../../lib/gcc/pic32c/8.3.1/../../../../pic32c/lib/thumb/v8-m.base/nofp\libc-musl.a(__libc_start_main.o) (__environ)
c:/program files/microchip/xc32/v4.21/bin/bin/../../lib/gcc/pic32c/8.3.1/../../../../pic32c/lib/thumb/v8-m.base/nofp\libc-musl.a(__errno_location.o)
                              c:/program files/microchip/xc32/v4.21/bin/bin/../../lib/gcc/pic32c/8.3.1/../../../../pic32c/lib/thumb/v8-m.base/nofp\libc-musl.a(malloc.o) (__errno_val)
c:/program files/microchip/xc32/v4.21/bin/bin/../../lib/gcc/pic32c/8.3.1/../../../../pic32c/lib/thumb/v8-m.base/nofp\libc-musl.a(__int_vsprintf.o)
                              c:/program files/microchip/xc32/v4.21/bin/bin/../../lib/gcc/pic32c/8.3.1/../../../../pic32c/lib/thumb/v8-m.base/nofp\libc-musl.a(__sio_sprintf_doux.o) (__vsprintf)
c:/program files/microchip/xc32/v4.21/bin/bin/../../lib/gcc/pic32c/8.3.1/../../../../pic32c/lib/thumb/v8-m.base/nofp\libc-musl.a(__io_init_needed.o)
                              c:/program files/microchip/xc32/v4.21/bin/bin/../../lib/gcc/pic32c/8.3.1/../../../../pic32c/lib/thumb/v8-m.base/nofp\libc-musl.a(stdout.o) (__io_init_needed)
c:/program files/microchip/xc32/v4.21/bin/bin/../../lib/gcc/pic32c/8.3.1/../../../../pic32c/lib/thumb/v8-m.base/nofp\libc-musl.a(__io_rw_needed.o)
                              c:/program files/microchip/xc32/v4.21/bin/bin/../../lib/gcc/pic32c/8.3.1/../../../../pic32c/lib/thumb/v8-m.base/nofp\libc-musl.a(stdin.o) (__io_rw_needed)
c:/program files/microchip/xc32/v4.21/bin/bin/../../lib/gcc/pic32c/8.3.1/../../../../pic32c/lib/thumb/v8-m.base/nofp\libc-musl.a(__pop_float.o)
                              c:/program files/microchip/xc32/v4.21/bin/bin/../../lib/gcc/pic32c/8.3.1/../../../../pic32c/lib/thumb/v8-m.base/nofp\libc-musl.a(__printf_core.o) (__pop_float)
c:/program files/microchip/xc32/v4.21/bin/bin/../../lib/gcc/pic32c/8.3.1/../../../../pic32c/lib/thumb/v8-m.base/nofp\libc-musl.a(__stdio_read.o)
                              c:/program files/microchip/xc32/v4.21/bin/bin/../../lib/gcc/pic32c/8.3.1/../../../../pic32c/lib/thumb/v8-m.base/nofp\libc-musl.a(stdin.o) (__stdio_read)
c:/program files/microchip/xc32/v4.21/bin/bin/../../lib/gcc/pic32c/8.3.1/../../../../pic32c/lib/thumb/v8-m.base/nofp\libc-musl.a(__towrite_rw.o)
                              c:/program files/microchip/xc32/v4.21/bin/bin/../../lib/gcc/pic32c/8.3.1/../../../../pic32c/lib/thumb/v8-m.base/nofp\libc-musl.a(__io_rw_needed.o) (__towrite_rw_needed)
c:/program files/microchip/xc32/v4.21/bin/bin/../../lib/gcc/pic32c/8.3.1/../../../../pic32c/lib/thumb/v8-m.base/nofp\libc-musl.a(setvbuf.o)
                              c:/program files/microchip/xc32/v4.21/bin/bin/../../lib/gcc/pic32c/8.3.1/../../../../pic32c/lib/thumb/v8-m.base/nofp\libc-musl.a(setbuf.o) (setvbuf)
c:/program files/microchip/xc32/v4.21/bin/bin/../../lib/gcc/pic32c/8.3.1/../../../../pic32c/lib/thumb/v8-m.base/nofp\libc-musl.a(stpncpy.o)
                              c:/program files/microchip/xc32/v4.21/bin/bin/../../lib/gcc/pic32c/8.3.1/../../../../pic32c/lib/thumb/v8-m.base/nofp\libc-musl.a(strncpy.o) (__stpncpy)
c:/program files/microchip/xc32/v4.21/bin/bin/../../lib/gcc/pic32c/8.3.1/../../../../pic32c/lib/thumb/v8-m.base/nofp\libc-musl.a(__secs_to_tm.o)
                              c:/program files/microchip/xc32/v4.21/bin/bin/../../lib/gcc/pic32c/8.3.1/../../../../pic32c/lib/thumb/v8-m.base/nofp\libc-musl.a(gmtime_r.o) (__secs_to_tm)
c:/program files/microchip/xc32/v4.21/bin/bin/../../lib/gcc/pic32c/8.3.1/../../../../pic32c/lib/thumb/v8-m.base/nofp\libc-musl.a(clock_gettime.o)
                              c:/program files/microchip/xc32/v4.21/bin/bin/../../lib/gcc/pic32c/8.3.1/../../../../pic32c/lib/thumb/v8-m.base/nofp\libc-musl.a(time.o) (__clock_gettime)
c:/program files/microchip/xc32/v4.21/bin/bin/../../lib/gcc/pic32c/8.3.1/../../../../pic32c/lib/thumb/v8-m.base/nofp\libc-musl.a(gettimeofday.o)
                              c:/program files/microchip/xc32/v4.21/bin/bin/../../lib/gcc/pic32c/8.3.1/../../../../pic32c/lib/thumb/v8-m.base/nofp\libc-musl.a(clock_gettime.o) (gettimeofday)
c:/program files/microchip/xc32/v4.21/bin/bin/../../lib/gcc/pic32c/8.3.1/../../../../pic32c/lib/thumb/v8-m.base/nofp\libc-musl.a(readv.o)
                              c:/program files/microchip/xc32/v4.21/bin/bin/../../lib/gcc/pic32c/8.3.1/../../../../pic32c/lib/thumb/v8-m.base/nofp\libc-musl.a(__stdio_read.o) (readv)
c:/program files/microchip/xc32/v4.21/bin/bin/../../lib/gcc/pic32c/8.3.1/../../../../pic32c/lib/thumb/v8-m.base/nofp\libc-musl.a(syscall_ret.o)
                              c:/program files/microchip/xc32/v4.21/bin/bin/../../lib/gcc/pic32c/8.3.1/../../../../pic32c/lib/thumb/v8-m.base/nofp\libc-musl.a(clock_gettime.o) (__syscall_ret)
c:/program files/microchip/xc32/v4.21/bin/bin/../../lib/gcc/pic32c/8.3.1/../../../../pic32c/lib/thumb/v8-m.base/nofp\libc-musl.a(__int_vsnprintf.o)
                              c:/program files/microchip/xc32/v4.21/bin/bin/../../lib/gcc/pic32c/8.3.1/../../../../pic32c/lib/thumb/v8-m.base/nofp\libc-musl.a(__int_vsprintf.o) (__vsnprintf)
c:/program files/microchip/xc32/v4.21/bin/bin/../../lib/gcc/pic32c/8.3.1/../../../../pic32c/lib/thumb/v8-m.base/nofp\libc-musl.a(__fopen_rw.o)
                              c:/program files/microchip/xc32/v4.21/bin/bin/../../lib/gcc/pic32c/8.3.1/../../../../pic32c/lib/thumb/v8-m.base/nofp\libc-musl.a(__io_rw_needed.o) (__fopen_rw_needed)
c:/program files/microchip/xc32/v4.21/bin/bin/../../lib/gcc/pic32c/8.3.1/../../../../pic32c/lib/thumb/v8-m.base/nofp\libc-musl.a(__ftello_rw.o)
                              c:/program files/microchip/xc32/v4.21/bin/bin/../../lib/gcc/pic32c/8.3.1/../../../../pic32c/lib/thumb/v8-m.base/nofp\libc-musl.a(__io_rw_needed.o) (__ftello_adj_rw_needed)
c:/program files/microchip/xc32/v4.21/bin/bin/../../lib/gcc/pic32c/8.3.1/../../../../pic32c/lib/thumb/v8-m.base/nofp\libc-musl.a(__init_stdio.o)
                              c:/program files/microchip/xc32/v4.21/bin/bin/../../lib/gcc/pic32c/8.3.1/../../../../pic32c/lib/thumb/v8-m.base/nofp\libc-musl.a(__io_init_needed.o) (__init_stdio_needed)
c:/program files/microchip/xc32/v4.21/bin/bin/../../lib/gcc/pic32c/8.3.1/../../../../pic32c/lib/thumb/v8-m.base/nofp\libc-musl.a(__io_buf_needed.o)
                              c:/program files/microchip/xc32/v4.21/bin/bin/../../lib/gcc/pic32c/8.3.1/../../../../pic32c/lib/thumb/v8-m.base/nofp\libc-musl.a(__io_rw_needed.o) (__io_buf_needed)
c:/program files/microchip/xc32/v4.21/bin/bin/../../lib/gcc/pic32c/8.3.1/../../../../pic32c/lib/thumb/v8-m.base/nofp\libc-musl.a(__io_file_needed.o)
                              c:/program files/microchip/xc32/v4.21/bin/bin/../../lib/gcc/pic32c/8.3.1/../../../../pic32c/lib/thumb/v8-m.base/nofp\libc-musl.a(__io_init_needed.o) (__io_file_needed)
c:/program files/microchip/xc32/v4.21/bin/bin/../../lib/gcc/pic32c/8.3.1/../../../../pic32c/lib/thumb/v8-m.base/nofp\libc-musl.a(__io_std_needed.o)
                              c:/program files/microchip/xc32/v4.21/bin/bin/../../lib/gcc/pic32c/8.3.1/../../../../pic32c/lib/thumb/v8-m.base/nofp\libc-musl.a(__io_buf_needed.o) (__io_std_needed)
c:/program files/microchip/xc32/v4.21/bin/bin/../../lib/gcc/pic32c/8.3.1/../../../../pic32c/lib/thumb/v8-m.base/nofp\libc-musl.a(__out.o)
                              c:/program files/microchip/xc32/v4.21/bin/bin/../../lib/gcc/pic32c/8.3.1/../../../../pic32c/lib/thumb/v8-m.base/nofp\libc-musl.a(__fopen_rw.o) (__stdio_write_unbuffered)
c:/program files/microchip/xc32/v4.21/bin/bin/../../lib/gcc/pic32c/8.3.1/../../../../pic32c/lib/thumb/v8-m.base/nofp\libc-musl.a(__putc.o)
                              c:/program files/microchip/xc32/v4.21/bin/bin/../../lib/gcc/pic32c/8.3.1/../../../../pic32c/lib/thumb/v8-m.base/nofp\libc-musl.a(__io_buf_needed.o) (__putc_needed)
c:/program files/microchip/xc32/v4.21/bin/bin/../../lib/gcc/pic32c/8.3.1/../../../../pic32c/lib/thumb/v8-m.base/nofp\libc-musl.a(__stderr.o)
                              c:/program files/microchip/xc32/v4.21/bin/bin/../../lib/gcc/pic32c/8.3.1/../../../../pic32c/lib/thumb/v8-m.base/nofp\libc-musl.a(__io_std_needed.o) (__init_stderr_needed)
c:/program files/microchip/xc32/v4.21/bin/bin/../../lib/gcc/pic32c/8.3.1/../../../../pic32c/lib/thumb/v8-m.base/nofp\libc-musl.a(__stdio_close.o)
                              c:/program files/microchip/xc32/v4.21/bin/bin/../../lib/gcc/pic32c/8.3.1/../../../../pic32c/lib/thumb/v8-m.base/nofp\libc-musl.a(__fopen_rw.o) (__stdio_close_rw)
c:/program files/microchip/xc32/v4.21/bin/bin/../../lib/gcc/pic32c/8.3.1/../../../../pic32c/lib/thumb/v8-m.base/nofp\libc-musl.a(__stdio_exit.o)
                              c:/program files/microchip/xc32/v4.21/bin/bin/../../lib/gcc/pic32c/8.3.1/../../../../pic32c/lib/thumb/v8-m.base/nofp\libc-musl.a(__io_buf_needed.o) (__stdio_exit_needed)
c:/program files/microchip/xc32/v4.21/bin/bin/../../lib/gcc/pic32c/8.3.1/../../../../pic32c/lib/thumb/v8-m.base/nofp\libc-musl.a(__stdio_write.o)
                              c:/program files/microchip/xc32/v4.21/bin/bin/../../lib/gcc/pic32c/8.3.1/../../../../pic32c/lib/thumb/v8-m.base/nofp\libc-musl.a(setvbuf.o) (__stdio_write_buffered)
c:/program files/microchip/xc32/v4.21/bin/bin/../../lib/gcc/pic32c/8.3.1/../../../../pic32c/lib/thumb/v8-m.base/nofp\libc-musl.a(__stdout.o)
                              c:/program files/microchip/xc32/v4.21/bin/bin/../../lib/gcc/pic32c/8.3.1/../../../../pic32c/lib/thumb/v8-m.base/nofp\libc-musl.a(__io_std_needed.o) (__init_stdout_needed)
c:/program files/microchip/xc32/v4.21/bin/bin/../../lib/gcc/pic32c/8.3.1/../../../../pic32c/lib/thumb/v8-m.base/nofp\libc-musl.a(__towrite.o)
                              c:/program files/microchip/xc32/v4.21/bin/bin/../../lib/gcc/pic32c/8.3.1/../../../../pic32c/lib/thumb/v8-m.base/nofp\libc-musl.a(__stdio_write.o) (__towrite)
c:/program files/microchip/xc32/v4.21/bin/bin/../../lib/gcc/pic32c/8.3.1/../../../../pic32c/lib/thumb/v8-m.base/nofp\libc-musl.a(putc.o)
                              c:/program files/microchip/xc32/v4.21/bin/bin/../../lib/gcc/pic32c/8.3.1/../../../../pic32c/lib/thumb/v8-m.base/nofp\libc-musl.a(__putc.o) (__putc_unbuffered)
c:/program files/microchip/xc32/v4.21/bin/bin/../../lib/gcc/pic32c/8.3.1/../../../../pic32c/lib/thumb/v8-m.base/nofp\libc-musl.a(writev.o)
                              c:/program files/microchip/xc32/v4.21/bin/bin/../../lib/gcc/pic32c/8.3.1/../../../../pic32c/lib/thumb/v8-m.base/nofp\libc-musl.a(__stdio_write.o) (writev)
c:/program files/microchip/xc32/v4.21/bin/bin/../../lib/gcc/pic32c/8.3.1/../../../../pic32c/lib/thumb/v8-m.base/nofp\libc-musl.a(__int_vfprintf.o)
                              c:/program files/microchip/xc32/v4.21/bin/bin/../../lib/gcc/pic32c/8.3.1/../../../../pic32c/lib/thumb/v8-m.base/nofp\libc-musl.a(__int_vsnprintf.o) (__vfprintf)
c:/program files/microchip/xc32/v4.21/bin/bin/../../lib/gcc/pic32c/8.3.1/../../../../pic32c/lib/thumb/v8-m.base/nofp\libc-musl.a(__overflow.o)
                              c:/program files/microchip/xc32/v4.21/bin/bin/../../lib/gcc/pic32c/8.3.1/../../../../pic32c/lib/thumb/v8-m.base/nofp\libc-musl.a(__putc.o) (__overflow)
c:/program files/microchip/xc32/v4.21/bin/bin/../../lib/gcc/pic32c/8.3.1/../../../../pic32c/lib/thumb/v8-m.base/nofp\libc-musl.a(__fclose.o)
                              c:/program files/microchip/xc32/v4.21/bin/bin/../../lib/gcc/pic32c/8.3.1/../../../../pic32c/lib/thumb/v8-m.base/nofp\libc-musl.a(__io_buf_needed.o) (__fclose_needed)
c:/program files/microchip/xc32/v4.21/bin/bin/../../lib/gcc/pic32c/8.3.1/../../../../pic32c/lib/thumb/v8-m.base/nofp\libc-musl.a(__fopen.o)
                              c:/program files/microchip/xc32/v4.21/bin/bin/../../lib/gcc/pic32c/8.3.1/../../../../pic32c/lib/thumb/v8-m.base/nofp\libc-musl.a(__io_std_needed.o) (__fopen_needed)
c:/program files/microchip/xc32/v4.21/bin/bin/../../lib/gcc/pic32c/8.3.1/../../../../pic32c/lib/thumb/v8-m.base/nofp\libc-musl.a(__fseeko.o)
                              c:/program files/microchip/xc32/v4.21/bin/bin/../../lib/gcc/pic32c/8.3.1/../../../../pic32c/lib/thumb/v8-m.base/nofp\libc-musl.a(__io_buf_needed.o) (__fseeko_needed)
c:/program files/microchip/xc32/v4.21/bin/bin/../../lib/gcc/pic32c/8.3.1/../../../../pic32c/lib/thumb/v8-m.base/nofp\libc-musl.a(__ftello.o)
                              c:/program files/microchip/xc32/v4.21/bin/bin/../../lib/gcc/pic32c/8.3.1/../../../../pic32c/lib/thumb/v8-m.base/nofp\libc-musl.a(__io_buf_needed.o) (__ftello_adj_needed)
c:/program files/microchip/xc32/v4.21/bin/bin/../../lib/gcc/pic32c/8.3.1/../../../../pic32c/lib/thumb/v8-m.base/nofp\libc-musl.a(__fwrite.o)
                              c:/program files/microchip/xc32/v4.21/bin/bin/../../lib/gcc/pic32c/8.3.1/../../../../pic32c/lib/thumb/v8-m.base/nofp\libc-musl.a(__io_std_needed.o) (__fwrite_needed)
c:/program files/microchip/xc32/v4.21/bin/bin/../../lib/gcc/pic32c/8.3.1/thumb/v8-m.base/nofp\libgcc.a(_lshrdi3.o)
                              c:/program files/microchip/xc32/v4.21/bin/bin/../../lib/gcc/pic32c/8.3.1/../../../../pic32c/lib/thumb/v8-m.base/nofp\libc-musl.a(malloc.o) (__aeabi_llsr)
c:/program files/microchip/xc32/v4.21/bin/bin/../../lib/gcc/pic32c/8.3.1/thumb/v8-m.base/nofp\libgcc.a(_ashldi3.o)
                              c:/program files/microchip/xc32/v4.21/bin/bin/../../lib/gcc/pic32c/8.3.1/../../../../pic32c/lib/thumb/v8-m.base/nofp\libc-musl.a(malloc.o) (__aeabi_llsl)
c:/program files/microchip/xc32/v4.21/bin/bin/../../lib/gcc/pic32c/8.3.1/thumb/v8-m.base/nofp\libgcc.a(_aeabi_ldivmod.o)
                              c:/program files/microchip/xc32/v4.21/bin/bin/../../lib/gcc/pic32c/8.3.1/../../../../pic32c/lib/thumb/v8-m.base/nofp\libc-musl.a(__secs_to_tm.o) (__aeabi_ldivmod)
c:/program files/microchip/xc32/v4.21/bin/bin/../../lib/gcc/pic32c/8.3.1/thumb/v8-m.base/nofp\libgcc.a(_aeabi_uldivmod.o)
                              build/Sercom/production/_ext/2025105575/sys_time.o (__aeabi_uldivmod)
c:/program files/microchip/xc32/v4.21/bin/bin/../../lib/gcc/pic32c/8.3.1/thumb/v8-m.base/nofp\libgcc.a(_muldi3.o)
                              build/Sercom/production/_ext/2025105575/sys_time.o (__aeabi_lmul)
c:/program files/microchip/xc32/v4.21/bin/bin/../../lib/gcc/pic32c/8.3.1/thumb/v8-m.base/nofp\libgcc.a(_udivmoddi4.o)
                              c:/program files/microchip/xc32/v4.21/bin/bin/../../lib/gcc/pic32c/8.3.1/thumb/v8-m.base/nofp\libgcc.a(_aeabi_uldivmod.o) (__udivmoddi4)
c:/program files/microchip/xc32/v4.21/bin/bin/../../lib/gcc/pic32c/8.3.1/thumb/v8-m.base/nofp\libgcc.a(bpabi.o)
                              c:/program files/microchip/xc32/v4.21/bin/bin/../../lib/gcc/pic32c/8.3.1/thumb/v8-m.base/nofp\libgcc.a(_aeabi_ldivmod.o) (__gnu_ldivmod_helper)
c:/program files/microchip/xc32/v4.21/bin/bin/../../lib/gcc/pic32c/8.3.1/thumb/v8-m.base/nofp\libgcc.a(_dvmd_tls.o)
                              c:/program files/microchip/xc32/v4.21/bin/bin/../../lib/gcc/pic32c/8.3.1/thumb/v8-m.base/nofp\libgcc.a(_aeabi_ldivmod.o) (__aeabi_ldiv0)
c:/program files/microchip/xc32/v4.21/bin/bin/../../lib/gcc/pic32c/8.3.1/thumb/v8-m.base/nofp\libgcc.a(_clzsi2.o)
                              c:/program files/microchip/xc32/v4.21/bin/bin/../../lib/gcc/pic32c/8.3.1/thumb/v8-m.base/nofp\libgcc.a(_udivmoddi4.o) (__clzsi2)
c:/program files/microchip/xc32/v4.21/bin/bin/../../lib/gcc/pic32c/8.3.1/thumb/v8-m.base/nofp\libgcc.a(_divdi3.o)
                              c:/program files/microchip/xc32/v4.21/bin/bin/../../lib/gcc/pic32c/8.3.1/thumb/v8-m.base/nofp\libgcc.a(bpabi.o) (__divdi3)
c:/program files/microchip/xc32/v4.21/bin/bin/../../lib/gcc/pic32c/8.3.1/../../../../pic32c/lib/thumb/v8-m.base/nofp\libpic32c.a(close.o)
                              c:/program files/microchip/xc32/v4.21/bin/bin/../../lib/gcc/pic32c/8.3.1/../../../../pic32c/lib/thumb/v8-m.base/nofp\libc-musl.a(__stdio_close.o) (close)
c:/program files/microchip/xc32/v4.21/bin/bin/../../lib/gcc/pic32c/8.3.1/../../../../pic32c/lib/thumb/v8-m.base/nofp\libpic32c.a(lseek.o)
                              c:/program files/microchip/xc32/v4.21/bin/bin/../../lib/gcc/pic32c/8.3.1/../../../../pic32c/lib/thumb/v8-m.base/nofp\libc-musl.a(__stdio_close.o) (lseek)
c:/program files/microchip/xc32/v4.21/bin/bin/../../lib/gcc/pic32c/8.3.1/../../../../pic32c/lib/thumb/v8-m.base/nofp\libpic32c.a(read.o)
                              c:/program files/microchip/xc32/v4.21/bin/bin/../../lib/gcc/pic32c/8.3.1/../../../../pic32c/lib/thumb/v8-m.base/nofp\libc-musl.a(readv.o) (read)
c:/program files/microchip/xc32/v4.21/bin/bin/../../lib/gcc/pic32c/8.3.1/../../../../pic32c/lib/thumb/v8-m.base/nofp\libpic32c.a(sbrk.o)
                              c:/program files/microchip/xc32/v4.21/bin/bin/../../lib/gcc/pic32c/8.3.1/../../../../pic32c/lib/thumb/v8-m.base/nofp\libc-musl.a(expand_heap.o) (_sbrk)
c:/program files/microchip/xc32/v4.21/bin/bin/../../lib/gcc/pic32c/8.3.1/../../../../pic32c/lib/thumb/v8-m.base/nofp\libpic32c.a(write.o)
                              c:/program files/microchip/xc32/v4.21/bin/bin/../../lib/gcc/pic32c/8.3.1/../../../../pic32c/lib/thumb/v8-m.base/nofp\libc-musl.a(__out.o) (write)
c:/program files/microchip/xc32/v4.21/bin/bin/../../lib/gcc/pic32c/8.3.1/../../../../pic32c/lib/thumb/v8-m.base/nofp\libpic32c.a(_mon_getc.o)
                              c:/program files/microchip/xc32/v4.21/bin/bin/../../lib/gcc/pic32c/8.3.1/../../../../pic32c/lib/thumb/v8-m.base/nofp\libpic32c.a(read.o) (_mon_getc)
c:/program files/microchip/xc32/v4.21/bin/bin/../../lib/gcc/pic32c/8.3.1/../../../../pic32c/lib/thumb/v8-m.base/nofp\libpic32c.a(_mon_putc.o)
                              c:/program files/microchip/xc32/v4.21/bin/bin/../../lib/gcc/pic32c/8.3.1/../../../../pic32c/lib/thumb/v8-m.base/nofp\libpic32c.a(write.o) (_mon_putc)

Microchip PIC32 Memory-Usage Report

ROM Program-Memory Usage
section                    address  length [bytes]      (dec)  Description
-------                 ----------  -------------------------  -----------
.vectors                   0x40000          0x15c         348   
.text                      0x4015c           0x20          32  App's exec code 
.ARM.exidx                 0x4017c            0x8           8   
.text                      0x40184          0x31a         794  App's exec code 
.text.TRNG_Initialize      0x4049e            0x2           2   
.text.__printf_core        0x404a0          0x318         792   
.dinit                     0x407b8          0x1d0         464   
.text.malloc               0x40988          0x174         372   
.text.__fmt_x              0x40afc          0x132         306   
.text.SYS_TIME_HwTimerC    0x40c2e           0xfe         254   
.text.SYS_TIME_PLIBCall    0x40d2c           0xf8         248   
.text.SYS_TIME_AddToLis    0x40e24           0xe4         228   
.text.free                 0x40f08           0xcc         204   
.text.SYS_TIME_Initiali    0x40fd4           0xbe         190   
.text.__pop_int            0x41092           0xb6         182   
.text.__fmt_d              0x41148           0xae         174   
.text.main                 0x411f6           0x90         144   
.text.NonMaskableInt_Ha    0x41286            0x2           2   
.rodata                    0x41288           0x8c         140  Read-only const 
.text.__cvt_u              0x41314           0x84         132   
.text.__write_buffered     0x41398           0x82         130   
.text.__stdio_write_buf    0x4141a           0x7c         124   
.text.__pad                0x41496           0x7a         122   
.text.__pic32c_data_ini    0x41510           0x70         112   
.text.__fmt_o              0x41580           0x6e         110   
.text.__pop_ptr            0x415ee           0x68         104   
.text.__stdio_read         0x41656           0x62          98   
.text.SYS_TIME_RemoveFr    0x416b8           0x5e          94   
.text.HardFault_Handler    0x41716            0x2           2   
.text.__libc_start_init    0x41718           0x5c          92   
.rodata                    0x41774           0x5c          92  Read-only const 
.text.__stdio_close_rw     0x417d0           0x5a          90   
.text.Dummy_App_Func       0x4182a            0x2           2   
.text.TC2_TimerInitiali    0x4182c           0x58          88   
.text.SYS_Initialize       0x41884           0x58          88   
.text.__fmt_u              0x418dc           0x56          86   
.text.Reset_Handler        0x41932           0x54          84   
.text.Dummy_Handler        0x41986            0x2           2   
.text.unbin                0x41988           0x50          80   
.text.__fmt_s              0x419d8           0x4c          76   
.text.setvbuf              0x41a24           0x4c          76   
.text.__vsnprintf          0x41a70           0x4c          76   
.text.TC0_TimerInitiali    0x41abc           0x46          70   
.text.SYS_TIME_GetTimer    0x41b02           0x44          68   
.text.SYS_TIME_Resource    0x41b46           0x44          68   
.text                      0x41b8a           0x44          68  App's exec code 
.text.__dummy              0x41bce            0x2           2   
.text                      0x41bd0           0x40          64  App's exec code 
.text.TC2_Timer16bitCou    0x41c10           0x40          64   
.text.wc_CryptoCb_FindD    0x41c50           0x40          64   
.text.adjust_size          0x41c90           0x40          64   
.text                      0x41cd0           0x40          64  App's exec code 
.text.TC0_Timer32bitCou    0x41d10           0x3e          62   
.text.SYS_INT_SourceDis    0x41d4e           0x3e          62   
.text.atoi                 0x41d8c           0x3e          62   
.text.TC2_TimerInterrup    0x41dca           0x3c          60   
.text.SYS_TIME_TimerDes    0x41e06           0x3c          60   
.text.__dummy              0x41e42            0x2           2   
.text.bin_index            0x41e44           0x3c          60   
.text                      0x41e80           0x3c          60  App's exec code 
.text.SYS_TIME_UpdateTi    0x41ebc           0x38          56   
.text.__fmt_state          0x41ef4           0x38          56   
.text.__out                0x41f2c           0x38          56   
.text.write                0x41f64           0x38          56   
.text.TRNG_ReadData        0x41f9c           0x34          52   
.text.alloc_rev            0x41fd0           0x30          48   
.text.alloc_fwd            0x42000           0x2e          46   
.text.__dummy              0x4202e            0x2           2   
.text._sbrk                0x42030           0x2c          44   
.text.wc_CryptoCb_Regis    0x4205c           0x2a          42   
.text.__pop_float          0x42086           0x2a          42   
.text.__towrite_rw         0x420b0           0x2a          42   
.text._mon_getc            0x420da            0x2           2   
.text.NVIC_Initialize      0x420dc           0x28          40   
.text.__readv              0x42104           0x28          40   
.text.__writev             0x4212c           0x28          40   
.text.trim                 0x42154           0x26          38   
.text.read                 0x4217a           0x26          38   
.text.SYS_TIME_Resource    0x421a0           0x24          36   
.text.TC0_TimerStart       0x421c4           0x20          32   
.text.TC2_TimerStart       0x421e4           0x20          32   
.text.TC2_TimerStop        0x42204           0x20          32   
.text.SYS_INT_SourceRes    0x42224           0x1e          30   
.text.SYS_TIME_GetElaps    0x42242           0x1e          30   
.text.TC0_Timer32bitCou    0x42260           0x1c          28   
.text.TC2_Timer16bitPer    0x4227c           0x1c          28   
.text.TC2_Timer16bitCom    0x42298           0x1c          28   
.rodata.sysTimePlibAPI     0x422b4           0x1c          28   
.text.lock_bin             0x422d0           0x1c          28   
.rodata                    0x422ec           0x1c          28  Read-only const 
.text.APP_Tasks            0x42308           0x1a          26   
.text.__towrite            0x42322           0x18          24   
.text.__vfprintf           0x4233a           0x18          24   
.text._mon_putc            0x42352            0x2           2   
.text                      0x42354           0x30          48  App's exec code 
.text.__expand_heap        0x42384           0x16          22   
.text.__wrap_sprintf       0x4239a           0x16          22   
.text.CRYPT_WCCB_Initia    0x423b0           0x14          20   
.text.__init_stdout        0x423c4           0x14          20   
.text.__vsprintf           0x423d8           0x14          20   
.text.NVIC_INT_Disable     0x423ec           0x12          18   
.text.NVIC_INT_Restore     0x423fe           0x12          18   
.text.setbuf               0x42410           0x12          18   
.text.memcpy               0x42422           0x12          18   
.text.__fwrite             0x42434           0x12          18   
.text.memset               0x42446           0x10          16   
.text.__init_stdio         0x42456           0x10          16   
.text.TC2_TimerCallback    0x42466            0xe          14   
.text.APP_Initialize       0x42474            0xe          14   
.text.tolower              0x42482            0xe          14   
.text.toupper              0x42490            0xe          14   
.text.strlen               0x4249e            0xe          14   
.text.TC2_TimerFrequenc    0x424ac            0xa          10   
.text.__fwrite_min         0x424b6            0xa          10   
.text.SYS_INT_Disable      0x424c0            0x8           8   
.text.SYS_INT_Restore      0x424c8            0x8           8   
.rodata.sysTimeInitData    0x424d0            0x8           8   
.text.SYS_Tasks            0x424d8            0x8           8   
.text.CRYPT_WCCB_Callba    0x424e0            0x8           8   
.text.__pic32c_data_ini    0x424e8            0x8           8   
.text.__get_stdout         0x424f0            0x8           8   
.rodata                    0x424f8            0x7           7  Read-only const 
.text.close                0x42500            0x6           6   
.text.__dummy_fmt4         0x42506            0x4           4   
.text.__dummy              0x4250a            0x4           4   
.text                      0x42510            0x4           4  App's exec code 
.text.lseek                0x42514            0x4           4   
      Total ROM used  :      0x2515        9493  3.6% of 0x40000
        --------------------------------------------------------------------------
         Total Program Memory used  :      0x2515        9493  3.6% of 0x40000
        --------------------------------------------------------------------------


RAM Data-Memory Usage
section                    address  length [bytes]      (dec)  Description
-------                 ----------  -------------------------  -----------
.bss                    0x20008000          0x618        1560  Uninitialized data 
.bss.timers             0x20008618           0xa0         160   
.bss.gCryptoDev         0x200086b8           0x60          96   
.bss                    0x20008718           0x50          80  Uninitialized data 
.bss.gSystemCounterObj  0x20008768           0x40          64   
.bss                    0x200087a8           0x1c          28  Uninitialized data 
.bss.TC2_CallbackObject 0x200087c4            0x8           8   
.bss                    0x200087cc            0x8           8  Uninitialized data 
.bss.sysObj             0x200087d4            0x4           4   
.bss                    0x200087d8           0x10          16  Uninitialized data 
.bss.appData            0x200087e8            0x1           1   
.data                   0x200087ec           0xec         236  Initialized data 
         Total RAM used  :       0x8d5        2261  6.9% of 0x8000
        --------------------------------------------------------------------------
            Total Data Memory used  :       0x8d5        2261  6.9% of 0x8000
        --------------------------------------------------------------------------


Dynamic Data-Memory Reservation
section                    address  length [bytes]      (dec)  Description
-------                 ----------  -------------------------  -----------
heap                    0x200088e0          0x200         512  Reserved for heap 
stack                   0x20008af8         0x7500       29952  Reserved for stack 

        --------------------------------------------------------------------------

Discarded input sections

 .text          0x00000000        0x0 c:/program files/microchip/xc32/v4.21/bin/bin/../../lib/gcc/pic32c/8.3.1/thumb/v8-m.base/nofp/crti.o
 .data          0x00000000        0x0 c:/program files/microchip/xc32/v4.21/bin/bin/../../lib/gcc/pic32c/8.3.1/thumb/v8-m.base/nofp/crti.o
 .bss           0x00000000        0x0 c:/program files/microchip/xc32/v4.21/bin/bin/../../lib/gcc/pic32c/8.3.1/thumb/v8-m.base/nofp/crti.o
 .xc_stack_usage.hdr
                0x00000000        0xe c:/program files/microchip/xc32/v4.21/bin/bin/../../lib/gcc/pic32c/8.3.1/thumb/v8-m.base/nofp/crti.o
 .xc_stack_usage
                0x00000000       0x26 c:/program files/microchip/xc32/v4.21/bin/bin/../../lib/gcc/pic32c/8.3.1/thumb/v8-m.base/nofp/crti.o
 .data          0x00000000        0x4 c:/program files/microchip/xc32/v4.21/bin/bin/../../lib/gcc/pic32c/8.3.1/thumb/v8-m.base/nofp/crtbegin.o
 .xc_stack_usage
                0x00000000       0x3c c:/program files/microchip/xc32/v4.21/bin/bin/../../lib/gcc/pic32c/8.3.1/thumb/v8-m.base/nofp/crtbegin.o
 .xc_stack_usage.hdr
                0x00000000        0xe c:/program files/microchip/xc32/v4.21/bin/bin/../../lib/gcc/pic32c/8.3.1/thumb/v8-m.base/nofp/crtbegin.o
 .text          0x00000000        0x0 build/Sercom/production/_ext/2090800303/crypto.o
 .data          0x00000000        0x0 build/Sercom/production/_ext/2090800303/crypto.o
 .bss           0x00000000        0x0 build/Sercom/production/_ext/2090800303/crypto.o
 .text.CRYPT_MD5_Initialize
                0x00000000       0x12 build/Sercom/production/_ext/2090800303/crypto.o
 .text.CRYPT_MD5_DataSizeSet
                0x00000000        0xe build/Sercom/production/_ext/2090800303/crypto.o
 .text.CRYPT_MD5_DataAdd
                0x00000000       0x18 build/Sercom/production/_ext/2090800303/crypto.o
 .text.CRYPT_MD5_Finalize
                0x00000000       0x18 build/Sercom/production/_ext/2090800303/crypto.o
 .text.CRYPT_SHA_Initialize
                0x00000000       0x10 build/Sercom/production/_ext/2090800303/crypto.o
 .text.CRYPT_SHA_DataSizeSet
                0x00000000        0xe build/Sercom/production/_ext/2090800303/crypto.o
 .text.CRYPT_SHA_DataAdd
                0x00000000       0x18 build/Sercom/production/_ext/2090800303/crypto.o
 .text.CRYPT_SHA_Finalize
                0x00000000       0x18 build/Sercom/production/_ext/2090800303/crypto.o
 .text.CRYPT_SHA256_Initialize
                0x00000000       0x10 build/Sercom/production/_ext/2090800303/crypto.o
 .text.CRYPT_SHA256_DataSizeSet
                0x00000000        0xe build/Sercom/production/_ext/2090800303/crypto.o
 .text.CRYPT_SHA256_DataAdd
                0x00000000       0x18 build/Sercom/production/_ext/2090800303/crypto.o
 .text.CRYPT_SHA256_Finalize
                0x00000000       0x18 build/Sercom/production/_ext/2090800303/crypto.o
 .text.CRYPT_SHA224_Initialize
                0x00000000       0x10 build/Sercom/production/_ext/2090800303/crypto.o
 .text.CRYPT_SHA224_DataAdd
                0x00000000       0x18 build/Sercom/production/_ext/2090800303/crypto.o
 .text.CRYPT_SHA224_Finalize
                0x00000000       0x18 build/Sercom/production/_ext/2090800303/crypto.o
 .text.CRYPT_HMAC_SetKey
                0x00000000       0x44 build/Sercom/production/_ext/2090800303/crypto.o
 .text.CRYPT_HMAC_DataAdd
                0x00000000       0x18 build/Sercom/production/_ext/2090800303/crypto.o
 .text.CRYPT_HMAC_Finalize
                0x00000000       0x18 build/Sercom/production/_ext/2090800303/crypto.o
 .text.CRYPT_RNG_Initialize
                0x00000000       0x10 build/Sercom/production/_ext/2090800303/crypto.o
 .text.CRYPT_RNG_Deinitialize
                0x00000000       0x12 build/Sercom/production/_ext/2090800303/crypto.o
 .text.CRYPT_RNG_Get
                0x00000000       0x18 build/Sercom/production/_ext/2090800303/crypto.o
 .text.CRYPT_RNG_BlockGenerate
                0x00000000       0x18 build/Sercom/production/_ext/2090800303/crypto.o
 .text.CRYPT_TDES_KeySet
                0x00000000       0x18 build/Sercom/production/_ext/2090800303/crypto.o
 .text.CRYPT_TDES_IvSet
                0x00000000       0x18 build/Sercom/production/_ext/2090800303/crypto.o
 .text.CRYPT_TDES_CBC_Encrypt
                0x00000000       0x20 build/Sercom/production/_ext/2090800303/crypto.o
 .text.CRYPT_TDES_CBC_Decrypt
                0x00000000       0x20 build/Sercom/production/_ext/2090800303/crypto.o
 .text.CRYPT_AES_KeySet
                0x00000000       0x20 build/Sercom/production/_ext/2090800303/crypto.o
 .text.CRYPT_AES_IvSet
                0x00000000       0x18 build/Sercom/production/_ext/2090800303/crypto.o
 .text.CRYPT_AES_CBC_Encrypt
                0x00000000       0x20 build/Sercom/production/_ext/2090800303/crypto.o
 .text.CRYPT_AES_CBC_Decrypt
                0x00000000       0x20 build/Sercom/production/_ext/2090800303/crypto.o
 .text.CRYPT_AES_CTR_Encrypt
                0x00000000       0x20 build/Sercom/production/_ext/2090800303/crypto.o
 .text.CRYPT_AES_GCM_SetKey
                0x00000000       0x18 build/Sercom/production/_ext/2090800303/crypto.o
 .text.CRYPT_AES_GCM_Encrypt
                0x00000000       0x34 build/Sercom/production/_ext/2090800303/crypto.o
 .text.CRYPT_AES_GCM_Decrypt
                0x00000000       0x2c build/Sercom/production/_ext/2090800303/crypto.o
 .text.CRYPT_AES_DIRECT_Encrypt
                0x00000000       0x12 build/Sercom/production/_ext/2090800303/crypto.o
 .text.CRYPT_AES_DIRECT_Decrypt
                0x00000000       0x22 build/Sercom/production/_ext/2090800303/crypto.o
 .text.CRYPT_RSA_Initialize
                0x00000000       0x28 build/Sercom/production/_ext/2090800303/crypto.o
 .text.CRYPT_RSA_Free
                0x00000000       0x22 build/Sercom/production/_ext/2090800303/crypto.o
 .text.CRYPT_RSA_PublicKeyDecode
                0x00000000       0x2a build/Sercom/production/_ext/2090800303/crypto.o
 .text.CRYPT_RSA_PrivateKeyDecode
                0x00000000       0x2a build/Sercom/production/_ext/2090800303/crypto.o
 .text.CRYPT_RSA_PublicEncrypt
                0x00000000       0x3e build/Sercom/production/_ext/2090800303/crypto.o
 .text.CRYPT_RSA_PrivateDecrypt
                0x00000000       0x32 build/Sercom/production/_ext/2090800303/crypto.o
 .text.CRYPT_RSA_EncryptSizeGet
                0x00000000       0x12 build/Sercom/production/_ext/2090800303/crypto.o
 .text.CRYPT_ECC_Initialize
                0x00000000       0x24 build/Sercom/production/_ext/2090800303/crypto.o
 .text.CRYPT_ECC_Free
                0x00000000       0x22 build/Sercom/production/_ext/2090800303/crypto.o
 .text.CRYPT_ECC_PublicExport
                0x00000000       0x28 build/Sercom/production/_ext/2090800303/crypto.o
 .text.CRYPT_ECC_PublicImport
                0x00000000       0x20 build/Sercom/production/_ext/2090800303/crypto.o
 .text.CRYPT_ECC_PrivateImport
                0x00000000       0x32 build/Sercom/production/_ext/2090800303/crypto.o
 .text.CRYPT_ECC_DHE_KeyMake
                0x00000000       0x20 build/Sercom/production/_ext/2090800303/crypto.o
 .text.CRYPT_ECC_DHE_SharedSecretMake
                0x00000000       0x3a build/Sercom/production/_ext/2090800303/crypto.o
 .text.CRYPT_ECC_DSA_HashSign
                0x00000000       0x4a build/Sercom/production/_ext/2090800303/crypto.o
 .text.CRYPT_ECC_DSA_HashVerify
                0x00000000       0x40 build/Sercom/production/_ext/2090800303/crypto.o
 .text.CRYPT_ECC_KeySizeGet
                0x00000000       0x12 build/Sercom/production/_ext/2090800303/crypto.o
 .text.CRYPT_ECC_SignatureSizeGet
                0x00000000       0x12 build/Sercom/production/_ext/2090800303/crypto.o
 .text.CRYPT_ERROR_StringGet
                0x00000000       0x1e build/Sercom/production/_ext/2090800303/crypto.o
 .rodata        0x00000000       0x28 build/Sercom/production/_ext/2090800303/crypto.o
 .debug_info    0x00000000     0x40c9 build/Sercom/production/_ext/2090800303/crypto.o
 .debug_abbrev  0x00000000      0x3aa build/Sercom/production/_ext/2090800303/crypto.o
 .debug_loc     0x00000000     0x2e7f build/Sercom/production/_ext/2090800303/crypto.o
 .debug_aranges
                0x00000000      0x1d0 build/Sercom/production/_ext/2090800303/crypto.o
 .debug_ranges  0x00000000      0x1c0 build/Sercom/production/_ext/2090800303/crypto.o
 .debug_line    0x00000000      0xd1e build/Sercom/production/_ext/2090800303/crypto.o
 .debug_str     0x00000000      0x454 build/Sercom/production/_ext/2090800303/crypto.o
 .comment       0x00000000       0x2c build/Sercom/production/_ext/2090800303/crypto.o
 .debug_frame   0x00000000      0x550 build/Sercom/production/_ext/2090800303/crypto.o
 .ARM.attributes
                0x00000000       0x30 build/Sercom/production/_ext/2090800303/crypto.o
 .text          0x00000000        0x0 build/Sercom/production/_ext/302508358/plib_nvic.o
 .data          0x00000000        0x0 build/Sercom/production/_ext/302508358/plib_nvic.o
 .bss           0x00000000        0x0 build/Sercom/production/_ext/302508358/plib_nvic.o
 .text.NVIC_INT_Enable
                0x00000000        0x8 build/Sercom/production/_ext/302508358/plib_nvic.o
 .text          0x00000000        0x0 build/Sercom/production/_ext/302455207/plib_port.o
 .data          0x00000000        0x0 build/Sercom/production/_ext/302455207/plib_port.o
 .bss           0x00000000        0x0 build/Sercom/production/_ext/302455207/plib_port.o
 .text.PORT_GroupRead
                0x00000000        0x4 build/Sercom/production/_ext/302455207/plib_port.o
 .text.PORT_GroupWrite
                0x00000000        0xc build/Sercom/production/_ext/302455207/plib_port.o
 .text.PORT_GroupLatchRead
                0x00000000        0x4 build/Sercom/production/_ext/302455207/plib_port.o
 .text.PORT_GroupSet
                0x00000000        0x4 build/Sercom/production/_ext/302455207/plib_port.o
 .text.PORT_GroupClear
                0x00000000        0x4 build/Sercom/production/_ext/302455207/plib_port.o
 .text.PORT_GroupToggle
                0x00000000        0x4 build/Sercom/production/_ext/302455207/plib_port.o
 .text.PORT_GroupInputEnable
                0x00000000        0x4 build/Sercom/production/_ext/302455207/plib_port.o
 .text.PORT_GroupOutputEnable
                0x00000000        0x4 build/Sercom/production/_ext/302455207/plib_port.o
 .debug_info    0x00000000      0x810 build/Sercom/production/_ext/302455207/plib_port.o
 .debug_abbrev  0x00000000      0x12a build/Sercom/production/_ext/302455207/plib_port.o
 .debug_loc     0x00000000       0x94 build/Sercom/production/_ext/302455207/plib_port.o
 .debug_aranges
                0x00000000       0x58 build/Sercom/production/_ext/302455207/plib_port.o
 .debug_ranges  0x00000000       0x48 build/Sercom/production/_ext/302455207/plib_port.o
 .debug_line    0x00000000      0x1cd build/Sercom/production/_ext/302455207/plib_port.o
 .debug_str     0x00000000        0xb build/Sercom/production/_ext/302455207/plib_port.o
 .comment       0x00000000       0x2c build/Sercom/production/_ext/302455207/plib_port.o
 .debug_frame   0x00000000       0x90 build/Sercom/production/_ext/302455207/plib_port.o
 .ARM.attributes
                0x00000000       0x30 build/Sercom/production/_ext/302455207/plib_port.o
 .text          0x00000000        0x0 build/Sercom/production/_ext/1582435769/plib_tc0.o
 .data          0x00000000        0x0 build/Sercom/production/_ext/1582435769/plib_tc0.o
 .bss           0x00000000        0x0 build/Sercom/production/_ext/1582435769/plib_tc0.o
 .text.TC0_TimerStop
                0x00000000       0x20 build/Sercom/production/_ext/1582435769/plib_tc0.o
 .text.TC0_TimerFrequencyGet
                0x00000000        0xa build/Sercom/production/_ext/1582435769/plib_tc0.o
 .text.TC0_TimerCommandSet
                0x00000000       0x1e build/Sercom/production/_ext/1582435769/plib_tc0.o
 .text.TC0_Timer32bitPeriodSet
                0x00000000       0x1c build/Sercom/production/_ext/1582435769/plib_tc0.o
 .text.TC0_Timer32bitPeriodGet
                0x00000000        0xc build/Sercom/production/_ext/1582435769/plib_tc0.o
 .text.TC0_TimerPeriodHasExpired
                0x00000000       0x12 build/Sercom/production/_ext/1582435769/plib_tc0.o
 .text          0x00000000        0x0 build/Sercom/production/_ext/1582435769/plib_tc2.o
 .data          0x00000000        0x0 build/Sercom/production/_ext/1582435769/plib_tc2.o
 .bss           0x00000000        0x0 build/Sercom/production/_ext/1582435769/plib_tc2.o
 .text.TC2_TimerCommandSet
                0x00000000       0x1e build/Sercom/production/_ext/1582435769/plib_tc2.o
 .text.TC2_Timer16bitCounterSet
                0x00000000       0x1c build/Sercom/production/_ext/1582435769/plib_tc2.o
 .text.TC2_Timer16bitPeriodGet
                0x00000000        0xe build/Sercom/production/_ext/1582435769/plib_tc2.o
 .text          0x00000000        0x0 build/Sercom/production/_ext/302333297/plib_trng.o
 .data          0x00000000        0x0 build/Sercom/production/_ext/302333297/plib_trng.o
 .bss           0x00000000        0x0 build/Sercom/production/_ext/302333297/plib_trng.o
 .text          0x00000000        0x0 build/Sercom/production/_ext/10618399/sys_int.o
 .data          0x00000000        0x0 build/Sercom/production/_ext/10618399/sys_int.o
 .bss           0x00000000        0x0 build/Sercom/production/_ext/10618399/sys_int.o
 .text.SYS_INT_Enable
                0x00000000        0x8 build/Sercom/production/_ext/10618399/sys_int.o
 .text          0x00000000        0x0 build/Sercom/production/_ext/2025105575/sys_time.o
 .data          0x00000000        0x0 build/Sercom/production/_ext/2025105575/sys_time.o
 .bss           0x00000000        0x0 build/Sercom/production/_ext/2025105575/sys_time.o
 .text.SYS_TIME_TimerAdd
                0x00000000       0x58 build/Sercom/production/_ext/2025105575/sys_time.o
 .text.SYS_TIME_TimerObjectCreate
                0x00000000       0xc8 build/Sercom/production/_ext/2025105575/sys_time.o
 .text.SYS_TIME_Deinitialize
                0x00000000       0x34 build/Sercom/production/_ext/2025105575/sys_time.o
 .text.SYS_TIME_Status
                0x00000000       0x20 build/Sercom/production/_ext/2025105575/sys_time.o
 .text.SYS_TIME_FrequencyGet
                0x00000000        0xc build/Sercom/production/_ext/2025105575/sys_time.o
 .text.SYS_TIME_Counter64Get
                0x00000000       0x32 build/Sercom/production/_ext/2025105575/sys_time.o
 .text.SYS_TIME_CounterGet
                0x00000000        0x8 build/Sercom/production/_ext/2025105575/sys_time.o
 .text.SYS_TIME_CounterSet
                0x00000000       0x1e build/Sercom/production/_ext/2025105575/sys_time.o
 .text.SYS_TIME_CountToUS
                0x00000000       0x3c build/Sercom/production/_ext/2025105575/sys_time.o
 .text.SYS_TIME_CountToMS
                0x00000000       0x20 build/Sercom/production/_ext/2025105575/sys_time.o
 .text.SYS_TIME_USToCount
                0x00000000       0x26 build/Sercom/production/_ext/2025105575/sys_time.o
 .text.SYS_TIME_MSToCount
                0x00000000       0x22 build/Sercom/production/_ext/2025105575/sys_time.o
 .text.SYS_TIME_TimerCreate
                0x00000000       0x1c build/Sercom/production/_ext/2025105575/sys_time.o
 .text.SYS_TIME_TimerReload
                0x00000000       0x96 build/Sercom/production/_ext/2025105575/sys_time.o
 .text.SYS_TIME_TimerStart
                0x00000000       0x5a build/Sercom/production/_ext/2025105575/sys_time.o
 .text.SYS_TIME_TimerStop
                0x00000000       0x3c build/Sercom/production/_ext/2025105575/sys_time.o
 .text.SYS_TIME_TimerCounterGet
                0x00000000       0x88 build/Sercom/production/_ext/2025105575/sys_time.o
 .text.SYS_TIME_TimerPeriodHasExpired
                0x00000000       0x28 build/Sercom/production/_ext/2025105575/sys_time.o
 .text.SYS_TIME_DelayUS
                0x00000000       0x56 build/Sercom/production/_ext/2025105575/sys_time.o
 .text.SYS_TIME_DelayMS
                0x00000000       0x52 build/Sercom/production/_ext/2025105575/sys_time.o
 .text.SYS_TIME_DelayIsComplete
                0x00000000       0x18 build/Sercom/production/_ext/2025105575/sys_time.o
 .text.SYS_TIME_CallbackRegisterUS
                0x00000000       0x5a build/Sercom/production/_ext/2025105575/sys_time.o
 .text.SYS_TIME_CallbackRegisterMS
                0x00000000       0x56 build/Sercom/production/_ext/2025105575/sys_time.o
 .data.gSysTimeTokenCount
                0x00000000        0x2 build/Sercom/production/_ext/2025105575/sys_time.o
 .text          0x00000000        0x0 build/Sercom/production/_ext/1491116340/exceptions.o
 .data          0x00000000        0x0 build/Sercom/production/_ext/1491116340/exceptions.o
 .bss           0x00000000        0x0 build/Sercom/production/_ext/1491116340/exceptions.o
 .text          0x00000000        0x0 build/Sercom/production/_ext/1491116340/libc_syscalls.o
 .data          0x00000000        0x0 build/Sercom/production/_ext/1491116340/libc_syscalls.o
 .bss           0x00000000        0x0 build/Sercom/production/_ext/1491116340/libc_syscalls.o
 .text._exit    0x00000000        0x2 build/Sercom/production/_ext/1491116340/libc_syscalls.o
 .debug_info    0x00000000      0x329 build/Sercom/production/_ext/1491116340/libc_syscalls.o
 .debug_abbrev  0x00000000       0x52 build/Sercom/production/_ext/1491116340/libc_syscalls.o
 .debug_loc     0x00000000       0x15 build/Sercom/production/_ext/1491116340/libc_syscalls.o
 .debug_aranges
                0x00000000       0x20 build/Sercom/production/_ext/1491116340/libc_syscalls.o
 .debug_ranges  0x00000000       0x10 build/Sercom/production/_ext/1491116340/libc_syscalls.o
 .debug_line    0x00000000       0x5a build/Sercom/production/_ext/1491116340/libc_syscalls.o
 .debug_str     0x00000000        0x0 build/Sercom/production/_ext/1491116340/libc_syscalls.o
 .comment       0x00000000       0x2c build/Sercom/production/_ext/1491116340/libc_syscalls.o
 .debug_frame   0x00000000       0x20 build/Sercom/production/_ext/1491116340/libc_syscalls.o
 .ARM.attributes
                0x00000000       0x30 build/Sercom/production/_ext/1491116340/libc_syscalls.o
 .text          0x00000000        0x0 build/Sercom/production/_ext/1491116340/initialization.o
 .data          0x00000000        0x0 build/Sercom/production/_ext/1491116340/initialization.o
 .bss           0x00000000        0x0 build/Sercom/production/_ext/1491116340/initialization.o
 .text          0x00000000        0x0 build/Sercom/production/_ext/1491116340/startup_xc32.o
 .data          0x00000000        0x0 build/Sercom/production/_ext/1491116340/startup_xc32.o
 .bss           0x00000000        0x0 build/Sercom/production/_ext/1491116340/startup_xc32.o
 .text          0x00000000        0x0 build/Sercom/production/_ext/1491116340/interrupts.o
 .data          0x00000000        0x0 build/Sercom/production/_ext/1491116340/interrupts.o
 .bss           0x00000000        0x0 build/Sercom/production/_ext/1491116340/interrupts.o
 .text          0x00000000        0x0 build/Sercom/production/_ext/1491116340/tasks.o
 .data          0x00000000        0x0 build/Sercom/production/_ext/1491116340/tasks.o
 .bss           0x00000000        0x0 build/Sercom/production/_ext/1491116340/tasks.o
 .text          0x00000000        0x0 build/Sercom/production/_ext/172253694/crypt_sha256_sam6156.o
 .data          0x00000000        0x0 build/Sercom/production/_ext/172253694/crypt_sha256_sam6156.o
 .bss           0x00000000        0x0 build/Sercom/production/_ext/172253694/crypt_sha256_sam6156.o
 .debug_info    0x00000000      0x329 build/Sercom/production/_ext/172253694/crypt_sha256_sam6156.o
 .debug_abbrev  0x00000000       0x1b build/Sercom/production/_ext/172253694/crypt_sha256_sam6156.o
 .debug_aranges
                0x00000000       0x18 build/Sercom/production/_ext/172253694/crypt_sha256_sam6156.o
 .debug_line    0x00000000       0x1d build/Sercom/production/_ext/172253694/crypt_sha256_sam6156.o
 .debug_str     0x00000000        0x0 build/Sercom/production/_ext/172253694/crypt_sha256_sam6156.o
 .comment       0x00000000       0x2c build/Sercom/production/_ext/172253694/crypt_sha256_sam6156.o
 .ARM.attributes
                0x00000000       0x32 build/Sercom/production/_ext/172253694/crypt_sha256_sam6156.o
 .text          0x00000000        0x0 build/Sercom/production/_ext/172253694/crypt_sha1_sam6156.o
 .data          0x00000000        0x0 build/Sercom/production/_ext/172253694/crypt_sha1_sam6156.o
 .bss           0x00000000        0x0 build/Sercom/production/_ext/172253694/crypt_sha1_sam6156.o
 .debug_info    0x00000000      0x327 build/Sercom/production/_ext/172253694/crypt_sha1_sam6156.o
 .debug_abbrev  0x00000000       0x1b build/Sercom/production/_ext/172253694/crypt_sha1_sam6156.o
 .debug_aranges
                0x00000000       0x18 build/Sercom/production/_ext/172253694/crypt_sha1_sam6156.o
 .debug_line    0x00000000       0x1d build/Sercom/production/_ext/172253694/crypt_sha1_sam6156.o
 .debug_str     0x00000000        0x0 build/Sercom/production/_ext/172253694/crypt_sha1_sam6156.o
 .comment       0x00000000       0x2c build/Sercom/production/_ext/172253694/crypt_sha1_sam6156.o
 .ARM.attributes
                0x00000000       0x32 build/Sercom/production/_ext/172253694/crypt_sha1_sam6156.o
 .text          0x00000000        0x0 build/Sercom/production/_ext/172253694/crypt_sha1_sam11105.o
 .data          0x00000000        0x0 build/Sercom/production/_ext/172253694/crypt_sha1_sam11105.o
 .bss           0x00000000        0x0 build/Sercom/production/_ext/172253694/crypt_sha1_sam11105.o
 .debug_info    0x00000000      0x328 build/Sercom/production/_ext/172253694/crypt_sha1_sam11105.o
 .debug_abbrev  0x00000000       0x1b build/Sercom/production/_ext/172253694/crypt_sha1_sam11105.o
 .debug_aranges
                0x00000000       0x18 build/Sercom/production/_ext/172253694/crypt_sha1_sam11105.o
 .debug_line    0x00000000       0x1d build/Sercom/production/_ext/172253694/crypt_sha1_sam11105.o
 .debug_str     0x00000000        0x0 build/Sercom/production/_ext/172253694/crypt_sha1_sam11105.o
 .comment       0x00000000       0x2c build/Sercom/production/_ext/172253694/crypt_sha1_sam11105.o
 .ARM.attributes
                0x00000000       0x32 build/Sercom/production/_ext/172253694/crypt_sha1_sam11105.o
 .text          0x00000000        0x0 build/Sercom/production/_ext/172253694/crypt_rng_u2242.o
 .data          0x00000000        0x0 build/Sercom/production/_ext/172253694/crypt_rng_u2242.o
 .bss           0x00000000        0x0 build/Sercom/production/_ext/172253694/crypt_rng_u2242.o
 .debug_info    0x00000000      0x324 build/Sercom/production/_ext/172253694/crypt_rng_u2242.o
 .debug_abbrev  0x00000000       0x1b build/Sercom/production/_ext/172253694/crypt_rng_u2242.o
 .debug_aranges
                0x00000000       0x18 build/Sercom/production/_ext/172253694/crypt_rng_u2242.o
 .debug_line    0x00000000       0x1d build/Sercom/production/_ext/172253694/crypt_rng_u2242.o
 .debug_str     0x00000000        0x0 build/Sercom/production/_ext/172253694/crypt_rng_u2242.o
 .comment       0x00000000       0x2c build/Sercom/production/_ext/172253694/crypt_rng_u2242.o
 .ARM.attributes
                0x00000000       0x32 build/Sercom/production/_ext/172253694/crypt_rng_u2242.o
 .text          0x00000000        0x0 build/Sercom/production/_ext/172253694/crypt_sha512_sam6156.o
 .data          0x00000000        0x0 build/Sercom/production/_ext/172253694/crypt_sha512_sam6156.o
 .bss           0x00000000        0x0 build/Sercom/production/_ext/172253694/crypt_sha512_sam6156.o
 .debug_info    0x00000000      0x329 build/Sercom/production/_ext/172253694/crypt_sha512_sam6156.o
 .debug_abbrev  0x00000000       0x1b build/Sercom/production/_ext/172253694/crypt_sha512_sam6156.o
 .debug_aranges
                0x00000000       0x18 build/Sercom/production/_ext/172253694/crypt_sha512_sam6156.o
 .debug_line    0x00000000       0x1d build/Sercom/production/_ext/172253694/crypt_sha512_sam6156.o
 .debug_str     0x00000000        0x0 build/Sercom/production/_ext/172253694/crypt_sha512_sam6156.o
 .comment       0x00000000       0x2c build/Sercom/production/_ext/172253694/crypt_sha512_sam6156.o
 .ARM.attributes
                0x00000000       0x32 build/Sercom/production/_ext/172253694/crypt_sha512_sam6156.o
 .text          0x00000000        0x0 build/Sercom/production/_ext/172253694/crypt_rng_sam6334.o
 .data          0x00000000        0x0 build/Sercom/production/_ext/172253694/crypt_rng_sam6334.o
 .bss           0x00000000        0x0 build/Sercom/production/_ext/172253694/crypt_rng_sam6334.o
 .debug_info    0x00000000      0x326 build/Sercom/production/_ext/172253694/crypt_rng_sam6334.o
 .debug_abbrev  0x00000000       0x1b build/Sercom/production/_ext/172253694/crypt_rng_sam6334.o
 .debug_aranges
                0x00000000       0x18 build/Sercom/production/_ext/172253694/crypt_rng_sam6334.o
 .debug_line    0x00000000       0x1d build/Sercom/production/_ext/172253694/crypt_rng_sam6334.o
 .debug_str     0x00000000        0x0 build/Sercom/production/_ext/172253694/crypt_rng_sam6334.o
 .comment       0x00000000       0x2c build/Sercom/production/_ext/172253694/crypt_rng_sam6334.o
 .ARM.attributes
                0x00000000       0x32 build/Sercom/production/_ext/172253694/crypt_rng_sam6334.o
 .text          0x00000000        0x0 build/Sercom/production/_ext/172253694/crypt_sha256_sam11105.o
 .data          0x00000000        0x0 build/Sercom/production/_ext/172253694/crypt_sha256_sam11105.o
 .bss           0x00000000        0x0 build/Sercom/production/_ext/172253694/crypt_sha256_sam11105.o
 .debug_info    0x00000000      0x32a build/Sercom/production/_ext/172253694/crypt_sha256_sam11105.o
 .debug_abbrev  0x00000000       0x1b build/Sercom/production/_ext/172253694/crypt_sha256_sam11105.o
 .debug_aranges
                0x00000000       0x18 build/Sercom/production/_ext/172253694/crypt_sha256_sam11105.o
 .debug_line    0x00000000       0x1d build/Sercom/production/_ext/172253694/crypt_sha256_sam11105.o
 .debug_str     0x00000000        0x0 build/Sercom/production/_ext/172253694/crypt_sha256_sam11105.o
 .comment       0x00000000       0x2c build/Sercom/production/_ext/172253694/crypt_sha256_sam11105.o
 .ARM.attributes
                0x00000000       0x32 build/Sercom/production/_ext/172253694/crypt_sha256_sam11105.o
 .text          0x00000000        0x0 build/Sercom/production/_ext/172253694/crypt_sha224_sam11105.o
 .data          0x00000000        0x0 build/Sercom/production/_ext/172253694/crypt_sha224_sam11105.o
 .bss           0x00000000        0x0 build/Sercom/production/_ext/172253694/crypt_sha224_sam11105.o
 .debug_info    0x00000000      0x32a build/Sercom/production/_ext/172253694/crypt_sha224_sam11105.o
 .debug_abbrev  0x00000000       0x1b build/Sercom/production/_ext/172253694/crypt_sha224_sam11105.o
 .debug_aranges
                0x00000000       0x18 build/Sercom/production/_ext/172253694/crypt_sha224_sam11105.o
 .debug_line    0x00000000       0x1d build/Sercom/production/_ext/172253694/crypt_sha224_sam11105.o
 .debug_str     0x00000000        0x0 build/Sercom/production/_ext/172253694/crypt_sha224_sam11105.o
 .comment       0x00000000       0x2c build/Sercom/production/_ext/172253694/crypt_sha224_sam11105.o
 .ARM.attributes
                0x00000000       0x32 build/Sercom/production/_ext/172253694/crypt_sha224_sam11105.o
 .text          0x00000000        0x0 build/Sercom/production/_ext/172253694/pic32mz-crypt.o
 .data          0x00000000        0x0 build/Sercom/production/_ext/172253694/pic32mz-crypt.o
 .bss           0x00000000        0x0 build/Sercom/production/_ext/172253694/pic32mz-crypt.o
 .debug_info    0x00000000      0x322 build/Sercom/production/_ext/172253694/pic32mz-crypt.o
 .debug_abbrev  0x00000000       0x1b build/Sercom/production/_ext/172253694/pic32mz-crypt.o
 .debug_aranges
                0x00000000       0x18 build/Sercom/production/_ext/172253694/pic32mz-crypt.o
 .debug_line    0x00000000       0x1d build/Sercom/production/_ext/172253694/pic32mz-crypt.o
 .debug_str     0x00000000        0x0 build/Sercom/production/_ext/172253694/pic32mz-crypt.o
 .comment       0x00000000       0x2c build/Sercom/production/_ext/172253694/pic32mz-crypt.o
 .ARM.attributes
                0x00000000       0x32 build/Sercom/production/_ext/172253694/pic32mz-crypt.o
 .text          0x00000000        0x0 build/Sercom/production/_ext/172253694/crypt_sha384_sam6156.o
 .data          0x00000000        0x0 build/Sercom/production/_ext/172253694/crypt_sha384_sam6156.o
 .bss           0x00000000        0x0 build/Sercom/production/_ext/172253694/crypt_sha384_sam6156.o
 .debug_info    0x00000000      0x329 build/Sercom/production/_ext/172253694/crypt_sha384_sam6156.o
 .debug_abbrev  0x00000000       0x1b build/Sercom/production/_ext/172253694/crypt_sha384_sam6156.o
 .debug_aranges
                0x00000000       0x18 build/Sercom/production/_ext/172253694/crypt_sha384_sam6156.o
 .debug_line    0x00000000       0x1d build/Sercom/production/_ext/172253694/crypt_sha384_sam6156.o
 .debug_str     0x00000000        0x0 build/Sercom/production/_ext/172253694/crypt_sha384_sam6156.o
 .comment       0x00000000       0x2c build/Sercom/production/_ext/172253694/crypt_sha384_sam6156.o
 .ARM.attributes
                0x00000000       0x32 build/Sercom/production/_ext/172253694/crypt_sha384_sam6156.o
 .text          0x00000000        0x0 build/Sercom/production/_ext/172253694/crypt_ecc_pukcl.o
 .data          0x00000000        0x0 build/Sercom/production/_ext/172253694/crypt_ecc_pukcl.o
 .bss           0x00000000        0x0 build/Sercom/production/_ext/172253694/crypt_ecc_pukcl.o
 .debug_info    0x00000000      0x324 build/Sercom/production/_ext/172253694/crypt_ecc_pukcl.o
 .debug_abbrev  0x00000000       0x1b build/Sercom/production/_ext/172253694/crypt_ecc_pukcl.o
 .debug_aranges
                0x00000000       0x18 build/Sercom/production/_ext/172253694/crypt_ecc_pukcl.o
 .debug_line    0x00000000       0x1d build/Sercom/production/_ext/172253694/crypt_ecc_pukcl.o
 .debug_str     0x00000000        0x0 build/Sercom/production/_ext/172253694/crypt_ecc_pukcl.o
 .comment       0x00000000       0x2c build/Sercom/production/_ext/172253694/crypt_ecc_pukcl.o
 .ARM.attributes
                0x00000000       0x32 build/Sercom/production/_ext/172253694/crypt_ecc_pukcl.o
 .text          0x00000000        0x0 build/Sercom/production/_ext/172253694/crypt_aes_sam6149.o
 .data          0x00000000        0x0 build/Sercom/production/_ext/172253694/crypt_aes_sam6149.o
 .bss           0x00000000        0x0 build/Sercom/production/_ext/172253694/crypt_aes_sam6149.o
 .debug_info    0x00000000      0x326 build/Sercom/production/_ext/172253694/crypt_aes_sam6149.o
 .debug_abbrev  0x00000000       0x1b build/Sercom/production/_ext/172253694/crypt_aes_sam6149.o
 .debug_aranges
                0x00000000       0x18 build/Sercom/production/_ext/172253694/crypt_aes_sam6149.o
 .debug_line    0x00000000       0x1d build/Sercom/production/_ext/172253694/crypt_aes_sam6149.o
 .debug_str     0x00000000        0x0 build/Sercom/production/_ext/172253694/crypt_aes_sam6149.o
 .comment       0x00000000       0x2c build/Sercom/production/_ext/172253694/crypt_aes_sam6149.o
 .ARM.attributes
                0x00000000       0x32 build/Sercom/production/_ext/172253694/crypt_aes_sam6149.o
 .text          0x00000000        0x0 build/Sercom/production/_ext/172253694/crypt_wolfcryptcb.o
 .data          0x00000000        0x0 build/Sercom/production/_ext/172253694/crypt_wolfcryptcb.o
 .bss           0x00000000        0x0 build/Sercom/production/_ext/172253694/crypt_wolfcryptcb.o
 .text          0x00000000        0x0 build/Sercom/production/_ext/172253694/crypt_pukcl_functions.o
 .data          0x00000000        0x0 build/Sercom/production/_ext/172253694/crypt_pukcl_functions.o
 .bss           0x00000000        0x0 build/Sercom/production/_ext/172253694/crypt_pukcl_functions.o
 .text.crypt_pukcl_SelfTest
                0x00000000       0xbc build/Sercom/production/_ext/172253694/crypt_pukcl_functions.o
 .text.SecureCopy
                0x00000000       0x4c build/Sercom/production/_ext/172253694/crypt_pukcl_functions.o
 .bss.PUKCLParam
                0x00000000       0x30 build/Sercom/production/_ext/172253694/crypt_pukcl_functions.o
 .bss.SelfTestState
                0x00000000        0x1 build/Sercom/production/_ext/172253694/crypt_pukcl_functions.o
 .bss.pvPUKCLParam
                0x00000000        0x4 build/Sercom/production/_ext/172253694/crypt_pukcl_functions.o
 .debug_info    0x00000000     0x296b build/Sercom/production/_ext/172253694/crypt_pukcl_functions.o
 .debug_abbrev  0x00000000      0x18c build/Sercom/production/_ext/172253694/crypt_pukcl_functions.o
 .debug_loc     0x00000000      0x294 build/Sercom/production/_ext/172253694/crypt_pukcl_functions.o
 .debug_aranges
                0x00000000       0x28 build/Sercom/production/_ext/172253694/crypt_pukcl_functions.o
 .debug_ranges  0x00000000       0x18 build/Sercom/production/_ext/172253694/crypt_pukcl_functions.o
 .debug_line    0x00000000      0x561 build/Sercom/production/_ext/172253694/crypt_pukcl_functions.o
 .debug_str     0x00000000      0x1fe build/Sercom/production/_ext/172253694/crypt_pukcl_functions.o
 .comment       0x00000000       0x2c build/Sercom/production/_ext/172253694/crypt_pukcl_functions.o
 .debug_frame   0x00000000       0x4c build/Sercom/production/_ext/172253694/crypt_pukcl_functions.o
 .ARM.attributes
                0x00000000       0x30 build/Sercom/production/_ext/172253694/crypt_pukcl_functions.o
 .text          0x00000000        0x0 build/Sercom/production/_ext/172253694/crypt_aes_u2238.o
 .data          0x00000000        0x0 build/Sercom/production/_ext/172253694/crypt_aes_u2238.o
 .bss           0x00000000        0x0 build/Sercom/production/_ext/172253694/crypt_aes_u2238.o
 .debug_info    0x00000000      0x324 build/Sercom/production/_ext/172253694/crypt_aes_u2238.o
 .debug_abbrev  0x00000000       0x1b build/Sercom/production/_ext/172253694/crypt_aes_u2238.o
 .debug_aranges
                0x00000000       0x18 build/Sercom/production/_ext/172253694/crypt_aes_u2238.o
 .debug_line    0x00000000       0x1d build/Sercom/production/_ext/172253694/crypt_aes_u2238.o
 .debug_str     0x00000000        0x0 build/Sercom/production/_ext/172253694/crypt_aes_u2238.o
 .comment       0x00000000       0x2c build/Sercom/production/_ext/172253694/crypt_aes_u2238.o
 .ARM.attributes
                0x00000000       0x32 build/Sercom/production/_ext/172253694/crypt_aes_u2238.o
 .text          0x00000000        0x0 build/Sercom/production/_ext/172253694/crypt_tdes_sam6150.o
 .data          0x00000000        0x0 build/Sercom/production/_ext/172253694/crypt_tdes_sam6150.o
 .bss           0x00000000        0x0 build/Sercom/production/_ext/172253694/crypt_tdes_sam6150.o
 .debug_info    0x00000000      0x318 build/Sercom/production/_ext/172253694/crypt_tdes_sam6150.o
 .debug_abbrev  0x00000000       0x1b build/Sercom/production/_ext/172253694/crypt_tdes_sam6150.o
 .debug_aranges
                0x00000000       0x18 build/Sercom/production/_ext/172253694/crypt_tdes_sam6150.o
 .debug_line    0x00000000       0x1d build/Sercom/production/_ext/172253694/crypt_tdes_sam6150.o
 .debug_str     0x00000000        0x0 build/Sercom/production/_ext/172253694/crypt_tdes_sam6150.o
 .comment       0x00000000       0x2c build/Sercom/production/_ext/172253694/crypt_tdes_sam6150.o
 .ARM.attributes
                0x00000000       0x32 build/Sercom/production/_ext/172253694/crypt_tdes_sam6150.o
 .text          0x00000000        0x0 build/Sercom/production/_ext/172253694/crypt_sha224_sam6156.o
 .data          0x00000000        0x0 build/Sercom/production/_ext/172253694/crypt_sha224_sam6156.o
 .bss           0x00000000        0x0 build/Sercom/production/_ext/172253694/crypt_sha224_sam6156.o
 .debug_info    0x00000000      0x329 build/Sercom/production/_ext/172253694/crypt_sha224_sam6156.o
 .debug_abbrev  0x00000000       0x1b build/Sercom/production/_ext/172253694/crypt_sha224_sam6156.o
 .debug_aranges
                0x00000000       0x18 build/Sercom/production/_ext/172253694/crypt_sha224_sam6156.o
 .debug_line    0x00000000       0x1d build/Sercom/production/_ext/172253694/crypt_sha224_sam6156.o
 .debug_str     0x00000000        0x0 build/Sercom/production/_ext/172253694/crypt_sha224_sam6156.o
 .comment       0x00000000       0x2c build/Sercom/production/_ext/172253694/crypt_sha224_sam6156.o
 .ARM.attributes
                0x00000000       0x32 build/Sercom/production/_ext/172253694/crypt_sha224_sam6156.o
 .text          0x00000000        0x0 build/Sercom/production/_ext/172253694/crypt_ecc_ba414e.o
 .data          0x00000000        0x0 build/Sercom/production/_ext/172253694/crypt_ecc_ba414e.o
 .bss           0x00000000        0x0 build/Sercom/production/_ext/172253694/crypt_ecc_ba414e.o
 .debug_info    0x00000000      0x316 build/Sercom/production/_ext/172253694/crypt_ecc_ba414e.o
 .debug_abbrev  0x00000000       0x1b build/Sercom/production/_ext/172253694/crypt_ecc_ba414e.o
 .debug_aranges
                0x00000000       0x18 build/Sercom/production/_ext/172253694/crypt_ecc_ba414e.o
 .debug_line    0x00000000       0x1d build/Sercom/production/_ext/172253694/crypt_ecc_ba414e.o
 .debug_str     0x00000000        0x0 build/Sercom/production/_ext/172253694/crypt_ecc_ba414e.o
 .comment       0x00000000       0x2c build/Sercom/production/_ext/172253694/crypt_ecc_ba414e.o
 .ARM.attributes
                0x00000000       0x32 build/Sercom/production/_ext/172253694/crypt_ecc_ba414e.o
 .text          0x00000000        0x0 build/Sercom/production/_ext/172253694/crypt_sam_u2803.o
 .data          0x00000000        0x0 build/Sercom/production/_ext/172253694/crypt_sam_u2803.o
 .bss           0x00000000        0x0 build/Sercom/production/_ext/172253694/crypt_sam_u2803.o
 .debug_info    0x00000000      0x315 build/Sercom/production/_ext/172253694/crypt_sam_u2803.o
 .debug_abbrev  0x00000000       0x1b build/Sercom/production/_ext/172253694/crypt_sam_u2803.o
 .debug_aranges
                0x00000000       0x18 build/Sercom/production/_ext/172253694/crypt_sam_u2803.o
 .debug_line    0x00000000       0x1d build/Sercom/production/_ext/172253694/crypt_sam_u2803.o
 .debug_str     0x00000000        0x0 build/Sercom/production/_ext/172253694/crypt_sam_u2803.o
 .comment       0x00000000       0x2c build/Sercom/production/_ext/172253694/crypt_sam_u2803.o
 .ARM.attributes
                0x00000000       0x32 build/Sercom/production/_ext/172253694/crypt_sam_u2803.o
 .text          0x00000000        0x0 build/Sercom/production/_ext/172253694/crypt_rsa_pukcl.o
 .data          0x00000000        0x0 build/Sercom/production/_ext/172253694/crypt_rsa_pukcl.o
 .bss           0x00000000        0x0 build/Sercom/production/_ext/172253694/crypt_rsa_pukcl.o
 .debug_info    0x00000000      0x324 build/Sercom/production/_ext/172253694/crypt_rsa_pukcl.o
 .debug_abbrev  0x00000000       0x1b build/Sercom/production/_ext/172253694/crypt_rsa_pukcl.o
 .debug_aranges
                0x00000000       0x18 build/Sercom/production/_ext/172253694/crypt_rsa_pukcl.o
 .debug_line    0x00000000       0x1d build/Sercom/production/_ext/172253694/crypt_rsa_pukcl.o
 .debug_str     0x00000000        0x0 build/Sercom/production/_ext/172253694/crypt_rsa_pukcl.o
 .comment       0x00000000       0x2c build/Sercom/production/_ext/172253694/crypt_rsa_pukcl.o
 .ARM.attributes
                0x00000000       0x32 build/Sercom/production/_ext/172253694/crypt_rsa_pukcl.o
 .text          0x00000000        0x0 build/Sercom/production/_ext/1664057780/sp_cortexm.o
 .data          0x00000000        0x0 build/Sercom/production/_ext/1664057780/sp_cortexm.o
 .bss           0x00000000        0x0 build/Sercom/production/_ext/1664057780/sp_cortexm.o
 .debug_info    0x00000000      0x314 build/Sercom/production/_ext/1664057780/sp_cortexm.o
 .debug_abbrev  0x00000000       0x1b build/Sercom/production/_ext/1664057780/sp_cortexm.o
 .debug_aranges
                0x00000000       0x18 build/Sercom/production/_ext/1664057780/sp_cortexm.o
 .debug_line    0x00000000       0x1d build/Sercom/production/_ext/1664057780/sp_cortexm.o
 .debug_str     0x00000000        0x0 build/Sercom/production/_ext/1664057780/sp_cortexm.o
 .comment       0x00000000       0x2c build/Sercom/production/_ext/1664057780/sp_cortexm.o
 .ARM.attributes
                0x00000000       0x32 build/Sercom/production/_ext/1664057780/sp_cortexm.o
 .text          0x00000000        0x0 build/Sercom/production/_ext/1664057780/fe_operations.o
 .data          0x00000000        0x0 build/Sercom/production/_ext/1664057780/fe_operations.o
 .bss           0x00000000        0x0 build/Sercom/production/_ext/1664057780/fe_operations.o
 .debug_info    0x00000000      0x317 build/Sercom/production/_ext/1664057780/fe_operations.o
 .debug_abbrev  0x00000000       0x1b build/Sercom/production/_ext/1664057780/fe_operations.o
 .debug_aranges
                0x00000000       0x18 build/Sercom/production/_ext/1664057780/fe_operations.o
 .debug_line    0x00000000       0x1d build/Sercom/production/_ext/1664057780/fe_operations.o
 .debug_str     0x00000000        0x0 build/Sercom/production/_ext/1664057780/fe_operations.o
 .comment       0x00000000       0x2c build/Sercom/production/_ext/1664057780/fe_operations.o
 .ARM.attributes
                0x00000000       0x32 build/Sercom/production/_ext/1664057780/fe_operations.o
 .text          0x00000000        0x0 build/Sercom/production/_ext/1664057780/sp_c64.o
 .data          0x00000000        0x0 build/Sercom/production/_ext/1664057780/sp_c64.o
 .bss           0x00000000        0x0 build/Sercom/production/_ext/1664057780/sp_c64.o
 .debug_info    0x00000000      0x310 build/Sercom/production/_ext/1664057780/sp_c64.o
 .debug_abbrev  0x00000000       0x1b build/Sercom/production/_ext/1664057780/sp_c64.o
 .debug_aranges
                0x00000000       0x18 build/Sercom/production/_ext/1664057780/sp_c64.o
 .debug_line    0x00000000       0x1d build/Sercom/production/_ext/1664057780/sp_c64.o
 .debug_str     0x00000000        0x0 build/Sercom/production/_ext/1664057780/sp_c64.o
 .comment       0x00000000       0x2c build/Sercom/production/_ext/1664057780/sp_c64.o
 .ARM.attributes
                0x00000000       0x32 build/Sercom/production/_ext/1664057780/sp_c64.o
 .text          0x00000000        0x0 build/Sercom/production/_ext/1664057780/ecc.o
 .data          0x00000000        0x0 build/Sercom/production/_ext/1664057780/ecc.o
 .bss           0x00000000        0x0 build/Sercom/production/_ext/1664057780/ecc.o
 .text._ecc_projective_dbl_point
                0x00000000      0x278 build/Sercom/production/_ext/1664057780/ecc.o
 .text._ecc_projective_add_point
                0x00000000      0x508 build/Sercom/production/_ext/1664057780/ecc.o
 .text.wc_ecc_new_point_ex
                0x00000000       0x5e build/Sercom/production/_ext/1664057780/ecc.o
 .text.wc_ecc_del_point_ex
                0x00000000       0x26 build/Sercom/production/_ext/1664057780/ecc.o
 .text.ecc_point_to_mont
                0x00000000       0xb0 build/Sercom/production/_ext/1664057780/ecc.o
 .text.wc_ecc_cmp_param
                0x00000000       0x88 build/Sercom/production/_ext/1664057780/ecc.o
 .text.wc_ecc_curve_cache_load_item
                0x00000000       0x4a build/Sercom/production/_ext/1664057780/ecc.o
 .text.wc_ecc_curve_free
                0x00000000       0x92 build/Sercom/production/_ext/1664057780/ecc.o
 .text.wc_ecc_curve_load
                0x00000000       0xb6 build/Sercom/production/_ext/1664057780/ecc.o
 .text.wc_ecc_get_curve_order_bit_count
                0x00000000       0x4c build/Sercom/production/_ext/1664057780/ecc.o
 .text.wc_ecc_set_curve
                0x00000000       0x80 build/Sercom/production/_ext/1664057780/ecc.o
 .text.wc_ecc_import_raw_private
                0x00000000      0x19a build/Sercom/production/_ext/1664057780/ecc.o
 .text.ecc_projective_add_point
                0x00000000       0xc6 build/Sercom/production/_ext/1664057780/ecc.o
 .text.ecc_projective_dbl_point
                0x00000000       0x74 build/Sercom/production/_ext/1664057780/ecc.o
 .text.ecc_map_ex
                0x00000000      0x148 build/Sercom/production/_ext/1664057780/ecc.o
 .text.ecc_map  0x00000000        0xa build/Sercom/production/_ext/1664057780/ecc.o
 .text.wc_ecc_new_point_h
                0x00000000       0x16 build/Sercom/production/_ext/1664057780/ecc.o
 .text.wc_ecc_new_point
                0x00000000       0x16 build/Sercom/production/_ext/1664057780/ecc.o
 .text.wc_ecc_del_point_h
                0x00000000        0x8 build/Sercom/production/_ext/1664057780/ecc.o
 .text.wc_ecc_del_point
                0x00000000        0xa build/Sercom/production/_ext/1664057780/ecc.o
 .text.wc_ecc_forcezero_point
                0x00000000       0x20 build/Sercom/production/_ext/1664057780/ecc.o
 .text.wc_ecc_copy_point
                0x00000000       0x3c build/Sercom/production/_ext/1664057780/ecc.o
 .text.wc_ecc_cmp_point
                0x00000000       0x3c build/Sercom/production/_ext/1664057780/ecc.o
 .text.wc_ecc_is_valid_idx
                0x00000000       0x1c build/Sercom/production/_ext/1664057780/ecc.o
 .text.wc_ecc_get_curve_idx
                0x00000000       0x2a build/Sercom/production/_ext/1664057780/ecc.o
 .text.wc_ecc_get_name
                0x00000000       0x22 build/Sercom/production/_ext/1664057780/ecc.o
 .text.wc_ecc_get_curve_id
                0x00000000       0x24 build/Sercom/production/_ext/1664057780/ecc.o
 .text.wc_ecc_get_curve_size_from_id
                0x00000000       0x20 build/Sercom/production/_ext/1664057780/ecc.o
 .text.wc_ecc_get_curve_idx_from_name
                0x00000000       0x48 build/Sercom/production/_ext/1664057780/ecc.o
 .text.wc_ecc_get_curve_size_from_name
                0x00000000       0x22 build/Sercom/production/_ext/1664057780/ecc.o
 .text.wc_ecc_get_curve_id_from_name
                0x00000000       0x26 build/Sercom/production/_ext/1664057780/ecc.o
 .text.wc_ecc_get_curve_id_from_params
                0x00000000      0x10c build/Sercom/production/_ext/1664057780/ecc.o
 .text.wc_ecc_get_curve_id_from_dp_params
                0x00000000      0x158 build/Sercom/production/_ext/1664057780/ecc.o
 .text.wc_ecc_get_curve_id_from_oid
                0x00000000       0x64 build/Sercom/production/_ext/1664057780/ecc.o
 .text.wc_ecc_get_curve_params
                0x00000000       0x1a build/Sercom/production/_ext/1664057780/ecc.o
 .text.wc_ecc_point_is_at_infinity
                0x00000000       0x24 build/Sercom/production/_ext/1664057780/ecc.o
 .text.wc_ecc_gen_k
                0x00000000       0x94 build/Sercom/production/_ext/1664057780/ecc.o
 .text.wc_ecc_init_ex
                0x00000000       0x50 build/Sercom/production/_ext/1664057780/ecc.o
 .text.wc_ecc_key_new
                0x00000000       0x2a build/Sercom/production/_ext/1664057780/ecc.o
 .text.wc_ecc_init
                0x00000000        0xe build/Sercom/production/_ext/1664057780/ecc.o
 .text.wc_ecc_init_id
                0x00000000       0x46 build/Sercom/production/_ext/1664057780/ecc.o
 .text.wc_ecc_init_label
                0x00000000       0x5e build/Sercom/production/_ext/1664057780/ecc.o
 .text.wc_ecc_set_flags
                0x00000000       0x12 build/Sercom/production/_ext/1664057780/ecc.o
 .text.wc_ecc_free
                0x00000000       0x2e build/Sercom/production/_ext/1664057780/ecc.o
 .text.wc_ecc_key_free
                0x00000000       0x24 build/Sercom/production/_ext/1664057780/ecc.o
 .text.ecc_projective_add_point_safe
                0x00000000      0x17a build/Sercom/production/_ext/1664057780/ecc.o
 .text.ecc_projective_dbl_point_safe
                0x00000000       0x3c build/Sercom/production/_ext/1664057780/ecc.o
 .text.ecc_mulmod
                0x00000000      0x280 build/Sercom/production/_ext/1664057780/ecc.o
 .text.wc_ecc_mulmod_ex
                0x00000000      0x100 build/Sercom/production/_ext/1664057780/ecc.o
 .text.wc_ecc_mulmod
                0x00000000       0x18 build/Sercom/production/_ext/1664057780/ecc.o
 .text.wc_ecc_mulmod_ex2
                0x00000000      0x11c build/Sercom/production/_ext/1664057780/ecc.o
 .text.wc_ecc_shared_secret_gen_sync
                0x00000000      0x11c build/Sercom/production/_ext/1664057780/ecc.o
 .text.wc_ecc_shared_secret_gen
                0x00000000       0x28 build/Sercom/production/_ext/1664057780/ecc.o
 .text.wc_ecc_shared_secret_ex
                0x00000000       0xa6 build/Sercom/production/_ext/1664057780/ecc.o
 .text.wc_ecc_shared_secret
                0x00000000       0xc0 build/Sercom/production/_ext/1664057780/ecc.o
 .text.ecc_make_pub_ex
                0x00000000      0x1b8 build/Sercom/production/_ext/1664057780/ecc.o
 .text.wc_ecc_make_pub
                0x00000000        0xe build/Sercom/production/_ext/1664057780/ecc.o
 .text.wc_ecc_make_pub_ex
                0x00000000        0xe build/Sercom/production/_ext/1664057780/ecc.o
 .text._ecc_make_key_ex
                0x00000000       0xe4 build/Sercom/production/_ext/1664057780/ecc.o
 .text.wc_ecc_make_key_ex2
                0x00000000       0x10 build/Sercom/production/_ext/1664057780/ecc.o
 .text.wc_ecc_sign_hash_ex
                0x00000000      0x39c build/Sercom/production/_ext/1664057780/ecc.o
 .text.wc_ecc_sign_hash
                0x00000000      0x100 build/Sercom/production/_ext/1664057780/ecc.o
 .text.wc_ecc_make_key_ex
                0x00000000       0x10 build/Sercom/production/_ext/1664057780/ecc.o
 .text.wc_ecc_make_key
                0x00000000        0xa build/Sercom/production/_ext/1664057780/ecc.o
 .text.wc_ecc_verify_hash_ex
                0x00000000      0x620 build/Sercom/production/_ext/1664057780/ecc.o
 .text.wc_ecc_verify_hash
                0x00000000      0x104 build/Sercom/production/_ext/1664057780/ecc.o
 .text.wc_ecc_import_point_der_ex
                0x00000000       0xf6 build/Sercom/production/_ext/1664057780/ecc.o
 .text.wc_ecc_import_point_der
                0x00000000       0x10 build/Sercom/production/_ext/1664057780/ecc.o
 .text.wc_ecc_export_point_der
                0x00000000      0x11e build/Sercom/production/_ext/1664057780/ecc.o
 .text.wc_ecc_export_point_der_ex
                0x00000000       0x12 build/Sercom/production/_ext/1664057780/ecc.o
 .text.wc_ecc_export_x963
                0x00000000      0x146 build/Sercom/production/_ext/1664057780/ecc.o
 .text.wc_ecc_export_x963_ex
                0x00000000       0x10 build/Sercom/production/_ext/1664057780/ecc.o
 .text.wc_ecc_is_point
                0x00000000      0x11c build/Sercom/production/_ext/1664057780/ecc.o
 .text._ecc_validate_public_key
                0x00000000      0x200 build/Sercom/production/_ext/1664057780/ecc.o
 .text.wc_ecc_check_key
                0x00000000        0xc build/Sercom/production/_ext/1664057780/ecc.o
 .text.wc_ecc_import_x963_ex
                0x00000000       0xe8 build/Sercom/production/_ext/1664057780/ecc.o
 .text.wc_ecc_import_x963
                0x00000000        0xa build/Sercom/production/_ext/1664057780/ecc.o
 .text.wc_ecc_export_ex
                0x00000000       0xc8 build/Sercom/production/_ext/1664057780/ecc.o
 .text.wc_ecc_export_private_only
                0x00000000       0x2c build/Sercom/production/_ext/1664057780/ecc.o
 .text.wc_ecc_export_public_raw
                0x00000000       0x3c build/Sercom/production/_ext/1664057780/ecc.o
 .text.wc_ecc_export_private_raw
                0x00000000       0x1c build/Sercom/production/_ext/1664057780/ecc.o
 .text.wc_ecc_import_private_key_ex
                0x00000000       0x72 build/Sercom/production/_ext/1664057780/ecc.o
 .text.wc_ecc_import_private_key
                0x00000000       0x14 build/Sercom/production/_ext/1664057780/ecc.o
 .text.wc_ecc_rs_to_sig
                0x00000000       0xcc build/Sercom/production/_ext/1664057780/ecc.o
 .text.wc_ecc_rs_raw_to_sig
                0x00000000       0x3c build/Sercom/production/_ext/1664057780/ecc.o
 .text.wc_ecc_sig_to_rs
                0x00000000       0x3e build/Sercom/production/_ext/1664057780/ecc.o
 .text.wc_ecc_import_raw_ex
                0x00000000       0x14 build/Sercom/production/_ext/1664057780/ecc.o
 .text.wc_ecc_import_unsigned
                0x00000000       0x14 build/Sercom/production/_ext/1664057780/ecc.o
 .text.wc_ecc_import_raw
                0x00000000       0x98 build/Sercom/production/_ext/1664057780/ecc.o
 .text.wc_ecc_size
                0x00000000       0x12 build/Sercom/production/_ext/1664057780/ecc.o
 .text.wc_ecc_sig_size_calc
                0x00000000       0x10 build/Sercom/production/_ext/1664057780/ecc.o
 .text.wc_ecc_sig_size
                0x00000000       0x44 build/Sercom/production/_ext/1664057780/ecc.o
 .text.wc_ecc_get_oid
                0x00000000       0x72 build/Sercom/production/_ext/1664057780/ecc.o
 .rodata        0x00000000      0xa2c build/Sercom/production/_ext/1664057780/ecc.o
 .rodata.ecc_oid_prime239v1
                0x00000000        0x8 build/Sercom/production/_ext/1664057780/ecc.o
 .rodata.ecc_oid_secp224r1
                0x00000000        0x8 build/Sercom/production/_ext/1664057780/ecc.o
 .rodata.ecc_oid_secp256r1
                0x00000000        0x8 build/Sercom/production/_ext/1664057780/ecc.o
 .rodata.ecc_oid_secp384r1
                0x00000000        0x8 build/Sercom/production/_ext/1664057780/ecc.o
 .rodata.ecc_oid_secp521r1
                0x00000000        0x8 build/Sercom/production/_ext/1664057780/ecc.o
 .rodata.ecc_sets
                0x00000000      0x138 build/Sercom/production/_ext/1664057780/ecc.o
 .rodata.ecc_sets_count
                0x00000000        0x4 build/Sercom/production/_ext/1664057780/ecc.o
 .debug_info    0x00000000     0xb00f build/Sercom/production/_ext/1664057780/ecc.o
 .debug_abbrev  0x00000000      0x4d6 build/Sercom/production/_ext/1664057780/ecc.o
 .debug_loc     0x00000000     0x99c1 build/Sercom/production/_ext/1664057780/ecc.o
 .debug_aranges
                0x00000000      0x300 build/Sercom/production/_ext/1664057780/ecc.o
 .debug_ranges  0x00000000      0x448 build/Sercom/production/_ext/1664057780/ecc.o
 .debug_line    0x00000000     0x3c56 build/Sercom/production/_ext/1664057780/ecc.o
 .debug_str     0x00000000      0x31e build/Sercom/production/_ext/1664057780/ecc.o
 .comment       0x00000000       0x2c build/Sercom/production/_ext/1664057780/ecc.o
 .debug_frame   0x00000000      0xae0 build/Sercom/production/_ext/1664057780/ecc.o
 .ARM.attributes
                0x00000000       0x30 build/Sercom/production/_ext/1664057780/ecc.o
 .text          0x00000000        0x0 build/Sercom/production/_ext/1664057780/sp_dsp32.o
 .data          0x00000000        0x0 build/Sercom/production/_ext/1664057780/sp_dsp32.o
 .bss           0x00000000        0x0 build/Sercom/production/_ext/1664057780/sp_dsp32.o
 .debug_info    0x00000000      0x312 build/Sercom/production/_ext/1664057780/sp_dsp32.o
 .debug_abbrev  0x00000000       0x1b build/Sercom/production/_ext/1664057780/sp_dsp32.o
 .debug_aranges
                0x00000000       0x18 build/Sercom/production/_ext/1664057780/sp_dsp32.o
 .debug_line    0x00000000       0x1d build/Sercom/production/_ext/1664057780/sp_dsp32.o
 .debug_str     0x00000000        0x0 build/Sercom/production/_ext/1664057780/sp_dsp32.o
 .comment       0x00000000       0x2c build/Sercom/production/_ext/1664057780/sp_dsp32.o
 .ARM.attributes
                0x00000000       0x32 build/Sercom/production/_ext/1664057780/sp_dsp32.o
 .text          0x00000000        0x0 build/Sercom/production/_ext/1664057780/cmac.o
 .data          0x00000000        0x0 build/Sercom/production/_ext/1664057780/cmac.o
 .bss           0x00000000        0x0 build/Sercom/production/_ext/1664057780/cmac.o
 .debug_info    0x00000000      0x30e build/Sercom/production/_ext/1664057780/cmac.o
 .debug_abbrev  0x00000000       0x1b build/Sercom/production/_ext/1664057780/cmac.o
 .debug_aranges
                0x00000000       0x18 build/Sercom/production/_ext/1664057780/cmac.o
 .debug_line    0x00000000       0x1d build/Sercom/production/_ext/1664057780/cmac.o
 .debug_str     0x00000000        0x0 build/Sercom/production/_ext/1664057780/cmac.o
 .comment       0x00000000       0x2c build/Sercom/production/_ext/1664057780/cmac.o
 .ARM.attributes
                0x00000000       0x32 build/Sercom/production/_ext/1664057780/cmac.o
 .text          0x00000000        0x0 build/Sercom/production/_ext/1664057780/wc_encrypt.o
 .data          0x00000000        0x0 build/Sercom/production/_ext/1664057780/wc_encrypt.o
 .bss           0x00000000        0x0 build/Sercom/production/_ext/1664057780/wc_encrypt.o
 .text.wc_AesCbcDecryptWithKey
                0x00000000       0x70 build/Sercom/production/_ext/1664057780/wc_encrypt.o
 .text.wc_AesCbcEncryptWithKey
                0x00000000       0x4e build/Sercom/production/_ext/1664057780/wc_encrypt.o
 .text.wc_Des_CbcEncryptWithKey
                0x00000000       0x2a build/Sercom/production/_ext/1664057780/wc_encrypt.o
 .text.wc_Des_CbcDecryptWithKey
                0x00000000       0x2a build/Sercom/production/_ext/1664057780/wc_encrypt.o
 .text.wc_Des3_CbcEncryptWithKey
                0x00000000       0x4a build/Sercom/production/_ext/1664057780/wc_encrypt.o
 .text.wc_Des3_CbcDecryptWithKey
                0x00000000       0x4a build/Sercom/production/_ext/1664057780/wc_encrypt.o
 .debug_info    0x00000000     0x1bdc build/Sercom/production/_ext/1664057780/wc_encrypt.o
 .debug_abbrev  0x00000000      0x185 build/Sercom/production/_ext/1664057780/wc_encrypt.o
 .debug_loc     0x00000000      0x93e build/Sercom/production/_ext/1664057780/wc_encrypt.o
 .debug_aranges
                0x00000000       0x48 build/Sercom/production/_ext/1664057780/wc_encrypt.o
 .debug_ranges  0x00000000       0x38 build/Sercom/production/_ext/1664057780/wc_encrypt.o
 .debug_line    0x00000000      0x2c6 build/Sercom/production/_ext/1664057780/wc_encrypt.o
 .debug_str     0x00000000       0xc4 build/Sercom/production/_ext/1664057780/wc_encrypt.o
 .comment       0x00000000       0x2c build/Sercom/production/_ext/1664057780/wc_encrypt.o
 .debug_frame   0x00000000       0xe0 build/Sercom/production/_ext/1664057780/wc_encrypt.o
 .ARM.attributes
                0x00000000       0x30 build/Sercom/production/_ext/1664057780/wc_encrypt.o
 .text          0x00000000        0x0 build/Sercom/production/_ext/1664057780/wc_pkcs11.o
 .data          0x00000000        0x0 build/Sercom/production/_ext/1664057780/wc_pkcs11.o
 .bss           0x00000000        0x0 build/Sercom/production/_ext/1664057780/wc_pkcs11.o
 .debug_info    0x00000000      0x313 build/Sercom/production/_ext/1664057780/wc_pkcs11.o
 .debug_abbrev  0x00000000       0x1b build/Sercom/production/_ext/1664057780/wc_pkcs11.o
 .debug_aranges
                0x00000000       0x18 build/Sercom/production/_ext/1664057780/wc_pkcs11.o
 .debug_line    0x00000000       0x1d build/Sercom/production/_ext/1664057780/wc_pkcs11.o
 .debug_str     0x00000000        0x0 build/Sercom/production/_ext/1664057780/wc_pkcs11.o
 .comment       0x00000000       0x2c build/Sercom/production/_ext/1664057780/wc_pkcs11.o
 .ARM.attributes
                0x00000000       0x32 build/Sercom/production/_ext/1664057780/wc_pkcs11.o
 .text          0x00000000        0x0 build/Sercom/production/_ext/1664057780/random.o
 .data          0x00000000        0x0 build/Sercom/production/_ext/1664057780/random.o
 .bss           0x00000000        0x0 build/Sercom/production/_ext/1664057780/random.o
 .text.Hash_DRBG_Uninstantiate
                0x00000000       0x28 build/Sercom/production/_ext/1664057780/random.o
 .text.Hash_df  0x00000000      0x144 build/Sercom/production/_ext/1664057780/random.o
 .text.Hash_DRBG_Reseed
                0x00000000       0x84 build/Sercom/production/_ext/1664057780/random.o
 .text.Hash_DRBG_Instantiate
                0x00000000       0x76 build/Sercom/production/_ext/1664057780/random.o
 .text.Hash_DRBG_Generate
                0x00000000      0x2ba build/Sercom/production/_ext/1664057780/random.o
 .text.wc_RNG_DRBG_Reseed
                0x00000000       0x1a build/Sercom/production/_ext/1664057780/random.o
 .text.wc_RNG_TestSeed
                0x00000000       0x6a build/Sercom/production/_ext/1664057780/random.o
 .text.wc_FreeRng
                0x00000000       0x32 build/Sercom/production/_ext/1664057780/random.o
 .text.wc_rng_free
                0x00000000       0x22 build/Sercom/production/_ext/1664057780/random.o
 .text.wc_RNG_HealthTest_ex
                0x00000000       0xa0 build/Sercom/production/_ext/1664057780/random.o
 .text.wc_RNG_HealthTest
                0x00000000       0x2c build/Sercom/production/_ext/1664057780/random.o
 .text.wc_GenerateSeed
                0x00000000       0x78 build/Sercom/production/_ext/1664057780/random.o
 .text._InitRng
                0x00000000      0x18c build/Sercom/production/_ext/1664057780/random.o
 .text.wc_rng_new
                0x00000000       0x36 build/Sercom/production/_ext/1664057780/random.o
 .text.wc_InitRng
                0x00000000       0x18 build/Sercom/production/_ext/1664057780/random.o
 .text.wc_InitRng_ex
                0x00000000       0x14 build/Sercom/production/_ext/1664057780/random.o
 .text.wc_InitRngNonce
                0x00000000       0x14 build/Sercom/production/_ext/1664057780/random.o
 .text.wc_InitRngNonce_ex
                0x00000000       0x10 build/Sercom/production/_ext/1664057780/random.o
 .text.wc_RNG_GenerateBlock
                0x00000000      0x110 build/Sercom/production/_ext/1664057780/random.o
 .text.wc_RNG_GenerateByte
                0x00000000        0xa build/Sercom/production/_ext/1664057780/random.o
 .rodata.outputA_data
                0x00000000       0x80 build/Sercom/production/_ext/1664057780/random.o
 .rodata.outputB_data
                0x00000000       0x80 build/Sercom/production/_ext/1664057780/random.o
 .rodata.reseedSeedA_data
                0x00000000       0x20 build/Sercom/production/_ext/1664057780/random.o
 .rodata.seedA_data
                0x00000000       0x30 build/Sercom/production/_ext/1664057780/random.o
 .rodata.seedB_data
                0x00000000       0x30 build/Sercom/production/_ext/1664057780/random.o
 .debug_info    0x00000000     0x3db8 build/Sercom/production/_ext/1664057780/random.o
 .debug_abbrev  0x00000000      0x425 build/Sercom/production/_ext/1664057780/random.o
 .debug_loc     0x00000000     0x2bce build/Sercom/production/_ext/1664057780/random.o
 .debug_aranges
                0x00000000       0xb8 build/Sercom/production/_ext/1664057780/random.o
 .debug_ranges  0x00000000      0x170 build/Sercom/production/_ext/1664057780/random.o
 .debug_line    0x00000000     0x1057 build/Sercom/production/_ext/1664057780/random.o
 .debug_str     0x00000000       0xdf build/Sercom/production/_ext/1664057780/random.o
 .comment       0x00000000       0x2c build/Sercom/production/_ext/1664057780/random.o
 .debug_frame   0x00000000      0x278 build/Sercom/production/_ext/1664057780/random.o
 .ARM.attributes
                0x00000000       0x30 build/Sercom/production/_ext/1664057780/random.o
 .text          0x00000000        0x0 build/Sercom/production/_ext/1664057780/camellia.o
 .data          0x00000000        0x0 build/Sercom/production/_ext/1664057780/camellia.o
 .bss           0x00000000        0x0 build/Sercom/production/_ext/1664057780/camellia.o
 .debug_info    0x00000000      0x312 build/Sercom/production/_ext/1664057780/camellia.o
 .debug_abbrev  0x00000000       0x1b build/Sercom/production/_ext/1664057780/camellia.o
 .debug_aranges
                0x00000000       0x18 build/Sercom/production/_ext/1664057780/camellia.o
 .debug_line    0x00000000       0x1d build/Sercom/production/_ext/1664057780/camellia.o
 .debug_str     0x00000000        0x0 build/Sercom/production/_ext/1664057780/camellia.o
 .comment       0x00000000       0x2c build/Sercom/production/_ext/1664057780/camellia.o
 .ARM.attributes
                0x00000000       0x32 build/Sercom/production/_ext/1664057780/camellia.o
 .text          0x00000000        0x0 build/Sercom/production/_ext/1664057780/pkcs7.o
 .data          0x00000000        0x0 build/Sercom/production/_ext/1664057780/pkcs7.o
 .bss           0x00000000        0x0 build/Sercom/production/_ext/1664057780/pkcs7.o
 .debug_info    0x00000000      0x30f build/Sercom/production/_ext/1664057780/pkcs7.o
 .debug_abbrev  0x00000000       0x1b build/Sercom/production/_ext/1664057780/pkcs7.o
 .debug_aranges
                0x00000000       0x18 build/Sercom/production/_ext/1664057780/pkcs7.o
 .debug_line    0x00000000       0x1d build/Sercom/production/_ext/1664057780/pkcs7.o
 .debug_str     0x00000000        0x0 build/Sercom/production/_ext/1664057780/pkcs7.o
 .comment       0x00000000       0x2c build/Sercom/production/_ext/1664057780/pkcs7.o
 .ARM.attributes
                0x00000000       0x32 build/Sercom/production/_ext/1664057780/pkcs7.o
 .text          0x00000000        0x0 build/Sercom/production/_ext/1664057780/ecc_fp.o
 .data          0x00000000        0x0 build/Sercom/production/_ext/1664057780/ecc_fp.o
 .bss           0x00000000        0x0 build/Sercom/production/_ext/1664057780/ecc_fp.o
 .debug_line    0x00000000        0x0 build/Sercom/production/_ext/1664057780/ecc_fp.o
 .debug_str     0x00000000        0x0 build/Sercom/production/_ext/1664057780/ecc_fp.o
 .comment       0x00000000       0x2c build/Sercom/production/_ext/1664057780/ecc_fp.o
 .ARM.attributes
                0x00000000       0x32 build/Sercom/production/_ext/1664057780/ecc_fp.o
 .text          0x00000000        0x0 build/Sercom/production/_ext/1664057780/ed448.o
 .data          0x00000000        0x0 build/Sercom/production/_ext/1664057780/ed448.o
 .bss           0x00000000        0x0 build/Sercom/production/_ext/1664057780/ed448.o
 .debug_info    0x00000000      0x30f build/Sercom/production/_ext/1664057780/ed448.o
 .debug_abbrev  0x00000000       0x1b build/Sercom/production/_ext/1664057780/ed448.o
 .debug_aranges
                0x00000000       0x18 build/Sercom/production/_ext/1664057780/ed448.o
 .debug_line    0x00000000       0x1d build/Sercom/production/_ext/1664057780/ed448.o
 .debug_str     0x00000000        0x0 build/Sercom/production/_ext/1664057780/ed448.o
 .comment       0x00000000       0x2c build/Sercom/production/_ext/1664057780/ed448.o
 .ARM.attributes
                0x00000000       0x32 build/Sercom/production/_ext/1664057780/ed448.o
 .text          0x00000000        0x0 build/Sercom/production/_ext/1664057780/siphash.o
 .data          0x00000000        0x0 build/Sercom/production/_ext/1664057780/siphash.o
 .bss           0x00000000        0x0 build/Sercom/production/_ext/1664057780/siphash.o
 .debug_info    0x00000000      0x311 build/Sercom/production/_ext/1664057780/siphash.o
 .debug_abbrev  0x00000000       0x1b build/Sercom/production/_ext/1664057780/siphash.o
 .debug_aranges
                0x00000000       0x18 build/Sercom/production/_ext/1664057780/siphash.o
 .debug_line    0x00000000       0x1d build/Sercom/production/_ext/1664057780/siphash.o
 .debug_str     0x00000000        0x0 build/Sercom/production/_ext/1664057780/siphash.o
 .comment       0x00000000       0x2c build/Sercom/production/_ext/1664057780/siphash.o
 .ARM.attributes
                0x00000000       0x32 build/Sercom/production/_ext/1664057780/siphash.o
 .text          0x00000000        0x0 build/Sercom/production/_ext/1664057780/hmac.o
 .data          0x00000000        0x0 build/Sercom/production/_ext/1664057780/hmac.o
 .bss           0x00000000        0x0 build/Sercom/production/_ext/1664057780/hmac.o
 .text.HmacKeyInnerHash
                0x00000000       0x58 build/Sercom/production/_ext/1664057780/hmac.o
 .text.wc_HmacSizeByType
                0x00000000       0x3e build/Sercom/production/_ext/1664057780/hmac.o
 .text._InitHmac
                0x00000000       0x50 build/Sercom/production/_ext/1664057780/hmac.o
 .text.wc_HmacUpdate
                0x00000000       0xac build/Sercom/production/_ext/1664057780/hmac.o
 .text.wc_HmacFinal
                0x00000000      0x164 build/Sercom/production/_ext/1664057780/hmac.o
 .text.wc_HmacInit
                0x00000000       0x2e build/Sercom/production/_ext/1664057780/hmac.o
 .text.wc_HmacInit_Id
                0x00000000       0x3e build/Sercom/production/_ext/1664057780/hmac.o
 .text.wc_HmacInit_Label
                0x00000000       0x5e build/Sercom/production/_ext/1664057780/hmac.o
 .text.wc_HmacFree
                0x00000000       0x66 build/Sercom/production/_ext/1664057780/hmac.o
 .text.wc_HmacSetKey
                0x00000000      0x198 build/Sercom/production/_ext/1664057780/hmac.o
 .text.wolfSSL_GetHmacMaxSize
                0x00000000        0x4 build/Sercom/production/_ext/1664057780/hmac.o
 .debug_info    0x00000000     0x24dd build/Sercom/production/_ext/1664057780/hmac.o
 .debug_abbrev  0x00000000      0x364 build/Sercom/production/_ext/1664057780/hmac.o
 .debug_loc     0x00000000     0x12e1 build/Sercom/production/_ext/1664057780/hmac.o
 .debug_aranges
                0x00000000       0x70 build/Sercom/production/_ext/1664057780/hmac.o
 .debug_ranges  0x00000000       0x60 build/Sercom/production/_ext/1664057780/hmac.o
 .debug_line    0x00000000      0x868 build/Sercom/production/_ext/1664057780/hmac.o
 .debug_str     0x00000000      0x131 build/Sercom/production/_ext/1664057780/hmac.o
 .comment       0x00000000       0x2c build/Sercom/production/_ext/1664057780/hmac.o
 .debug_frame   0x00000000      0x140 build/Sercom/production/_ext/1664057780/hmac.o
 .ARM.attributes
                0x00000000       0x30 build/Sercom/production/_ext/1664057780/hmac.o
 .text          0x00000000        0x0 build/Sercom/production/_ext/1664057780/misc.o
 .data          0x00000000        0x0 build/Sercom/production/_ext/1664057780/misc.o
 .bss           0x00000000        0x0 build/Sercom/production/_ext/1664057780/misc.o
 .debug_info    0x00000000      0x30e build/Sercom/production/_ext/1664057780/misc.o
 .debug_abbrev  0x00000000       0x1b build/Sercom/production/_ext/1664057780/misc.o
 .debug_aranges
                0x00000000       0x18 build/Sercom/production/_ext/1664057780/misc.o
 .debug_line    0x00000000       0x1d build/Sercom/production/_ext/1664057780/misc.o
 .debug_str     0x00000000        0x0 build/Sercom/production/_ext/1664057780/misc.o
 .comment       0x00000000       0x2c build/Sercom/production/_ext/1664057780/misc.o
 .ARM.attributes
                0x00000000       0x32 build/Sercom/production/_ext/1664057780/misc.o
 .text          0x00000000        0x0 build/Sercom/production/_ext/1664057780/poly1305.o
 .data          0x00000000        0x0 build/Sercom/production/_ext/1664057780/poly1305.o
 .bss           0x00000000        0x0 build/Sercom/production/_ext/1664057780/poly1305.o
 .debug_info    0x00000000      0x312 build/Sercom/production/_ext/1664057780/poly1305.o
 .debug_abbrev  0x00000000       0x1b build/Sercom/production/_ext/1664057780/poly1305.o
 .debug_aranges
                0x00000000       0x18 build/Sercom/production/_ext/1664057780/poly1305.o
 .debug_line    0x00000000       0x1d build/Sercom/production/_ext/1664057780/poly1305.o
 .debug_str     0x00000000        0x0 build/Sercom/production/_ext/1664057780/poly1305.o
 .comment       0x00000000       0x2c build/Sercom/production/_ext/1664057780/poly1305.o
 .ARM.attributes
                0x00000000       0x32 build/Sercom/production/_ext/1664057780/poly1305.o
 .text          0x00000000        0x0 build/Sercom/production/_ext/1664057780/cpuid.o
 .data          0x00000000        0x0 build/Sercom/production/_ext/1664057780/cpuid.o
 .bss           0x00000000        0x0 build/Sercom/production/_ext/1664057780/cpuid.o
 .debug_info    0x00000000      0x30f build/Sercom/production/_ext/1664057780/cpuid.o
 .debug_abbrev  0x00000000       0x1b build/Sercom/production/_ext/1664057780/cpuid.o
 .debug_aranges
                0x00000000       0x18 build/Sercom/production/_ext/1664057780/cpuid.o
 .debug_line    0x00000000       0x1d build/Sercom/production/_ext/1664057780/cpuid.o
 .debug_str     0x00000000        0x0 build/Sercom/production/_ext/1664057780/cpuid.o
 .comment       0x00000000       0x2c build/Sercom/production/_ext/1664057780/cpuid.o
 .ARM.attributes
                0x00000000       0x32 build/Sercom/production/_ext/1664057780/cpuid.o
 .text          0x00000000        0x0 build/Sercom/production/_ext/1664057780/chacha.o
 .data          0x00000000        0x0 build/Sercom/production/_ext/1664057780/chacha.o
 .bss           0x00000000        0x0 build/Sercom/production/_ext/1664057780/chacha.o
 .debug_info    0x00000000      0x310 build/Sercom/production/_ext/1664057780/chacha.o
 .debug_abbrev  0x00000000       0x1b build/Sercom/production/_ext/1664057780/chacha.o
 .debug_aranges
                0x00000000       0x18 build/Sercom/production/_ext/1664057780/chacha.o
 .debug_line    0x00000000       0x1d build/Sercom/production/_ext/1664057780/chacha.o
 .debug_str     0x00000000        0x0 build/Sercom/production/_ext/1664057780/chacha.o
 .comment       0x00000000       0x2c build/Sercom/production/_ext/1664057780/chacha.o
 .ARM.attributes
                0x00000000       0x32 build/Sercom/production/_ext/1664057780/chacha.o
 .text          0x00000000        0x0 build/Sercom/production/_ext/1664057780/error.o
 .data          0x00000000        0x0 build/Sercom/production/_ext/1664057780/error.o
 .bss           0x00000000        0x0 build/Sercom/production/_ext/1664057780/error.o
 .debug_info    0x00000000      0x30f build/Sercom/production/_ext/1664057780/error.o
 .debug_abbrev  0x00000000       0x1b build/Sercom/production/_ext/1664057780/error.o
 .debug_aranges
                0x00000000       0x18 build/Sercom/production/_ext/1664057780/error.o
 .debug_line    0x00000000       0x1d build/Sercom/production/_ext/1664057780/error.o
 .debug_str     0x00000000        0x0 build/Sercom/production/_ext/1664057780/error.o
 .comment       0x00000000       0x2c build/Sercom/production/_ext/1664057780/error.o
 .ARM.attributes
                0x00000000       0x32 build/Sercom/production/_ext/1664057780/error.o
 .text          0x00000000        0x0 build/Sercom/production/_ext/1664057780/cryptocb.o
 .data          0x00000000        0x0 build/Sercom/production/_ext/1664057780/cryptocb.o
 .bss           0x00000000        0x0 build/Sercom/production/_ext/1664057780/cryptocb.o
 .text.wc_CryptoCb_FindDeviceByIndex
                0x00000000       0x54 build/Sercom/production/_ext/1664057780/cryptocb.o
 .text.wc_CryptoCb_Init
                0x00000000       0x1e build/Sercom/production/_ext/1664057780/cryptocb.o
 .text.wc_CryptoCb_GetDevIdAtIndex
                0x00000000       0x12 build/Sercom/production/_ext/1664057780/cryptocb.o
 .text.wc_CryptoCb_UnRegisterDevice
                0x00000000       0x1c build/Sercom/production/_ext/1664057780/cryptocb.o
 .text.wc_CryptoCb_Rsa
                0x00000000       0x74 build/Sercom/production/_ext/1664057780/cryptocb.o
 .text.wc_CryptoCb_RsaCheckPrivKey
                0x00000000       0x60 build/Sercom/production/_ext/1664057780/cryptocb.o
 .text.wc_CryptoCb_MakeEccKey
                0x00000000       0x68 build/Sercom/production/_ext/1664057780/cryptocb.o
 .text.wc_CryptoCb_Ecdh
                0x00000000       0x68 build/Sercom/production/_ext/1664057780/cryptocb.o
 .text.wc_CryptoCb_EccSign
                0x00000000       0x70 build/Sercom/production/_ext/1664057780/cryptocb.o
 .text.wc_CryptoCb_EccVerify
                0x00000000       0x70 build/Sercom/production/_ext/1664057780/cryptocb.o
 .text.wc_CryptoCb_EccCheckPrivKey
                0x00000000       0x60 build/Sercom/production/_ext/1664057780/cryptocb.o
 .text.wc_CryptoCb_AesGcmEncrypt
                0x00000000       0x78 build/Sercom/production/_ext/1664057780/cryptocb.o
 .text.wc_CryptoCb_AesGcmDecrypt
                0x00000000       0x78 build/Sercom/production/_ext/1664057780/cryptocb.o
 .text.wc_CryptoCb_AesCcmEncrypt
                0x00000000       0x78 build/Sercom/production/_ext/1664057780/cryptocb.o
 .text.wc_CryptoCb_AesCcmDecrypt
                0x00000000       0x78 build/Sercom/production/_ext/1664057780/cryptocb.o
 .text.wc_CryptoCb_AesCbcEncrypt
                0x00000000       0x6c build/Sercom/production/_ext/1664057780/cryptocb.o
 .text.wc_CryptoCb_AesCbcDecrypt
                0x00000000       0x70 build/Sercom/production/_ext/1664057780/cryptocb.o
 .text.wc_CryptoCb_AesCtrEncrypt
                0x00000000       0x70 build/Sercom/production/_ext/1664057780/cryptocb.o
 .text.wc_CryptoCb_AesEcbEncrypt
                0x00000000       0x70 build/Sercom/production/_ext/1664057780/cryptocb.o
 .text.wc_CryptoCb_AesEcbDecrypt
                0x00000000       0x74 build/Sercom/production/_ext/1664057780/cryptocb.o
 .text.wc_CryptoCb_Des3Encrypt
                0x00000000       0x70 build/Sercom/production/_ext/1664057780/cryptocb.o
 .text.wc_CryptoCb_Des3Decrypt
                0x00000000       0x74 build/Sercom/production/_ext/1664057780/cryptocb.o
 .text.wc_CryptoCb_ShaHash
                0x00000000       0x68 build/Sercom/production/_ext/1664057780/cryptocb.o
 .text.wc_CryptoCb_Sha256Hash
                0x00000000       0x68 build/Sercom/production/_ext/1664057780/cryptocb.o
 .text.wc_CryptoCb_Hmac
                0x00000000       0x68 build/Sercom/production/_ext/1664057780/cryptocb.o
 .text.wc_CryptoCb_RandomBlock
                0x00000000       0x5c build/Sercom/production/_ext/1664057780/cryptocb.o
 .text.wc_CryptoCb_RandomSeed
                0x00000000       0x50 build/Sercom/production/_ext/1664057780/cryptocb.o
 .text.wc_CryptoCb_DefaultDevID
                0x00000000        0x6 build/Sercom/production/_ext/1664057780/cryptocb.o
 .text          0x00000000        0x0 build/Sercom/production/_ext/1664057780/asm.o
 .data          0x00000000        0x0 build/Sercom/production/_ext/1664057780/asm.o
 .bss           0x00000000        0x0 build/Sercom/production/_ext/1664057780/asm.o
 .debug_info    0x00000000      0x30d build/Sercom/production/_ext/1664057780/asm.o
 .debug_abbrev  0x00000000       0x1b build/Sercom/production/_ext/1664057780/asm.o
 .debug_aranges
                0x00000000       0x18 build/Sercom/production/_ext/1664057780/asm.o
 .debug_line    0x00000000       0x1d build/Sercom/production/_ext/1664057780/asm.o
 .debug_str     0x00000000        0x0 build/Sercom/production/_ext/1664057780/asm.o
 .comment       0x00000000       0x2c build/Sercom/production/_ext/1664057780/asm.o
 .ARM.attributes
                0x00000000       0x32 build/Sercom/production/_ext/1664057780/asm.o
 .text          0x00000000        0x0 build/Sercom/production/_ext/1664057780/ripemd.o
 .data          0x00000000        0x0 build/Sercom/production/_ext/1664057780/ripemd.o
 .bss           0x00000000        0x0 build/Sercom/production/_ext/1664057780/ripemd.o
 .debug_info    0x00000000      0x310 build/Sercom/production/_ext/1664057780/ripemd.o
 .debug_abbrev  0x00000000       0x1b build/Sercom/production/_ext/1664057780/ripemd.o
 .debug_aranges
                0x00000000       0x18 build/Sercom/production/_ext/1664057780/ripemd.o
 .debug_line    0x00000000       0x1d build/Sercom/production/_ext/1664057780/ripemd.o
 .debug_str     0x00000000        0x0 build/Sercom/production/_ext/1664057780/ripemd.o
 .comment       0x00000000       0x2c build/Sercom/production/_ext/1664057780/ripemd.o
 .ARM.attributes
                0x00000000       0x32 build/Sercom/production/_ext/1664057780/ripemd.o
 .text          0x00000000        0x0 build/Sercom/production/_ext/1664057780/logging.o
 .data          0x00000000        0x0 build/Sercom/production/_ext/1664057780/logging.o
 .bss           0x00000000        0x0 build/Sercom/production/_ext/1664057780/logging.o
 .text.wolfSSL_SetLoggingCb
                0x00000000        0x6 build/Sercom/production/_ext/1664057780/logging.o
 .text.wolfSSL_GetLoggingCb
                0x00000000        0x4 build/Sercom/production/_ext/1664057780/logging.o
 .text.wolfSSL_Debugging_ON
                0x00000000        0x6 build/Sercom/production/_ext/1664057780/logging.o
 .text.wolfSSL_Debugging_OFF
                0x00000000        0x2 build/Sercom/production/_ext/1664057780/logging.o
 .debug_info    0x00000000     0x1064 build/Sercom/production/_ext/1664057780/logging.o
 .debug_abbrev  0x00000000       0xd2 build/Sercom/production/_ext/1664057780/logging.o
 .debug_loc     0x00000000       0x25 build/Sercom/production/_ext/1664057780/logging.o
 .debug_aranges
                0x00000000       0x38 build/Sercom/production/_ext/1664057780/logging.o
 .debug_ranges  0x00000000       0x28 build/Sercom/production/_ext/1664057780/logging.o
 .debug_line    0x00000000      0x10b build/Sercom/production/_ext/1664057780/logging.o
 .debug_str     0x00000000        0x0 build/Sercom/production/_ext/1664057780/logging.o
 .comment       0x00000000       0x2c build/Sercom/production/_ext/1664057780/logging.o
 .debug_frame   0x00000000       0x50 build/Sercom/production/_ext/1664057780/logging.o
 .ARM.attributes
                0x00000000       0x30 build/Sercom/production/_ext/1664057780/logging.o
 .text          0x00000000        0x0 build/Sercom/production/_ext/1664057780/chacha20_poly1305.o
 .data          0x00000000        0x0 build/Sercom/production/_ext/1664057780/chacha20_poly1305.o
 .bss           0x00000000        0x0 build/Sercom/production/_ext/1664057780/chacha20_poly1305.o
 .debug_info    0x00000000      0x31b build/Sercom/production/_ext/1664057780/chacha20_poly1305.o
 .debug_abbrev  0x00000000       0x1b build/Sercom/production/_ext/1664057780/chacha20_poly1305.o
 .debug_aranges
                0x00000000       0x18 build/Sercom/production/_ext/1664057780/chacha20_poly1305.o
 .debug_line    0x00000000       0x1d build/Sercom/production/_ext/1664057780/chacha20_poly1305.o
 .debug_str     0x00000000        0x0 build/Sercom/production/_ext/1664057780/chacha20_poly1305.o
 .comment       0x00000000       0x2c build/Sercom/production/_ext/1664057780/chacha20_poly1305.o
 .ARM.attributes
                0x00000000       0x32 build/Sercom/production/_ext/1664057780/chacha20_poly1305.o
 .text          0x00000000        0x0 build/Sercom/production/_ext/1664057780/fe_448.o
 .data          0x00000000        0x0 build/Sercom/production/_ext/1664057780/fe_448.o
 .bss           0x00000000        0x0 build/Sercom/production/_ext/1664057780/fe_448.o
 .debug_info    0x00000000      0x310 build/Sercom/production/_ext/1664057780/fe_448.o
 .debug_abbrev  0x00000000       0x1b build/Sercom/production/_ext/1664057780/fe_448.o
 .debug_aranges
                0x00000000       0x18 build/Sercom/production/_ext/1664057780/fe_448.o
 .debug_line    0x00000000       0x1d build/Sercom/production/_ext/1664057780/fe_448.o
 .debug_str     0x00000000        0x0 build/Sercom/production/_ext/1664057780/fe_448.o
 .comment       0x00000000       0x2c build/Sercom/production/_ext/1664057780/fe_448.o
 .ARM.attributes
                0x00000000       0x32 build/Sercom/production/_ext/1664057780/fe_448.o
 .text          0x00000000        0x0 build/Sercom/production/_ext/1664057780/sp_arm32.o
 .data          0x00000000        0x0 build/Sercom/production/_ext/1664057780/sp_arm32.o
 .bss           0x00000000        0x0 build/Sercom/production/_ext/1664057780/sp_arm32.o
 .debug_info    0x00000000      0x312 build/Sercom/production/_ext/1664057780/sp_arm32.o
 .debug_abbrev  0x00000000       0x1b build/Sercom/production/_ext/1664057780/sp_arm32.o
 .debug_aranges
                0x00000000       0x18 build/Sercom/production/_ext/1664057780/sp_arm32.o
 .debug_line    0x00000000       0x1d build/Sercom/production/_ext/1664057780/sp_arm32.o
 .debug_str     0x00000000        0x0 build/Sercom/production/_ext/1664057780/sp_arm32.o
 .comment       0x00000000       0x2c build/Sercom/production/_ext/1664057780/sp_arm32.o
 .ARM.attributes
                0x00000000       0x32 build/Sercom/production/_ext/1664057780/sp_arm32.o
 .text          0x00000000        0x0 build/Sercom/production/_ext/1664057780/wolfmath.o
 .data          0x00000000        0x0 build/Sercom/production/_ext/1664057780/wolfmath.o
 .bss           0x00000000        0x0 build/Sercom/production/_ext/1664057780/wolfmath.o
 .text.get_digit_count
                0x00000000        0xa build/Sercom/production/_ext/1664057780/wolfmath.o
 .text.get_digit
                0x00000000       0x1c build/Sercom/production/_ext/1664057780/wolfmath.o
 .text.mp_cond_copy
                0x00000000       0xbe build/Sercom/production/_ext/1664057780/wolfmath.o
 .text.get_rand_digit
                0x00000000        0xa build/Sercom/production/_ext/1664057780/wolfmath.o
 .text.wc_export_int
                0x00000000       0x8a build/Sercom/production/_ext/1664057780/wolfmath.o
 .rodata.wc_off_on_addr
                0x00000000        0x8 build/Sercom/production/_ext/1664057780/wolfmath.o
 .debug_info    0x00000000     0x172d build/Sercom/production/_ext/1664057780/wolfmath.o
 .debug_abbrev  0x00000000      0x211 build/Sercom/production/_ext/1664057780/wolfmath.o
 .debug_loc     0x00000000      0x4ca build/Sercom/production/_ext/1664057780/wolfmath.o
 .debug_aranges
                0x00000000       0x40 build/Sercom/production/_ext/1664057780/wolfmath.o
 .debug_ranges  0x00000000       0x30 build/Sercom/production/_ext/1664057780/wolfmath.o
 .debug_line    0x00000000      0x30c build/Sercom/production/_ext/1664057780/wolfmath.o
 .debug_str     0x00000000       0x56 build/Sercom/production/_ext/1664057780/wolfmath.o
 .comment       0x00000000       0x2c build/Sercom/production/_ext/1664057780/wolfmath.o
 .debug_frame   0x00000000       0x90 build/Sercom/production/_ext/1664057780/wolfmath.o
 .ARM.attributes
                0x00000000       0x30 build/Sercom/production/_ext/1664057780/wolfmath.o
 .text          0x00000000        0x0 build/Sercom/production/_ext/1664057780/arc4.o
 .data          0x00000000        0x0 build/Sercom/production/_ext/1664057780/arc4.o
 .bss           0x00000000        0x0 build/Sercom/production/_ext/1664057780/arc4.o
 .debug_info    0x00000000      0x30e build/Sercom/production/_ext/1664057780/arc4.o
 .debug_abbrev  0x00000000       0x1b build/Sercom/production/_ext/1664057780/arc4.o
 .debug_aranges
                0x00000000       0x18 build/Sercom/production/_ext/1664057780/arc4.o
 .debug_line    0x00000000       0x1d build/Sercom/production/_ext/1664057780/arc4.o
 .debug_str     0x00000000        0x0 build/Sercom/production/_ext/1664057780/arc4.o
 .comment       0x00000000       0x2c build/Sercom/production/_ext/1664057780/arc4.o
 .ARM.attributes
                0x00000000       0x32 build/Sercom/production/_ext/1664057780/arc4.o
 .text          0x00000000        0x0 build/Sercom/production/_ext/1664057780/blake2s.o
 .data          0x00000000        0x0 build/Sercom/production/_ext/1664057780/blake2s.o
 .bss           0x00000000        0x0 build/Sercom/production/_ext/1664057780/blake2s.o
 .debug_info    0x00000000      0x311 build/Sercom/production/_ext/1664057780/blake2s.o
 .debug_abbrev  0x00000000       0x1b build/Sercom/production/_ext/1664057780/blake2s.o
 .debug_aranges
                0x00000000       0x18 build/Sercom/production/_ext/1664057780/blake2s.o
 .debug_line    0x00000000       0x1d build/Sercom/production/_ext/1664057780/blake2s.o
 .debug_str     0x00000000        0x0 build/Sercom/production/_ext/1664057780/blake2s.o
 .comment       0x00000000       0x2c build/Sercom/production/_ext/1664057780/blake2s.o
 .ARM.attributes
                0x00000000       0x32 build/Sercom/production/_ext/1664057780/blake2s.o
 .text          0x00000000        0x0 build/Sercom/production/_ext/1664057780/falcon.o
 .data          0x00000000        0x0 build/Sercom/production/_ext/1664057780/falcon.o
 .bss           0x00000000        0x0 build/Sercom/production/_ext/1664057780/falcon.o
 .debug_info    0x00000000      0x310 build/Sercom/production/_ext/1664057780/falcon.o
 .debug_abbrev  0x00000000       0x1b build/Sercom/production/_ext/1664057780/falcon.o
 .debug_aranges
                0x00000000       0x18 build/Sercom/production/_ext/1664057780/falcon.o
 .debug_line    0x00000000       0x1d build/Sercom/production/_ext/1664057780/falcon.o
 .debug_str     0x00000000        0x0 build/Sercom/production/_ext/1664057780/falcon.o
 .comment       0x00000000       0x2c build/Sercom/production/_ext/1664057780/falcon.o
 .ARM.attributes
                0x00000000       0x32 build/Sercom/production/_ext/1664057780/falcon.o
 .text          0x00000000        0x0 build/Sercom/production/_ext/1664057780/ed25519.o
 .data          0x00000000        0x0 build/Sercom/production/_ext/1664057780/ed25519.o
 .bss           0x00000000        0x0 build/Sercom/production/_ext/1664057780/ed25519.o
 .debug_info    0x00000000      0x311 build/Sercom/production/_ext/1664057780/ed25519.o
 .debug_abbrev  0x00000000       0x1b build/Sercom/production/_ext/1664057780/ed25519.o
 .debug_aranges
                0x00000000       0x18 build/Sercom/production/_ext/1664057780/ed25519.o
 .debug_line    0x00000000       0x1d build/Sercom/production/_ext/1664057780/ed25519.o
 .debug_str     0x00000000        0x0 build/Sercom/production/_ext/1664057780/ed25519.o
 .comment       0x00000000       0x2c build/Sercom/production/_ext/1664057780/ed25519.o
 .ARM.attributes
                0x00000000       0x32 build/Sercom/production/_ext/1664057780/ed25519.o
 .text          0x00000000        0x0 build/Sercom/production/_ext/1664057780/asn.o
 .data          0x00000000        0x0 build/Sercom/production/_ext/1664057780/asn.o
 .bss           0x00000000        0x0 build/Sercom/production/_ext/1664057780/asn.o
 .text.GetASNNull
                0x00000000       0x30 build/Sercom/production/_ext/1664057780/asn.o
 .text.GetBoolean
                0x00000000       0x36 build/Sercom/production/_ext/1664057780/asn.o
 .text.trim_leading_zeros
                0x00000000       0x34 build/Sercom/production/_ext/1664057780/asn.o
 .text.CheckCurve
                0x00000000       0x24 build/Sercom/production/_ext/1664057780/asn.o
 .text.MatchBaseName
                0x00000000      0x102 build/Sercom/production/_ext/1664057780/asn.o
 .text.IsInExcludedList
                0x00000000       0x3c build/Sercom/production/_ext/1664057780/asn.o
 .text.PermittedListOk
                0x00000000       0x4e build/Sercom/production/_ext/1664057780/asn.o
 .text.KeyPemToDerPassCb
                0x00000000       0x26 build/Sercom/production/_ext/1664057780/asn.o
 .text.SetASNLength
                0x00000000       0x4c build/Sercom/production/_ext/1664057780/asn.o
 .text.GetLength_ex
                0x00000000       0xb4 build/Sercom/production/_ext/1664057780/asn.o
 .text.GetLength
                0x00000000       0x10 build/Sercom/production/_ext/1664057780/asn.o
 .text.GetDateInfo
                0x00000000       0x94 build/Sercom/production/_ext/1664057780/asn.o
 .text.GetASNTag
                0x00000000       0x32 build/Sercom/production/_ext/1664057780/asn.o
 .text.GetASNHeader_ex
                0x00000000       0x5c build/Sercom/production/_ext/1664057780/asn.o
 .text.GetASNInt
                0x00000000       0x68 build/Sercom/production/_ext/1664057780/asn.o
 .text.GetIntPositive
                0x00000000       0x66 build/Sercom/production/_ext/1664057780/asn.o
 .text.GetSequence
                0x00000000       0x18 build/Sercom/production/_ext/1664057780/asn.o
 .text.GetSequence_ex
                0x00000000       0x18 build/Sercom/production/_ext/1664057780/asn.o
 .text.GetSet   0x00000000       0x18 build/Sercom/production/_ext/1664057780/asn.o
 .text.GetSet_ex
                0x00000000       0x18 build/Sercom/production/_ext/1664057780/asn.o
 .text.GetOctetString
                0x00000000       0x18 build/Sercom/production/_ext/1664057780/asn.o
 .text.GetSigName
                0x00000000       0x8a build/Sercom/production/_ext/1664057780/asn.o
 .text.GetMyVersion
                0x00000000       0x5a build/Sercom/production/_ext/1664057780/asn.o
 .text.GetInt   0x00000000       0x52 build/Sercom/production/_ext/1664057780/asn.o
 .text.CheckBitString
                0x00000000       0xc0 build/Sercom/production/_ext/1664057780/asn.o
 .text.OidFromId
                0x00000000      0x548 build/Sercom/production/_ext/1664057780/asn.o
 .rodata.OidFromId
                0x00000000      0x1d0 build/Sercom/production/_ext/1664057780/asn.o
 .text.GetASNObjectId
                0x00000000       0x20 build/Sercom/production/_ext/1664057780/asn.o
 .text.SkipObjectId
                0x00000000       0x24 build/Sercom/production/_ext/1664057780/asn.o
 .text.GetObjectId
                0x00000000       0x94 build/Sercom/production/_ext/1664057780/asn.o
 .text.GetAlgoId
                0x00000000       0x82 build/Sercom/production/_ext/1664057780/asn.o
 .text.ToTraditionalInline_ex
                0x00000000       0xc2 build/Sercom/production/_ext/1664057780/asn.o
 .text.wc_RsaPrivateKeyDecode
                0x00000000      0x140 build/Sercom/production/_ext/1664057780/asn.o
 .text.ToTraditionalInline
                0x00000000        0xe build/Sercom/production/_ext/1664057780/asn.o
 .text.ToTraditional_ex
                0x00000000       0x40 build/Sercom/production/_ext/1664057780/asn.o
 .text.ToTraditional
                0x00000000        0xe build/Sercom/production/_ext/1664057780/asn.o
 .text.wc_GetPkcs8TraditionalOffset
                0x00000000       0x2a build/Sercom/production/_ext/1664057780/asn.o
 .text.wc_RsaPublicKeyDecode_ex
                0x00000000      0x166 build/Sercom/production/_ext/1664057780/asn.o
 .text.wc_RsaPublicKeyDecodeRaw
                0x00000000       0x98 build/Sercom/production/_ext/1664057780/asn.o
 .text.wc_RsaPublicKeyDecode
                0x00000000       0x42 build/Sercom/production/_ext/1664057780/asn.o
 .text.FreeAltNames
                0x00000000       0x22 build/Sercom/production/_ext/1664057780/asn.o
 .text.AltNameNew
                0x00000000       0x16 build/Sercom/production/_ext/1664057780/asn.o
 .text.FreeNameSubtrees
                0x00000000       0x22 build/Sercom/production/_ext/1664057780/asn.o
 .text.CalcHashId
                0x00000000        0x8 build/Sercom/production/_ext/1664057780/asn.o
 .text.GetName  0x00000000      0x43a build/Sercom/production/_ext/1664057780/asn.o
 .text.ExtractDate
                0x00000000      0x218 build/Sercom/production/_ext/1664057780/asn.o
 .text.DateGreaterThan
                0x00000000       0x8e build/Sercom/production/_ext/1664057780/asn.o
 .text.wc_SetTimeCb
                0x00000000        0xe build/Sercom/production/_ext/1664057780/asn.o
 .text.wc_Time  0x00000000       0x18 build/Sercom/production/_ext/1664057780/asn.o
 .text.wc_ValidateDate
                0x00000000       0xe4 build/Sercom/production/_ext/1664057780/asn.o
 .text.GetDate  0x00000000       0xbc build/Sercom/production/_ext/1664057780/asn.o
 .text.wc_GetTime
                0x00000000       0x22 build/Sercom/production/_ext/1664057780/asn.o
 .text.wc_GetDateInfo
                0x00000000       0x18 build/Sercom/production/_ext/1664057780/asn.o
 .text.wc_GetDateAsCalendarTime
                0x00000000       0x22 build/Sercom/production/_ext/1664057780/asn.o
 .text.SetLength
                0x00000000       0x60 build/Sercom/production/_ext/1664057780/asn.o
 .text.SetASNInt
                0x00000000       0x44 build/Sercom/production/_ext/1664057780/asn.o
 .text.SetASNIntMP
                0x00000000       0x8e build/Sercom/production/_ext/1664057780/asn.o
 .text.SetBitString
                0x00000000       0x26 build/Sercom/production/_ext/1664057780/asn.o
 .text.SetObjectId
                0x00000000       0x12 build/Sercom/production/_ext/1664057780/asn.o
 .text.SetCurve
                0x00000000       0x4c build/Sercom/production/_ext/1664057780/asn.o
 .text.SetHeader
                0x00000000       0x16 build/Sercom/production/_ext/1664057780/asn.o
 .text.SetSequence
                0x00000000        0xe build/Sercom/production/_ext/1664057780/asn.o
 .text.SetOctetString
                0x00000000        0xe build/Sercom/production/_ext/1664057780/asn.o
 .text.SetSet   0x00000000        0xe build/Sercom/production/_ext/1664057780/asn.o
 .text.SetImplicit
                0x00000000       0x22 build/Sercom/production/_ext/1664057780/asn.o
 .text.SetExplicit
                0x00000000        0xc build/Sercom/production/_ext/1664057780/asn.o
 .text.SetAlgoID
                0x00000000      0x114 build/Sercom/production/_ext/1664057780/asn.o
 .text.SetEccPublicKey
                0x00000000      0x100 build/Sercom/production/_ext/1664057780/asn.o
 .text.wc_EncodeSignature
                0x00000000       0x6e build/Sercom/production/_ext/1664057780/asn.o
 .text.wc_GetCTC_HashOID
                0x00000000       0x12 build/Sercom/production/_ext/1664057780/asn.o
 .text.InitSignatureCtx
                0x00000000       0x1a build/Sercom/production/_ext/1664057780/asn.o
 .text.InitDecodedCert
                0x00000000       0x4c build/Sercom/production/_ext/1664057780/asn.o
 .text.wc_InitDecodedCert
                0x00000000        0x8 build/Sercom/production/_ext/1664057780/asn.o
 .text.FreeSignatureCtx
                0x00000000       0x58 build/Sercom/production/_ext/1664057780/asn.o
 .text.FreeDecodedCert
                0x00000000       0x86 build/Sercom/production/_ext/1664057780/asn.o
 .text.wc_FreeDecodedCert
                0x00000000        0x8 build/Sercom/production/_ext/1664057780/asn.o
 .text.GetCA    0x00000000        0x2 build/Sercom/production/_ext/1664057780/asn.o
 .text.GetCAByName
                0x00000000        0x2 build/Sercom/production/_ext/1664057780/asn.o
 .text.MakeSigner
                0x00000000       0x18 build/Sercom/production/_ext/1664057780/asn.o
 .text.FreeSigner
                0x00000000       0x32 build/Sercom/production/_ext/1664057780/asn.o
 .text.FreeSignerTable
                0x00000000       0x46 build/Sercom/production/_ext/1664057780/asn.o
 .text.SetMyVersion
                0x00000000       0x26 build/Sercom/production/_ext/1664057780/asn.o
 .text.wc_CreatePKCS8Key
                0x00000000      0x1b6 build/Sercom/production/_ext/1664057780/asn.o
 .text.wc_BuildEccKeyDer
                0x00000000      0x22c build/Sercom/production/_ext/1664057780/asn.o
 .text.eccToPKCS8
                0x00000000      0x10c build/Sercom/production/_ext/1664057780/asn.o
 .text.SetSerialNumber
                0x00000000       0x98 build/Sercom/production/_ext/1664057780/asn.o
 .text.wc_GetSerialNumber
                0x00000000       0x6a build/Sercom/production/_ext/1664057780/asn.o
 .text.wc_GetPubX509
                0x00000000      0x19e build/Sercom/production/_ext/1664057780/asn.o
 .text.DecodeToKey
                0x00000000      0x1a6 build/Sercom/production/_ext/1664057780/asn.o
 .text.AllocDer
                0x00000000       0x98 build/Sercom/production/_ext/1664057780/asn.o
 .rodata.AllocDer
                0x00000000       0x30 build/Sercom/production/_ext/1664057780/asn.o
 .text.FreeDer  0x00000000       0x34 build/Sercom/production/_ext/1664057780/asn.o
 .text.wc_AllocDer
                0x00000000        0x8 build/Sercom/production/_ext/1664057780/asn.o
 .text.wc_FreeDer
                0x00000000        0x8 build/Sercom/production/_ext/1664057780/asn.o
 .text.wc_PemGetHeaderFooter
                0x00000000      0x120 build/Sercom/production/_ext/1664057780/asn.o
 .rodata.wc_PemGetHeaderFooter
                0x00000000       0x58 build/Sercom/production/_ext/1664057780/asn.o
 .text.PemToDer
                0x00000000      0x288 build/Sercom/production/_ext/1664057780/asn.o
 .text.wc_PemToDer
                0x00000000       0x3a build/Sercom/production/_ext/1664057780/asn.o
 .text.wc_KeyPemToDer
                0x00000000       0x8e build/Sercom/production/_ext/1664057780/asn.o
 .text.wc_CertPemToDer
                0x00000000       0x78 build/Sercom/production/_ext/1664057780/asn.o
 .text.wc_GetPubKeyDerFromCert
                0x00000000       0x5a build/Sercom/production/_ext/1664057780/asn.o
 .text.wc_EccPublicKeyToDer
                0x00000000       0x16 build/Sercom/production/_ext/1664057780/asn.o
 .text.wc_EccPublicKeyToDer_ex
                0x00000000       0x16 build/Sercom/production/_ext/1664057780/asn.o
 .text.wc_EccPublicKeyDerSize
                0x00000000       0x16 build/Sercom/production/_ext/1664057780/asn.o
 .text.StoreECC_DSA_Sig
                0x00000000       0x7e build/Sercom/production/_ext/1664057780/asn.o
 .text.StoreECC_DSA_Sig_Bin
                0x00000000       0xe2 build/Sercom/production/_ext/1664057780/asn.o
 .text.DecodeECC_DSA_Sig_Bin
                0x00000000       0xa6 build/Sercom/production/_ext/1664057780/asn.o
 .text.DecodeECC_DSA_Sig
                0x00000000       0x88 build/Sercom/production/_ext/1664057780/asn.o
 .text.wc_EccPrivateKeyDecode
                0x00000000      0x1ba build/Sercom/production/_ext/1664057780/asn.o
 .text.wc_CheckPrivateKey
                0x00000000      0x1c0 build/Sercom/production/_ext/1664057780/asn.o
 .text.wc_CheckPrivateKeyCert
                0x00000000       0x26 build/Sercom/production/_ext/1664057780/asn.o
 .text.wc_EccPublicKeyDecode
                0x00000000      0x20a build/Sercom/production/_ext/1664057780/asn.o
 .text.ConfirmSignature
                0x00000000      0x364 build/Sercom/production/_ext/1664057780/asn.o
 .rodata.ConfirmSignature
                0x00000000       0x14 build/Sercom/production/_ext/1664057780/asn.o
 .text.ParseCertRelative
                0x00000000     0x162c build/Sercom/production/_ext/1664057780/asn.o
 .text.ParseCert
                0x00000000       0x82 build/Sercom/production/_ext/1664057780/asn.o
 .text.wc_ParseCert
                0x00000000        0x8 build/Sercom/production/_ext/1664057780/asn.o
 .text.wc_EccKeyToDer
                0x00000000       0x14 build/Sercom/production/_ext/1664057780/asn.o
 .text.wc_EccKeyDerSize
                0x00000000       0x22 build/Sercom/production/_ext/1664057780/asn.o
 .text.wc_EccPrivateKeyToDer
                0x00000000       0x16 build/Sercom/production/_ext/1664057780/asn.o
 .text.wc_EccPrivateKeyToPKCS8
                0x00000000        0xa build/Sercom/production/_ext/1664057780/asn.o
 .text.wc_EccKeyToPKCS8
                0x00000000        0xa build/Sercom/production/_ext/1664057780/asn.o
 .text.GetNameHash
                0x00000000       0x86 build/Sercom/production/_ext/1664057780/asn.o
 .rodata        0x00000000      0x298 build/Sercom/production/_ext/1664057780/asn.o
 .bss.timeFunc  0x00000000        0x4 build/Sercom/production/_ext/1664057780/asn.o
 .rodata.BEGIN_CERT
                0x00000000        0x4 build/Sercom/production/_ext/1664057780/asn.o
 .rodata.BEGIN_DSA_PRIV
                0x00000000        0x4 build/Sercom/production/_ext/1664057780/asn.o
 .rodata.BEGIN_EC_PRIV
                0x00000000        0x4 build/Sercom/production/_ext/1664057780/asn.o
 .rodata.BEGIN_ENC_PRIV_KEY
                0x00000000        0x4 build/Sercom/production/_ext/1664057780/asn.o
 .rodata.BEGIN_PRIV_KEY
                0x00000000        0x4 build/Sercom/production/_ext/1664057780/asn.o
 .rodata.BEGIN_PUB_KEY
                0x00000000        0x4 build/Sercom/production/_ext/1664057780/asn.o
 .rodata.BEGIN_RSA_PRIV
                0x00000000        0x4 build/Sercom/production/_ext/1664057780/asn.o
 .rodata.BEGIN_RSA_PUB
                0x00000000        0x4 build/Sercom/production/_ext/1664057780/asn.o
 .rodata.BEGIN_X509_CRL
                0x00000000        0x4 build/Sercom/production/_ext/1664057780/asn.o
 .rodata.END_CERT
                0x00000000        0x4 build/Sercom/production/_ext/1664057780/asn.o
 .rodata.END_DSA_PRIV
                0x00000000        0x4 build/Sercom/production/_ext/1664057780/asn.o
 .rodata.END_EC_PRIV
                0x00000000        0x4 build/Sercom/production/_ext/1664057780/asn.o
 .rodata.END_ENC_PRIV_KEY
                0x00000000        0x4 build/Sercom/production/_ext/1664057780/asn.o
 .rodata.END_PRIV_KEY
                0x00000000        0x4 build/Sercom/production/_ext/1664057780/asn.o
 .rodata.END_PUB_KEY
                0x00000000        0x4 build/Sercom/production/_ext/1664057780/asn.o
 .rodata.END_RSA_PRIV
                0x00000000        0x4 build/Sercom/production/_ext/1664057780/asn.o
 .rodata.END_RSA_PUB
                0x00000000        0x4 build/Sercom/production/_ext/1664057780/asn.o
 .rodata.END_X509_CRL
                0x00000000        0x4 build/Sercom/production/_ext/1664057780/asn.o
 .rodata.blkAes128CbcOid
                0x00000000        0xc build/Sercom/production/_ext/1664057780/asn.o
 .rodata.blkAes128CcmOid
                0x00000000        0xc build/Sercom/production/_ext/1664057780/asn.o
 .rodata.blkAes128GcmOid
                0x00000000        0xc build/Sercom/production/_ext/1664057780/asn.o
 .rodata.blkAes192CbcOid
                0x00000000        0xc build/Sercom/production/_ext/1664057780/asn.o
 .rodata.blkAes192CcmOid
                0x00000000        0xc build/Sercom/production/_ext/1664057780/asn.o
 .rodata.blkAes192GcmOid
                0x00000000        0xc build/Sercom/production/_ext/1664057780/asn.o
 .rodata.blkAes256CbcOid
                0x00000000        0xc build/Sercom/production/_ext/1664057780/asn.o
 .rodata.blkAes256CcmOid
                0x00000000        0xc build/Sercom/production/_ext/1664057780/asn.o
 .rodata.blkAes256GcmOid
                0x00000000        0xc build/Sercom/production/_ext/1664057780/asn.o
 .rodata.blkDes3CbcOid
                0x00000000        0x8 build/Sercom/production/_ext/1664057780/asn.o
 .rodata.blkDesCbcOid
                0x00000000        0x8 build/Sercom/production/_ext/1664057780/asn.o
 .rodata.dhSinglePass_stdDH_sha1kdf_Oid
                0x00000000        0xc build/Sercom/production/_ext/1664057780/asn.o
 .rodata.dhSinglePass_stdDH_sha224kdf_Oid
                0x00000000        0x8 build/Sercom/production/_ext/1664057780/asn.o
 .rodata.dhSinglePass_stdDH_sha256kdf_Oid
                0x00000000        0x8 build/Sercom/production/_ext/1664057780/asn.o
 .rodata.extAltNamesHwNameOid
                0x00000000        0x8 build/Sercom/production/_ext/1664057780/asn.o
 .rodata.extAltNamesOid
                0x00000000        0x4 build/Sercom/production/_ext/1664057780/asn.o
 .rodata.extAuthInfoCaIssuerOid
                0x00000000        0x8 build/Sercom/production/_ext/1664057780/asn.o
 .rodata.extAuthInfoOcspOid
                0x00000000        0x8 build/Sercom/production/_ext/1664057780/asn.o
 .rodata.extAuthInfoOid
                0x00000000        0x8 build/Sercom/production/_ext/1664057780/asn.o
 .rodata.extAuthKeyOid
                0x00000000        0x4 build/Sercom/production/_ext/1664057780/asn.o
 .rodata.extBasicCaOid
                0x00000000        0x4 build/Sercom/production/_ext/1664057780/asn.o
 .rodata.extCertPolicyAnyOid
                0x00000000        0x4 build/Sercom/production/_ext/1664057780/asn.o
 .rodata.extCertPolicyOid
                0x00000000        0x4 build/Sercom/production/_ext/1664057780/asn.o
 .rodata.extCrlDistOid
                0x00000000        0x4 build/Sercom/production/_ext/1664057780/asn.o
 .rodata.extExtKeyUsageAnyOid
                0x00000000        0x4 build/Sercom/production/_ext/1664057780/asn.o
 .rodata.extExtKeyUsageClientAuthOid
                0x00000000        0x8 build/Sercom/production/_ext/1664057780/asn.o
 .rodata.extExtKeyUsageCodeSigningOid
                0x00000000        0x8 build/Sercom/production/_ext/1664057780/asn.o
 .rodata.extExtKeyUsageEmailProtectOid
                0x00000000        0x8 build/Sercom/production/_ext/1664057780/asn.o
 .rodata.extExtKeyUsageOcspSignOid
                0x00000000        0x8 build/Sercom/production/_ext/1664057780/asn.o
 .rodata.extExtKeyUsageOid
                0x00000000        0x4 build/Sercom/production/_ext/1664057780/asn.o
 .rodata.extExtKeyUsageServerAuthOid
                0x00000000        0x8 build/Sercom/production/_ext/1664057780/asn.o
 .rodata.extExtKeyUsageTimestampOid
                0x00000000        0x8 build/Sercom/production/_ext/1664057780/asn.o
 .rodata.extInhibitAnyOid
                0x00000000        0x4 build/Sercom/production/_ext/1664057780/asn.o
 .rodata.extKeyUsageOid
                0x00000000        0x4 build/Sercom/production/_ext/1664057780/asn.o
 .rodata.extNameConsOid
                0x00000000        0x4 build/Sercom/production/_ext/1664057780/asn.o
 .rodata.extSubjKeyOid
                0x00000000        0x4 build/Sercom/production/_ext/1664057780/asn.o
 .rodata.hashMd5hOid
                0x00000000        0x8 build/Sercom/production/_ext/1664057780/asn.o
 .rodata.hashSha1hOid
                0x00000000        0x8 build/Sercom/production/_ext/1664057780/asn.o
 .rodata.hashSha224hOid
                0x00000000        0xc build/Sercom/production/_ext/1664057780/asn.o
 .rodata.hashSha256hOid
                0x00000000        0xc build/Sercom/production/_ext/1664057780/asn.o
 .rodata.hmacSha224Oid
                0x00000000        0x8 build/Sercom/production/_ext/1664057780/asn.o
 .rodata.hmacSha256Oid
                0x00000000        0x8 build/Sercom/production/_ext/1664057780/asn.o
 .rodata.keyEcdsaOid
                0x00000000        0x8 build/Sercom/production/_ext/1664057780/asn.o
 .rodata.keyRsaOid
                0x00000000        0xc build/Sercom/production/_ext/1664057780/asn.o
 .rodata.pbeMd5Des
                0x00000000        0xc build/Sercom/production/_ext/1664057780/asn.o
 .rodata.pbeSha1Des
                0x00000000        0xc build/Sercom/production/_ext/1664057780/asn.o
 .rodata.pbeSha1Des3
                0x00000000        0xc build/Sercom/production/_ext/1664057780/asn.o
 .rodata.pbes2  0x00000000        0xc build/Sercom/production/_ext/1664057780/asn.o
 .rodata.pbkdf2Oid
                0x00000000        0xc build/Sercom/production/_ext/1664057780/asn.o
 .rodata.pem_struct_min_sz
                0x00000000        0x4 build/Sercom/production/_ext/1664057780/asn.o
 .rodata.sigMd5wRsaName
                0x00000000       0x18 build/Sercom/production/_ext/1664057780/asn.o
 .rodata.sigMd5wRsaOid
                0x00000000        0xc build/Sercom/production/_ext/1664057780/asn.o
 .rodata.sigSha1wEcdsaName
                0x00000000        0xc build/Sercom/production/_ext/1664057780/asn.o
 .rodata.sigSha1wEcdsaOid
                0x00000000        0x8 build/Sercom/production/_ext/1664057780/asn.o
 .rodata.sigSha1wRsaName
                0x00000000       0x18 build/Sercom/production/_ext/1664057780/asn.o
 .rodata.sigSha1wRsaOid
                0x00000000        0xc build/Sercom/production/_ext/1664057780/asn.o
 .rodata.sigSha224wEcdsaName
                0x00000000       0x10 build/Sercom/production/_ext/1664057780/asn.o
 .rodata.sigSha224wEcdsaOid
                0x00000000        0x8 build/Sercom/production/_ext/1664057780/asn.o
 .rodata.sigSha224wRsaName
                0x00000000       0x18 build/Sercom/production/_ext/1664057780/asn.o
 .rodata.sigSha224wRsaOid
                0x00000000        0xc build/Sercom/production/_ext/1664057780/asn.o
 .rodata.sigSha256wEcdsaName
                0x00000000       0x10 build/Sercom/production/_ext/1664057780/asn.o
 .rodata.sigSha256wEcdsaOid
                0x00000000        0x8 build/Sercom/production/_ext/1664057780/asn.o
 .rodata.sigSha256wRsaName
                0x00000000       0x18 build/Sercom/production/_ext/1664057780/asn.o
 .rodata.sigSha256wRsaOid
                0x00000000        0xc build/Sercom/production/_ext/1664057780/asn.o
 .rodata.sigUnknownName
                0x00000000        0x8 build/Sercom/production/_ext/1664057780/asn.o
 .rodata.wrapAes128Oid
                0x00000000        0xc build/Sercom/production/_ext/1664057780/asn.o
 .rodata.wrapAes192Oid
                0x00000000        0xc build/Sercom/production/_ext/1664057780/asn.o
 .rodata.wrapAes256Oid
                0x00000000        0xc build/Sercom/production/_ext/1664057780/asn.o
 .debug_info    0x00000000    0x11caa build/Sercom/production/_ext/1664057780/asn.o
 .debug_abbrev  0x00000000      0x66f build/Sercom/production/_ext/1664057780/asn.o
 .debug_loc     0x00000000     0xf83e build/Sercom/production/_ext/1664057780/asn.o
 .debug_aranges
                0x00000000      0x3d0 build/Sercom/production/_ext/1664057780/asn.o
 .debug_ranges  0x00000000      0xac8 build/Sercom/production/_ext/1664057780/asn.o
 .debug_line    0x00000000     0x650a build/Sercom/production/_ext/1664057780/asn.o
 .debug_str     0x00000000      0x451 build/Sercom/production/_ext/1664057780/asn.o
 .comment       0x00000000       0x2c build/Sercom/production/_ext/1664057780/asn.o
 .debug_frame   0x00000000      0xde8 build/Sercom/production/_ext/1664057780/asn.o
 .ARM.attributes
                0x00000000       0x30 build/Sercom/production/_ext/1664057780/asn.o
 .text          0x00000000        0x0 build/Sercom/production/_ext/1664057780/kdf.o
 .data          0x00000000        0x0 build/Sercom/production/_ext/1664057780/kdf.o
 .bss           0x00000000        0x0 build/Sercom/production/_ext/1664057780/kdf.o
 .debug_info    0x00000000      0x30d build/Sercom/production/_ext/1664057780/kdf.o
 .debug_abbrev  0x00000000       0x1b build/Sercom/production/_ext/1664057780/kdf.o
 .debug_aranges
                0x00000000       0x18 build/Sercom/production/_ext/1664057780/kdf.o
 .debug_line    0x00000000       0x1d build/Sercom/production/_ext/1664057780/kdf.o
 .debug_str     0x00000000        0x0 build/Sercom/production/_ext/1664057780/kdf.o
 .comment       0x00000000       0x2c build/Sercom/production/_ext/1664057780/kdf.o
 .ARM.attributes
                0x00000000       0x32 build/Sercom/production/_ext/1664057780/kdf.o
 .text          0x00000000        0x0 build/Sercom/production/_ext/1664057780/rsa.o
 .data          0x00000000        0x0 build/Sercom/production/_ext/1664057780/rsa.o
 .bss           0x00000000        0x0 build/Sercom/production/_ext/1664057780/rsa.o
 .text.wc_RsaCleanup
                0x00000000       0x5c build/Sercom/production/_ext/1664057780/rsa.o
 .text.RsaMGF1  0x00000000       0xe8 build/Sercom/production/_ext/1664057780/rsa.o
 .text.RsaMGF   0x00000000       0x48 build/Sercom/production/_ext/1664057780/rsa.o
 .text.RsaPad_OAEP
                0x00000000      0x1e0 build/Sercom/production/_ext/1664057780/rsa.o
 .text.RsaUnPad_OAEP
                0x00000000      0x1bc build/Sercom/production/_ext/1664057780/rsa.o
 .text.RsaGetValue
                0x00000000       0x28 build/Sercom/production/_ext/1664057780/rsa.o
 .text.wc_InitRsaKey_ex
                0x00000000       0x96 build/Sercom/production/_ext/1664057780/rsa.o
 .text.wc_InitRsaKey
                0x00000000        0xc build/Sercom/production/_ext/1664057780/rsa.o
 .text.wc_InitRsaKey_Id
                0x00000000       0x46 build/Sercom/production/_ext/1664057780/rsa.o
 .text.wc_InitRsaKey_Label
                0x00000000       0x5e build/Sercom/production/_ext/1664057780/rsa.o
 .text.wc_FreeRsaKey
                0x00000000       0xaa build/Sercom/production/_ext/1664057780/rsa.o
 .text.wc_RsaPad_ex
                0x00000000       0xe6 build/Sercom/production/_ext/1664057780/rsa.o
 .text.wc_RsaUnPad_ex
                0x00000000      0x126 build/Sercom/production/_ext/1664057780/rsa.o
 .text.wc_hash2mgf
                0x00000000       0x1e build/Sercom/production/_ext/1664057780/rsa.o
 .text.wc_RsaEncryptSize
                0x00000000       0x22 build/Sercom/production/_ext/1664057780/rsa.o
 .text.wc_RsaFunction_ex
                0x00000000      0x358 build/Sercom/production/_ext/1664057780/rsa.o
 .text.wc_RsaFunction
                0x00000000       0x1c build/Sercom/production/_ext/1664057780/rsa.o
 .text.RsaPrivateDecryptEx
                0x00000000      0x220 build/Sercom/production/_ext/1664057780/rsa.o
 .text.wc_RsaPrivateDecryptInline
                0x00000000       0x2c build/Sercom/production/_ext/1664057780/rsa.o
 .text.wc_RsaPrivateDecryptInline_ex
                0x00000000       0x38 build/Sercom/production/_ext/1664057780/rsa.o
 .text.wc_RsaPrivateDecrypt
                0x00000000       0x2a build/Sercom/production/_ext/1664057780/rsa.o
 .text.wc_RsaPrivateDecrypt_ex
                0x00000000       0x36 build/Sercom/production/_ext/1664057780/rsa.o
 .text.wc_RsaSSL_VerifyInline
                0x00000000       0x2a build/Sercom/production/_ext/1664057780/rsa.o
 .text.wc_RsaSSL_Verify_ex2
                0x00000000       0x52 build/Sercom/production/_ext/1664057780/rsa.o
 .text.wc_RsaSSL_Verify_ex
                0x00000000       0x18 build/Sercom/production/_ext/1664057780/rsa.o
 .text.wc_RsaSSL_Verify
                0x00000000       0x14 build/Sercom/production/_ext/1664057780/rsa.o
 .text.RsaPublicEncryptEx
                0x00000000      0x15e build/Sercom/production/_ext/1664057780/rsa.o
 .text.wc_RsaPublicEncrypt
                0x00000000       0x28 build/Sercom/production/_ext/1664057780/rsa.o
 .text.wc_RsaPublicEncrypt_ex
                0x00000000       0x34 build/Sercom/production/_ext/1664057780/rsa.o
 .text.wc_RsaSSL_Sign
                0x00000000       0x2a build/Sercom/production/_ext/1664057780/rsa.o
 .text.wc_RsaFlattenPublicKey
                0x00000000       0x9c build/Sercom/production/_ext/1664057780/rsa.o
 .text.wc_RsaExportKey
                0x00000000       0xca build/Sercom/production/_ext/1664057780/rsa.o
 .debug_info    0x00000000     0x50fe build/Sercom/production/_ext/1664057780/rsa.o
 .debug_abbrev  0x00000000      0x410 build/Sercom/production/_ext/1664057780/rsa.o
 .debug_loc     0x00000000     0x4fdb build/Sercom/production/_ext/1664057780/rsa.o
 .debug_aranges
                0x00000000      0x118 build/Sercom/production/_ext/1664057780/rsa.o
 .debug_ranges  0x00000000      0x488 build/Sercom/production/_ext/1664057780/rsa.o
 .debug_line    0x00000000     0x16bb build/Sercom/production/_ext/1664057780/rsa.o
 .debug_str     0x00000000      0x192 build/Sercom/production/_ext/1664057780/rsa.o
 .comment       0x00000000       0x2c build/Sercom/production/_ext/1664057780/rsa.o
 .debug_frame   0x00000000      0x408 build/Sercom/production/_ext/1664057780/rsa.o
 .ARM.attributes
                0x00000000       0x30 build/Sercom/production/_ext/1664057780/rsa.o
 .text          0x00000000        0x0 build/Sercom/production/_ext/1664057780/sp_c32.o
 .data          0x00000000        0x0 build/Sercom/production/_ext/1664057780/sp_c32.o
 .bss           0x00000000        0x0 build/Sercom/production/_ext/1664057780/sp_c32.o
 .debug_info    0x00000000      0x310 build/Sercom/production/_ext/1664057780/sp_c32.o
 .debug_abbrev  0x00000000       0x1b build/Sercom/production/_ext/1664057780/sp_c32.o
 .debug_aranges
                0x00000000       0x18 build/Sercom/production/_ext/1664057780/sp_c32.o
 .debug_line    0x00000000       0x1d build/Sercom/production/_ext/1664057780/sp_c32.o
 .debug_str     0x00000000        0x0 build/Sercom/production/_ext/1664057780/sp_c32.o
 .comment       0x00000000       0x2c build/Sercom/production/_ext/1664057780/sp_c32.o
 .ARM.attributes
                0x00000000       0x32 build/Sercom/production/_ext/1664057780/sp_c32.o
 .text          0x00000000        0x0 build/Sercom/production/_ext/1664057780/dsa.o
 .data          0x00000000        0x0 build/Sercom/production/_ext/1664057780/dsa.o
 .bss           0x00000000        0x0 build/Sercom/production/_ext/1664057780/dsa.o
 .debug_info    0x00000000      0x30d build/Sercom/production/_ext/1664057780/dsa.o
 .debug_abbrev  0x00000000       0x1b build/Sercom/production/_ext/1664057780/dsa.o
 .debug_aranges
                0x00000000       0x18 build/Sercom/production/_ext/1664057780/dsa.o
 .debug_line    0x00000000       0x1d build/Sercom/production/_ext/1664057780/dsa.o
 .debug_str     0x00000000        0x0 build/Sercom/production/_ext/1664057780/dsa.o
 .comment       0x00000000       0x2c build/Sercom/production/_ext/1664057780/dsa.o
 .ARM.attributes
                0x00000000       0x32 build/Sercom/production/_ext/1664057780/dsa.o
 .text          0x00000000        0x0 build/Sercom/production/_ext/1664057780/md2.o
 .data          0x00000000        0x0 build/Sercom/production/_ext/1664057780/md2.o
 .bss           0x00000000        0x0 build/Sercom/production/_ext/1664057780/md2.o
 .debug_info    0x00000000      0x30d build/Sercom/production/_ext/1664057780/md2.o
 .debug_abbrev  0x00000000       0x1b build/Sercom/production/_ext/1664057780/md2.o
 .debug_aranges
                0x00000000       0x18 build/Sercom/production/_ext/1664057780/md2.o
 .debug_line    0x00000000       0x1d build/Sercom/production/_ext/1664057780/md2.o
 .debug_str     0x00000000        0x0 build/Sercom/production/_ext/1664057780/md2.o
 .comment       0x00000000       0x2c build/Sercom/production/_ext/1664057780/md2.o
 .ARM.attributes
                0x00000000       0x32 build/Sercom/production/_ext/1664057780/md2.o
 .text          0x00000000        0x0 build/Sercom/production/_ext/1664057780/integer.o
 .data          0x00000000        0x0 build/Sercom/production/_ext/1664057780/integer.o
 .bss           0x00000000        0x0 build/Sercom/production/_ext/1664057780/integer.o
 .debug_info    0x00000000      0x311 build/Sercom/production/_ext/1664057780/integer.o
 .debug_abbrev  0x00000000       0x1b build/Sercom/production/_ext/1664057780/integer.o
 .debug_aranges
                0x00000000       0x18 build/Sercom/production/_ext/1664057780/integer.o
 .debug_line    0x00000000       0x1d build/Sercom/production/_ext/1664057780/integer.o
 .debug_str     0x00000000        0x0 build/Sercom/production/_ext/1664057780/integer.o
 .comment       0x00000000       0x2c build/Sercom/production/_ext/1664057780/integer.o
 .ARM.attributes
                0x00000000       0x32 build/Sercom/production/_ext/1664057780/integer.o
 .text          0x00000000        0x0 build/Sercom/production/_ext/1664057780/sp_armthumb.o
 .data          0x00000000        0x0 build/Sercom/production/_ext/1664057780/sp_armthumb.o
 .bss           0x00000000        0x0 build/Sercom/production/_ext/1664057780/sp_armthumb.o
 .debug_info    0x00000000      0x315 build/Sercom/production/_ext/1664057780/sp_armthumb.o
 .debug_abbrev  0x00000000       0x1b build/Sercom/production/_ext/1664057780/sp_armthumb.o
 .debug_aranges
                0x00000000       0x18 build/Sercom/production/_ext/1664057780/sp_armthumb.o
 .debug_line    0x00000000       0x1d build/Sercom/production/_ext/1664057780/sp_armthumb.o
 .debug_str     0x00000000        0x0 build/Sercom/production/_ext/1664057780/sp_armthumb.o
 .comment       0x00000000       0x2c build/Sercom/production/_ext/1664057780/sp_armthumb.o
 .ARM.attributes
                0x00000000       0x32 build/Sercom/production/_ext/1664057780/sp_armthumb.o
 .text          0x00000000        0x0 build/Sercom/production/_ext/1664057780/wc_port.o
 .data          0x00000000        0x0 build/Sercom/production/_ext/1664057780/wc_port.o
 .bss           0x00000000        0x0 build/Sercom/production/_ext/1664057780/wc_port.o
 .text.wolfCrypt_Init
                0x00000000       0x26 build/Sercom/production/_ext/1664057780/wc_port.o
 .text.wolfCrypt_Cleanup
                0x00000000       0x30 build/Sercom/production/_ext/1664057780/wc_port.o
 .text.wc_InitAndAllocMutex
                0x00000000        0xa build/Sercom/production/_ext/1664057780/wc_port.o
 .text.wc_strtok
                0x00000000       0x7e build/Sercom/production/_ext/1664057780/wc_port.o
 .text.wc_strsep
                0x00000000       0x3c build/Sercom/production/_ext/1664057780/wc_port.o
 .text.wc_strlcpy
                0x00000000       0x34 build/Sercom/production/_ext/1664057780/wc_port.o
 .text.wc_strlcat
                0x00000000       0x30 build/Sercom/production/_ext/1664057780/wc_port.o
 .text.wc_InitMutex
                0x00000000        0x4 build/Sercom/production/_ext/1664057780/wc_port.o
 .text.wc_FreeMutex
                0x00000000        0x4 build/Sercom/production/_ext/1664057780/wc_port.o
 .text.wc_LockMutex
                0x00000000        0x4 build/Sercom/production/_ext/1664057780/wc_port.o
 .text.wc_UnLockMutex
                0x00000000        0x4 build/Sercom/production/_ext/1664057780/wc_port.o
 .text.mystrnstr
                0x00000000       0x5c build/Sercom/production/_ext/1664057780/wc_port.o
 .bss.initRefCount
                0x00000000        0x4 build/Sercom/production/_ext/1664057780/wc_port.o
 .debug_info    0x00000000     0x11c9 build/Sercom/production/_ext/1664057780/wc_port.o
 .debug_abbrev  0x00000000      0x217 build/Sercom/production/_ext/1664057780/wc_port.o
 .debug_loc     0x00000000      0x7bb build/Sercom/production/_ext/1664057780/wc_port.o
 .debug_aranges
                0x00000000       0x78 build/Sercom/production/_ext/1664057780/wc_port.o
 .debug_ranges  0x00000000       0x68 build/Sercom/production/_ext/1664057780/wc_port.o
 .debug_line    0x00000000      0x518 build/Sercom/production/_ext/1664057780/wc_port.o
 .debug_str     0x00000000       0x11 build/Sercom/production/_ext/1664057780/wc_port.o
 .comment       0x00000000       0x2c build/Sercom/production/_ext/1664057780/wc_port.o
 .debug_frame   0x00000000      0x12c build/Sercom/production/_ext/1664057780/wc_port.o
 .ARM.attributes
                0x00000000       0x30 build/Sercom/production/_ext/1664057780/wc_port.o
 .text          0x00000000        0x0 build/Sercom/production/_ext/1664057780/sha3.o
 .data          0x00000000        0x0 build/Sercom/production/_ext/1664057780/sha3.o
 .bss           0x00000000        0x0 build/Sercom/production/_ext/1664057780/sha3.o
 .debug_info    0x00000000      0x30e build/Sercom/production/_ext/1664057780/sha3.o
 .debug_abbrev  0x00000000       0x1b build/Sercom/production/_ext/1664057780/sha3.o
 .debug_aranges
                0x00000000       0x18 build/Sercom/production/_ext/1664057780/sha3.o
 .debug_line    0x00000000       0x1d build/Sercom/production/_ext/1664057780/sha3.o
 .debug_str     0x00000000        0x0 build/Sercom/production/_ext/1664057780/sha3.o
 .comment       0x00000000       0x2c build/Sercom/production/_ext/1664057780/sha3.o
 .ARM.attributes
                0x00000000       0x32 build/Sercom/production/_ext/1664057780/sha3.o
 .text          0x00000000        0x0 build/Sercom/production/_ext/1664057780/sha512.o
 .data          0x00000000        0x0 build/Sercom/production/_ext/1664057780/sha512.o
 .bss           0x00000000        0x0 build/Sercom/production/_ext/1664057780/sha512.o
 .debug_info    0x00000000      0x310 build/Sercom/production/_ext/1664057780/sha512.o
 .debug_abbrev  0x00000000       0x1b build/Sercom/production/_ext/1664057780/sha512.o
 .debug_aranges
                0x00000000       0x18 build/Sercom/production/_ext/1664057780/sha512.o
 .debug_line    0x00000000       0x1d build/Sercom/production/_ext/1664057780/sha512.o
 .debug_str     0x00000000        0x0 build/Sercom/production/_ext/1664057780/sha512.o
 .comment       0x00000000       0x2c build/Sercom/production/_ext/1664057780/sha512.o
 .ARM.attributes
                0x00000000       0x32 build/Sercom/production/_ext/1664057780/sha512.o
 .text          0x00000000        0x0 build/Sercom/production/_ext/1664057780/curve25519.o
 .data          0x00000000        0x0 build/Sercom/production/_ext/1664057780/curve25519.o
 .bss           0x00000000        0x0 build/Sercom/production/_ext/1664057780/curve25519.o
 .debug_info    0x00000000      0x314 build/Sercom/production/_ext/1664057780/curve25519.o
 .debug_abbrev  0x00000000       0x1b build/Sercom/production/_ext/1664057780/curve25519.o
 .debug_aranges
                0x00000000       0x18 build/Sercom/production/_ext/1664057780/curve25519.o
 .debug_line    0x00000000       0x1d build/Sercom/production/_ext/1664057780/curve25519.o
 .debug_str     0x00000000        0x0 build/Sercom/production/_ext/1664057780/curve25519.o
 .comment       0x00000000       0x2c build/Sercom/production/_ext/1664057780/curve25519.o
 .ARM.attributes
                0x00000000       0x32 build/Sercom/production/_ext/1664057780/curve25519.o
 .text          0x00000000        0x0 build/Sercom/production/_ext/1664057780/aes.o
 .data          0x00000000        0x0 build/Sercom/production/_ext/1664057780/aes.o
 .bss           0x00000000        0x0 build/Sercom/production/_ext/1664057780/aes.o
 .text.col_mul  0x00000000       0x3a build/Sercom/production/_ext/1664057780/aes.o
 .text.inv_col_mul
                0x00000000       0x5e build/Sercom/production/_ext/1664057780/aes.o
 .text.GMULT    0x00000000       0xec build/Sercom/production/_ext/1664057780/aes.o
 .text.wc_AesEncrypt
                0x00000000      0x438 build/Sercom/production/_ext/1664057780/aes.o
 .text.wc_AesDecrypt
                0x00000000      0x450 build/Sercom/production/_ext/1664057780/aes.o
 .text.roll_x   0x00000000       0x9c build/Sercom/production/_ext/1664057780/aes.o
 .text.roll_auth
                0x00000000       0xe0 build/Sercom/production/_ext/1664057780/aes.o
 .text.wc_AesSetIV
                0x00000000       0x2e build/Sercom/production/_ext/1664057780/aes.o
 .text.wc_AesSetKeyLocal
                0x00000000      0x2ce build/Sercom/production/_ext/1664057780/aes.o
 .text.wc_AesSetKey
                0x00000000       0x26 build/Sercom/production/_ext/1664057780/aes.o
 .text.wc_AesSetKeyDirect
                0x00000000       0x26 build/Sercom/production/_ext/1664057780/aes.o
 .text.wc_AesEncryptDirect
                0x00000000        0xe build/Sercom/production/_ext/1664057780/aes.o
 .text.wc_AesDecryptDirect
                0x00000000        0xe build/Sercom/production/_ext/1664057780/aes.o
 .text.wc_AesCbcEncrypt
                0x00000000       0xd4 build/Sercom/production/_ext/1664057780/aes.o
 .text.wc_AesCbcDecrypt
                0x00000000       0xf4 build/Sercom/production/_ext/1664057780/aes.o
 .text.wc_AesGcmSetKey
                0x00000000       0x72 build/Sercom/production/_ext/1664057780/aes.o
 .text.GHASH    0x00000000      0x3be build/Sercom/production/_ext/1664057780/aes.o
 .text.wc_AesGcmSetExtIV
                0x00000000       0x54 build/Sercom/production/_ext/1664057780/aes.o
 .text.wc_AesGcmSetIV
                0x00000000       0x86 build/Sercom/production/_ext/1664057780/aes.o
 .text.wc_GmacSetKey
                0x00000000       0x18 build/Sercom/production/_ext/1664057780/aes.o
 .text.wc_AesCcmSetKey
                0x00000000       0x24 build/Sercom/production/_ext/1664057780/aes.o
 .text.wc_AesCcmCheckTagSize
                0x00000000       0x20 build/Sercom/production/_ext/1664057780/aes.o
 .text.wc_AesCcmEncrypt
                0x00000000      0x3e8 build/Sercom/production/_ext/1664057780/aes.o
 .text.wc_AesCcmDecrypt
                0x00000000      0x464 build/Sercom/production/_ext/1664057780/aes.o
 .text.wc_AesCcmSetNonce
                0x00000000       0x40 build/Sercom/production/_ext/1664057780/aes.o
 .text.wc_AesCcmEncrypt_ex
                0x00000000       0xd4 build/Sercom/production/_ext/1664057780/aes.o
 .text.wc_AesInit
                0x00000000       0x1c build/Sercom/production/_ext/1664057780/aes.o
 .text.wc_AesInit_Id
                0x00000000       0x44 build/Sercom/production/_ext/1664057780/aes.o
 .text.wc_AesInit_Label
                0x00000000       0x66 build/Sercom/production/_ext/1664057780/aes.o
 .text.wc_AesFree
                0x00000000       0x18 build/Sercom/production/_ext/1664057780/aes.o
 .text.wc_AesGetKeySize
                0x00000000       0x42 build/Sercom/production/_ext/1664057780/aes.o
 .text.wc_AesEcbEncrypt
                0x00000000       0x68 build/Sercom/production/_ext/1664057780/aes.o
 .text.wc_AesCtrEncrypt
                0x00000000      0x2d8 build/Sercom/production/_ext/1664057780/aes.o
 .text.wc_AesGcmEncrypt
                0x00000000      0x31c build/Sercom/production/_ext/1664057780/aes.o
 .text.wc_AesGcmEncrypt_ex
                0x00000000       0xd8 build/Sercom/production/_ext/1664057780/aes.o
 .text.wc_Gmac  0x00000000       0xbe build/Sercom/production/_ext/1664057780/aes.o
 .text.wc_GmacUpdate
                0x00000000       0x2c build/Sercom/production/_ext/1664057780/aes.o
 .text.wc_AesGcmDecrypt
                0x00000000      0x34c build/Sercom/production/_ext/1664057780/aes.o
 .text.wc_GmacVerify
                0x00000000       0x9e build/Sercom/production/_ext/1664057780/aes.o
 .text.wc_AesEcbDecrypt
                0x00000000       0x68 build/Sercom/production/_ext/1664057780/aes.o
 .text.wc_AesOfbEncrypt
                0x00000000      0x170 build/Sercom/production/_ext/1664057780/aes.o
 .text.wc_AesOfbDecrypt
                0x00000000      0x192 build/Sercom/production/_ext/1664057780/aes.o
 .rodata.Td4    0x00000000      0x100 build/Sercom/production/_ext/1664057780/aes.o
 .rodata.Tsbox  0x00000000      0x100 build/Sercom/production/_ext/1664057780/aes.o
 .rodata.rcon   0x00000000       0x28 build/Sercom/production/_ext/1664057780/aes.o
 .debug_info    0x00000000     0x8e02 build/Sercom/production/_ext/1664057780/aes.o
 .debug_abbrev  0x00000000      0x535 build/Sercom/production/_ext/1664057780/aes.o
 .debug_loc     0x00000000     0xc11c build/Sercom/production/_ext/1664057780/aes.o
 .debug_aranges
                0x00000000      0x168 build/Sercom/production/_ext/1664057780/aes.o
 .debug_ranges  0x00000000      0xd48 build/Sercom/production/_ext/1664057780/aes.o
 .debug_line    0x00000000     0x3d3c build/Sercom/production/_ext/1664057780/aes.o
 .debug_str     0x00000000      0x19b build/Sercom/production/_ext/1664057780/aes.o
 .comment       0x00000000       0x2c build/Sercom/production/_ext/1664057780/aes.o
 .debug_frame   0x00000000      0x574 build/Sercom/production/_ext/1664057780/aes.o
 .ARM.attributes
                0x00000000       0x30 build/Sercom/production/_ext/1664057780/aes.o
 .text          0x00000000        0x0 build/Sercom/production/_ext/1664057780/sha256.o
 .data          0x00000000        0x0 build/Sercom/production/_ext/1664057780/sha256.o
 .bss           0x00000000        0x0 build/Sercom/production/_ext/1664057780/sha256.o
 .text.Transform_Sha256
                0x00000000      0x560 build/Sercom/production/_ext/1664057780/sha256.o
 .text.wc_InitSha256_ex
                0x00000000       0x7a build/Sercom/production/_ext/1664057780/sha256.o
 .text.wc_Sha256Update
                0x00000000      0x150 build/Sercom/production/_ext/1664057780/sha256.o
 .text.wc_Sha256FinalRaw
                0x00000000       0x50 build/Sercom/production/_ext/1664057780/sha256.o
 .text.wc_Sha256Final
                0x00000000      0x1c0 build/Sercom/production/_ext/1664057780/sha256.o
 .text.wc_InitSha224_ex
                0x00000000       0x6a build/Sercom/production/_ext/1664057780/sha256.o
 .text.wc_Sha224Update
                0x00000000      0x13a build/Sercom/production/_ext/1664057780/sha256.o
 .text.wc_Sha224Final
                0x00000000      0x19a build/Sercom/production/_ext/1664057780/sha256.o
 .text.wc_InitSha224
                0x00000000       0x14 build/Sercom/production/_ext/1664057780/sha256.o
 .text.wc_Sha224Free
                0x00000000        0x2 build/Sercom/production/_ext/1664057780/sha256.o
 .text.wc_InitSha256
                0x00000000       0x14 build/Sercom/production/_ext/1664057780/sha256.o
 .text.wc_Sha256Free
                0x00000000        0x2 build/Sercom/production/_ext/1664057780/sha256.o
 .text.wc_Sha224Copy
                0x00000000       0x2a build/Sercom/production/_ext/1664057780/sha256.o
 .text.wc_Sha224GetHash
                0x00000000       0x36 build/Sercom/production/_ext/1664057780/sha256.o
 .text.wc_Sha224SetFlags
                0x00000000        0x8 build/Sercom/production/_ext/1664057780/sha256.o
 .text.wc_Sha224GetFlags
                0x00000000        0xc build/Sercom/production/_ext/1664057780/sha256.o
 .text.wc_Sha256Copy
                0x00000000       0x2a build/Sercom/production/_ext/1664057780/sha256.o
 .text.wc_Sha256GetHash
                0x00000000       0x2c build/Sercom/production/_ext/1664057780/sha256.o
 .text.wc_Sha256SetFlags
                0x00000000        0x8 build/Sercom/production/_ext/1664057780/sha256.o
 .text.wc_Sha256GetFlags
                0x00000000        0xc build/Sercom/production/_ext/1664057780/sha256.o
 .rodata.K      0x00000000      0x100 build/Sercom/production/_ext/1664057780/sha256.o
 .debug_info    0x00000000     0x3e60 build/Sercom/production/_ext/1664057780/sha256.o
 .debug_abbrev  0x00000000      0x3ec build/Sercom/production/_ext/1664057780/sha256.o
 .debug_loc     0x00000000     0x28da build/Sercom/production/_ext/1664057780/sha256.o
 .debug_aranges
                0x00000000       0xb8 build/Sercom/production/_ext/1664057780/sha256.o
 .debug_ranges  0x00000000      0x908 build/Sercom/production/_ext/1664057780/sha256.o
 .debug_line    0x00000000     0x1406 build/Sercom/production/_ext/1664057780/sha256.o
 .debug_str     0x00000000       0x54 build/Sercom/production/_ext/1664057780/sha256.o
 .comment       0x00000000       0x2c build/Sercom/production/_ext/1664057780/sha256.o
 .debug_frame   0x00000000      0x228 build/Sercom/production/_ext/1664057780/sha256.o
 .ARM.attributes
                0x00000000       0x30 build/Sercom/production/_ext/1664057780/sha256.o
 .text          0x00000000        0x0 build/Sercom/production/_ext/1664057780/coding.o
 .data          0x00000000        0x0 build/Sercom/production/_ext/1664057780/coding.o
 .bss           0x00000000        0x0 build/Sercom/production/_ext/1664057780/coding.o
 .text.Base64_SkipNewline
                0x00000000       0xa8 build/Sercom/production/_ext/1664057780/coding.o
 .text.Base64_Decode
                0x00000000      0x2ec build/Sercom/production/_ext/1664057780/coding.o
 .rodata.base64Decode
                0x00000000       0x50 build/Sercom/production/_ext/1664057780/coding.o
 .debug_info    0x00000000     0x1bc7 build/Sercom/production/_ext/1664057780/coding.o
 .debug_abbrev  0x00000000      0x1ce build/Sercom/production/_ext/1664057780/coding.o
 .debug_loc     0x00000000      0xde8 build/Sercom/production/_ext/1664057780/coding.o
 .debug_aranges
                0x00000000       0x28 build/Sercom/production/_ext/1664057780/coding.o
 .debug_ranges  0x00000000       0x58 build/Sercom/production/_ext/1664057780/coding.o
 .debug_line    0x00000000      0x4d6 build/Sercom/production/_ext/1664057780/coding.o
 .debug_str     0x00000000        0x0 build/Sercom/production/_ext/1664057780/coding.o
 .comment       0x00000000       0x2c build/Sercom/production/_ext/1664057780/coding.o
 .debug_frame   0x00000000       0x5c build/Sercom/production/_ext/1664057780/coding.o
 .ARM.attributes
                0x00000000       0x30 build/Sercom/production/_ext/1664057780/coding.o
 .text          0x00000000        0x0 build/Sercom/production/_ext/1664057780/compress.o
 .data          0x00000000        0x0 build/Sercom/production/_ext/1664057780/compress.o
 .bss           0x00000000        0x0 build/Sercom/production/_ext/1664057780/compress.o
 .debug_info    0x00000000      0x312 build/Sercom/production/_ext/1664057780/compress.o
 .debug_abbrev  0x00000000       0x1b build/Sercom/production/_ext/1664057780/compress.o
 .debug_aranges
                0x00000000       0x18 build/Sercom/production/_ext/1664057780/compress.o
 .debug_line    0x00000000       0x1d build/Sercom/production/_ext/1664057780/compress.o
 .debug_str     0x00000000        0x0 build/Sercom/production/_ext/1664057780/compress.o
 .comment       0x00000000       0x2c build/Sercom/production/_ext/1664057780/compress.o
 .ARM.attributes
                0x00000000       0x32 build/Sercom/production/_ext/1664057780/compress.o
 .text          0x00000000        0x0 build/Sercom/production/_ext/1664057780/wolfevent.o
 .data          0x00000000        0x0 build/Sercom/production/_ext/1664057780/wolfevent.o
 .bss           0x00000000        0x0 build/Sercom/production/_ext/1664057780/wolfevent.o
 .debug_info    0x00000000      0x313 build/Sercom/production/_ext/1664057780/wolfevent.o
 .debug_abbrev  0x00000000       0x1b build/Sercom/production/_ext/1664057780/wolfevent.o
 .debug_aranges
                0x00000000       0x18 build/Sercom/production/_ext/1664057780/wolfevent.o
 .debug_line    0x00000000       0x1d build/Sercom/production/_ext/1664057780/wolfevent.o
 .debug_str     0x00000000        0x0 build/Sercom/production/_ext/1664057780/wolfevent.o
 .comment       0x00000000       0x2c build/Sercom/production/_ext/1664057780/wolfevent.o
 .ARM.attributes
                0x00000000       0x32 build/Sercom/production/_ext/1664057780/wolfevent.o
 .text          0x00000000        0x0 build/Sercom/production/_ext/1664057780/md5.o
 .data          0x00000000        0x0 build/Sercom/production/_ext/1664057780/md5.o
 .bss           0x00000000        0x0 build/Sercom/production/_ext/1664057780/md5.o
 .text.Transform
                0x00000000      0x8c4 build/Sercom/production/_ext/1664057780/md5.o
 .text.wc_InitMd5_ex
                0x00000000       0x40 build/Sercom/production/_ext/1664057780/md5.o
 .text.wc_Md5Update
                0x00000000       0xe6 build/Sercom/production/_ext/1664057780/md5.o
 .text.wc_Md5Final
                0x00000000       0xcc build/Sercom/production/_ext/1664057780/md5.o
 .text.wc_InitMd5
                0x00000000       0x16 build/Sercom/production/_ext/1664057780/md5.o
 .text.wc_Md5Free
                0x00000000        0x2 build/Sercom/production/_ext/1664057780/md5.o
 .text.wc_Md5Copy
                0x00000000       0x2a build/Sercom/production/_ext/1664057780/md5.o
 .text.wc_Md5GetHash
                0x00000000       0x2c build/Sercom/production/_ext/1664057780/md5.o
 .text.wc_Md5SetFlags
                0x00000000        0x8 build/Sercom/production/_ext/1664057780/md5.o
 .text.wc_Md5GetFlags
                0x00000000        0xc build/Sercom/production/_ext/1664057780/md5.o
 .debug_info    0x00000000     0x2550 build/Sercom/production/_ext/1664057780/md5.o
 .debug_abbrev  0x00000000      0x2e6 build/Sercom/production/_ext/1664057780/md5.o
 .debug_loc     0x00000000     0x2e4c build/Sercom/production/_ext/1664057780/md5.o
 .debug_aranges
                0x00000000       0x68 build/Sercom/production/_ext/1664057780/md5.o
 .debug_ranges  0x00000000      0x670 build/Sercom/production/_ext/1664057780/md5.o
 .debug_line    0x00000000      0xf54 build/Sercom/production/_ext/1664057780/md5.o
 .debug_str     0x00000000        0x0 build/Sercom/production/_ext/1664057780/md5.o
 .comment       0x00000000       0x2c build/Sercom/production/_ext/1664057780/md5.o
 .debug_frame   0x00000000      0x108 build/Sercom/production/_ext/1664057780/md5.o
 .ARM.attributes
                0x00000000       0x30 build/Sercom/production/_ext/1664057780/md5.o
 .text          0x00000000        0x0 build/Sercom/production/_ext/1664057780/blake2b.o
 .data          0x00000000        0x0 build/Sercom/production/_ext/1664057780/blake2b.o
 .bss           0x00000000        0x0 build/Sercom/production/_ext/1664057780/blake2b.o
 .debug_info    0x00000000      0x311 build/Sercom/production/_ext/1664057780/blake2b.o
 .debug_abbrev  0x00000000       0x1b build/Sercom/production/_ext/1664057780/blake2b.o
 .debug_aranges
                0x00000000       0x18 build/Sercom/production/_ext/1664057780/blake2b.o
 .debug_line    0x00000000       0x1d build/Sercom/production/_ext/1664057780/blake2b.o
 .debug_str     0x00000000        0x0 build/Sercom/production/_ext/1664057780/blake2b.o
 .comment       0x00000000       0x2c build/Sercom/production/_ext/1664057780/blake2b.o
 .ARM.attributes
                0x00000000       0x32 build/Sercom/production/_ext/1664057780/blake2b.o
 .text          0x00000000        0x0 build/Sercom/production/_ext/1664057780/md4.o
 .data          0x00000000        0x0 build/Sercom/production/_ext/1664057780/md4.o
 .bss           0x00000000        0x0 build/Sercom/production/_ext/1664057780/md4.o
 .debug_info    0x00000000      0x30d build/Sercom/production/_ext/1664057780/md4.o
 .debug_abbrev  0x00000000       0x1b build/Sercom/production/_ext/1664057780/md4.o
 .debug_aranges
                0x00000000       0x18 build/Sercom/production/_ext/1664057780/md4.o
 .debug_line    0x00000000       0x1d build/Sercom/production/_ext/1664057780/md4.o
 .debug_str     0x00000000        0x0 build/Sercom/production/_ext/1664057780/md4.o
 .comment       0x00000000       0x2c build/Sercom/production/_ext/1664057780/md4.o
 .ARM.attributes
                0x00000000       0x32 build/Sercom/production/_ext/1664057780/md4.o
 .text          0x00000000        0x0 build/Sercom/production/_ext/1664057780/dh.o
 .data          0x00000000        0x0 build/Sercom/production/_ext/1664057780/dh.o
 .bss           0x00000000        0x0 build/Sercom/production/_ext/1664057780/dh.o
 .debug_info    0x00000000      0x30c build/Sercom/production/_ext/1664057780/dh.o
 .debug_abbrev  0x00000000       0x1b build/Sercom/production/_ext/1664057780/dh.o
 .debug_aranges
                0x00000000       0x18 build/Sercom/production/_ext/1664057780/dh.o
 .debug_line    0x00000000       0x1d build/Sercom/production/_ext/1664057780/dh.o
 .debug_str     0x00000000        0x0 build/Sercom/production/_ext/1664057780/dh.o
 .comment       0x00000000       0x2c build/Sercom/production/_ext/1664057780/dh.o
 .ARM.attributes
                0x00000000       0x32 build/Sercom/production/_ext/1664057780/dh.o
 .text          0x00000000        0x0 build/Sercom/production/_ext/1664057780/ge_low_mem.o
 .data          0x00000000        0x0 build/Sercom/production/_ext/1664057780/ge_low_mem.o
 .bss           0x00000000        0x0 build/Sercom/production/_ext/1664057780/ge_low_mem.o
 .debug_info    0x00000000      0x314 build/Sercom/production/_ext/1664057780/ge_low_mem.o
 .debug_abbrev  0x00000000       0x1b build/Sercom/production/_ext/1664057780/ge_low_mem.o
 .debug_aranges
                0x00000000       0x18 build/Sercom/production/_ext/1664057780/ge_low_mem.o
 .debug_line    0x00000000       0x1d build/Sercom/production/_ext/1664057780/ge_low_mem.o
 .debug_str     0x00000000        0x0 build/Sercom/production/_ext/1664057780/ge_low_mem.o
 .comment       0x00000000       0x2c build/Sercom/production/_ext/1664057780/ge_low_mem.o
 .ARM.attributes
                0x00000000       0x32 build/Sercom/production/_ext/1664057780/ge_low_mem.o
 .text          0x00000000        0x0 build/Sercom/production/_ext/1664057780/pkcs12.o
 .data          0x00000000        0x0 build/Sercom/production/_ext/1664057780/pkcs12.o
 .bss           0x00000000        0x0 build/Sercom/production/_ext/1664057780/pkcs12.o
 .debug_info    0x00000000      0x310 build/Sercom/production/_ext/1664057780/pkcs12.o
 .debug_abbrev  0x00000000       0x1b build/Sercom/production/_ext/1664057780/pkcs12.o
 .debug_aranges
                0x00000000       0x18 build/Sercom/production/_ext/1664057780/pkcs12.o
 .debug_line    0x00000000       0x1d build/Sercom/production/_ext/1664057780/pkcs12.o
 .debug_str     0x00000000        0x0 build/Sercom/production/_ext/1664057780/pkcs12.o
 .comment       0x00000000       0x2c build/Sercom/production/_ext/1664057780/pkcs12.o
 .ARM.attributes
                0x00000000       0x32 build/Sercom/production/_ext/1664057780/pkcs12.o
 .text          0x00000000        0x0 build/Sercom/production/_ext/1664057780/rc2.o
 .data          0x00000000        0x0 build/Sercom/production/_ext/1664057780/rc2.o
 .bss           0x00000000        0x0 build/Sercom/production/_ext/1664057780/rc2.o
 .debug_info    0x00000000      0x30d build/Sercom/production/_ext/1664057780/rc2.o
 .debug_abbrev  0x00000000       0x1b build/Sercom/production/_ext/1664057780/rc2.o
 .debug_aranges
                0x00000000       0x18 build/Sercom/production/_ext/1664057780/rc2.o
 .debug_line    0x00000000       0x1d build/Sercom/production/_ext/1664057780/rc2.o
 .debug_str     0x00000000        0x0 build/Sercom/production/_ext/1664057780/rc2.o
 .comment       0x00000000       0x2c build/Sercom/production/_ext/1664057780/rc2.o
 .ARM.attributes
                0x00000000       0x32 build/Sercom/production/_ext/1664057780/rc2.o
 .text          0x00000000        0x0 build/Sercom/production/_ext/1664057780/fe_low_mem.o
 .data          0x00000000        0x0 build/Sercom/production/_ext/1664057780/fe_low_mem.o
 .bss           0x00000000        0x0 build/Sercom/production/_ext/1664057780/fe_low_mem.o
 .debug_info    0x00000000      0x314 build/Sercom/production/_ext/1664057780/fe_low_mem.o
 .debug_abbrev  0x00000000       0x1b build/Sercom/production/_ext/1664057780/fe_low_mem.o
 .debug_aranges
                0x00000000       0x18 build/Sercom/production/_ext/1664057780/fe_low_mem.o
 .debug_line    0x00000000       0x1d build/Sercom/production/_ext/1664057780/fe_low_mem.o
 .debug_str     0x00000000        0x0 build/Sercom/production/_ext/1664057780/fe_low_mem.o
 .comment       0x00000000       0x2c build/Sercom/production/_ext/1664057780/fe_low_mem.o
 .ARM.attributes
                0x00000000       0x32 build/Sercom/production/_ext/1664057780/fe_low_mem.o
 .text          0x00000000        0x0 build/Sercom/production/_ext/1664057780/sakke.o
 .data          0x00000000        0x0 build/Sercom/production/_ext/1664057780/sakke.o
 .bss           0x00000000        0x0 build/Sercom/production/_ext/1664057780/sakke.o
 .debug_info    0x00000000      0x30f build/Sercom/production/_ext/1664057780/sakke.o
 .debug_abbrev  0x00000000       0x1b build/Sercom/production/_ext/1664057780/sakke.o
 .debug_aranges
                0x00000000       0x18 build/Sercom/production/_ext/1664057780/sakke.o
 .debug_line    0x00000000       0x1d build/Sercom/production/_ext/1664057780/sakke.o
 .debug_str     0x00000000        0x0 build/Sercom/production/_ext/1664057780/sakke.o
 .comment       0x00000000       0x2c build/Sercom/production/_ext/1664057780/sakke.o
 .ARM.attributes
                0x00000000       0x32 build/Sercom/production/_ext/1664057780/sakke.o
 .text          0x00000000        0x0 build/Sercom/production/_ext/1664057780/memory.o
 .data          0x00000000        0x0 build/Sercom/production/_ext/1664057780/memory.o
 .bss           0x00000000        0x0 build/Sercom/production/_ext/1664057780/memory.o
 .debug_info    0x00000000      0x310 build/Sercom/production/_ext/1664057780/memory.o
 .debug_abbrev  0x00000000       0x1b build/Sercom/production/_ext/1664057780/memory.o
 .debug_aranges
                0x00000000       0x18 build/Sercom/production/_ext/1664057780/memory.o
 .debug_line    0x00000000       0x1d build/Sercom/production/_ext/1664057780/memory.o
 .debug_str     0x00000000        0x0 build/Sercom/production/_ext/1664057780/memory.o
 .comment       0x00000000       0x2c build/Sercom/production/_ext/1664057780/memory.o
 .ARM.attributes
                0x00000000       0x32 build/Sercom/production/_ext/1664057780/memory.o
 .text          0x00000000        0x0 build/Sercom/production/_ext/1664057780/sha.o
 .data          0x00000000        0x0 build/Sercom/production/_ext/1664057780/sha.o
 .bss           0x00000000        0x0 build/Sercom/production/_ext/1664057780/sha.o
 .text.Transform
                0x00000000     0x14c8 build/Sercom/production/_ext/1664057780/sha.o
 .text.wc_InitSha_ex
                0x00000000       0x4e build/Sercom/production/_ext/1664057780/sha.o
 .text.wc_ShaUpdate
                0x00000000      0x174 build/Sercom/production/_ext/1664057780/sha.o
 .text.wc_ShaFinalRaw
                0x00000000       0x52 build/Sercom/production/_ext/1664057780/sha.o
 .text.wc_ShaFinal
                0x00000000      0x19c build/Sercom/production/_ext/1664057780/sha.o
 .text.wc_InitSha
                0x00000000        0xe build/Sercom/production/_ext/1664057780/sha.o
 .text.wc_ShaFree
                0x00000000        0x2 build/Sercom/production/_ext/1664057780/sha.o
 .text.wc_ShaCopy
                0x00000000       0x2a build/Sercom/production/_ext/1664057780/sha.o
 .text.wc_ShaGetHash
                0x00000000       0x2c build/Sercom/production/_ext/1664057780/sha.o
 .text.wc_ShaSetFlags
                0x00000000        0x8 build/Sercom/production/_ext/1664057780/sha.o
 .text.wc_ShaGetFlags
                0x00000000        0xc build/Sercom/production/_ext/1664057780/sha.o
 .debug_info    0x00000000     0x4b9c build/Sercom/production/_ext/1664057780/sha.o
 .debug_abbrev  0x00000000      0x318 build/Sercom/production/_ext/1664057780/sha.o
 .debug_loc     0x00000000     0x6026 build/Sercom/production/_ext/1664057780/sha.o
 .debug_aranges
                0x00000000       0x70 build/Sercom/production/_ext/1664057780/sha.o
 .debug_ranges  0x00000000      0xf88 build/Sercom/production/_ext/1664057780/sha.o
 .debug_line    0x00000000     0x2367 build/Sercom/production/_ext/1664057780/sha.o
 .debug_str     0x00000000       0x14 build/Sercom/production/_ext/1664057780/sha.o
 .comment       0x00000000       0x2c build/Sercom/production/_ext/1664057780/sha.o
 .debug_frame   0x00000000      0x13c build/Sercom/production/_ext/1664057780/sha.o
 .ARM.attributes
                0x00000000       0x30 build/Sercom/production/_ext/1664057780/sha.o
 .text          0x00000000        0x0 build/Sercom/production/_ext/1664057780/wc_dsp.o
 .data          0x00000000        0x0 build/Sercom/production/_ext/1664057780/wc_dsp.o
 .bss           0x00000000        0x0 build/Sercom/production/_ext/1664057780/wc_dsp.o
 .debug_info    0x00000000      0x310 build/Sercom/production/_ext/1664057780/wc_dsp.o
 .debug_abbrev  0x00000000       0x1b build/Sercom/production/_ext/1664057780/wc_dsp.o
 .debug_aranges
                0x00000000       0x18 build/Sercom/production/_ext/1664057780/wc_dsp.o
 .debug_line    0x00000000       0x1d build/Sercom/production/_ext/1664057780/wc_dsp.o
 .debug_str     0x00000000        0x0 build/Sercom/production/_ext/1664057780/wc_dsp.o
 .comment       0x00000000       0x2c build/Sercom/production/_ext/1664057780/wc_dsp.o
 .ARM.attributes
                0x00000000       0x32 build/Sercom/production/_ext/1664057780/wc_dsp.o
 .text          0x00000000        0x0 build/Sercom/production/_ext/1664057780/srp.o
 .data          0x00000000        0x0 build/Sercom/production/_ext/1664057780/srp.o
 .bss           0x00000000        0x0 build/Sercom/production/_ext/1664057780/srp.o
 .debug_info    0x00000000      0x30d build/Sercom/production/_ext/1664057780/srp.o
 .debug_abbrev  0x00000000       0x1b build/Sercom/production/_ext/1664057780/srp.o
 .debug_aranges
                0x00000000       0x18 build/Sercom/production/_ext/1664057780/srp.o
 .debug_line    0x00000000       0x1d build/Sercom/production/_ext/1664057780/srp.o
 .debug_str     0x00000000        0x0 build/Sercom/production/_ext/1664057780/srp.o
 .comment       0x00000000       0x2c build/Sercom/production/_ext/1664057780/srp.o
 .ARM.attributes
                0x00000000       0x32 build/Sercom/production/_ext/1664057780/srp.o
 .text          0x00000000        0x0 build/Sercom/production/_ext/1664057780/des3.o
 .data          0x00000000        0x0 build/Sercom/production/_ext/1664057780/des3.o
 .bss           0x00000000        0x0 build/Sercom/production/_ext/1664057780/des3.o
 .text.DesRawProcessBlock
                0x00000000      0x198 build/Sercom/production/_ext/1664057780/des3.o
 .text.DesSetKey
                0x00000000      0x174 build/Sercom/production/_ext/1664057780/des3.o
 .text.Des3ProcessBlock
                0x00000000      0x17e build/Sercom/production/_ext/1664057780/des3.o
 .text.DesProcessBlock
                0x00000000      0x164 build/Sercom/production/_ext/1664057780/des3.o
 .text.wc_Des_CbcEncrypt
                0x00000000       0x6a build/Sercom/production/_ext/1664057780/des3.o
 .text.wc_Des_CbcDecrypt
                0x00000000       0x82 build/Sercom/production/_ext/1664057780/des3.o
 .text.wc_Des3_CbcEncrypt
                0x00000000       0xcc build/Sercom/production/_ext/1664057780/des3.o
 .text.wc_Des3_CbcDecrypt
                0x00000000       0xd8 build/Sercom/production/_ext/1664057780/des3.o
 .text.wc_Des_SetIV
                0x00000000       0x18 build/Sercom/production/_ext/1664057780/des3.o
 .text.wc_Des_SetKey
                0x00000000       0x1c build/Sercom/production/_ext/1664057780/des3.o
 .text.wc_Des3_SetIV
                0x00000000       0x2a build/Sercom/production/_ext/1664057780/des3.o
 .text.wc_Des3_SetKey
                0x00000000       0xb2 build/Sercom/production/_ext/1664057780/des3.o
 .text.wc_Des3Init
                0x00000000       0x1c build/Sercom/production/_ext/1664057780/des3.o
 .text.wc_Des3Free
                0x00000000       0x18 build/Sercom/production/_ext/1664057780/des3.o
 .rodata.Spbox  0x00000000      0x800 build/Sercom/production/_ext/1664057780/des3.o
 .rodata.bytebit
                0x00000000       0x20 build/Sercom/production/_ext/1664057780/des3.o
 .rodata.pc1    0x00000000       0x38 build/Sercom/production/_ext/1664057780/des3.o
 .rodata.pc2    0x00000000       0x30 build/Sercom/production/_ext/1664057780/des3.o
 .rodata.totrot
                0x00000000       0x10 build/Sercom/production/_ext/1664057780/des3.o
 .debug_info    0x00000000     0x3497 build/Sercom/production/_ext/1664057780/des3.o
 .debug_abbrev  0x00000000      0x37f build/Sercom/production/_ext/1664057780/des3.o
 .debug_loc     0x00000000     0x2a17 build/Sercom/production/_ext/1664057780/des3.o
 .debug_aranges
                0x00000000       0x88 build/Sercom/production/_ext/1664057780/des3.o
 .debug_ranges  0x00000000      0x420 build/Sercom/production/_ext/1664057780/des3.o
 .debug_line    0x00000000     0x1028 build/Sercom/production/_ext/1664057780/des3.o
 .debug_str     0x00000000       0x37 build/Sercom/production/_ext/1664057780/des3.o
 .comment       0x00000000       0x2c build/Sercom/production/_ext/1664057780/des3.o
 .debug_frame   0x00000000      0x1e8 build/Sercom/production/_ext/1664057780/des3.o
 .ARM.attributes
                0x00000000       0x30 build/Sercom/production/_ext/1664057780/des3.o
 .text          0x00000000        0x0 build/Sercom/production/_ext/1664057780/curve448.o
 .data          0x00000000        0x0 build/Sercom/production/_ext/1664057780/curve448.o
 .bss           0x00000000        0x0 build/Sercom/production/_ext/1664057780/curve448.o
 .debug_info    0x00000000      0x312 build/Sercom/production/_ext/1664057780/curve448.o
 .debug_abbrev  0x00000000       0x1b build/Sercom/production/_ext/1664057780/curve448.o
 .debug_aranges
                0x00000000       0x18 build/Sercom/production/_ext/1664057780/curve448.o
 .debug_line    0x00000000       0x1d build/Sercom/production/_ext/1664057780/curve448.o
 .debug_str     0x00000000        0x0 build/Sercom/production/_ext/1664057780/curve448.o
 .comment       0x00000000       0x2c build/Sercom/production/_ext/1664057780/curve448.o
 .ARM.attributes
                0x00000000       0x32 build/Sercom/production/_ext/1664057780/curve448.o
 .text          0x00000000        0x0 build/Sercom/production/_ext/1664057780/signature.o
 .data          0x00000000        0x0 build/Sercom/production/_ext/1664057780/signature.o
 .bss           0x00000000        0x0 build/Sercom/production/_ext/1664057780/signature.o
 .debug_info    0x00000000      0x313 build/Sercom/production/_ext/1664057780/signature.o
 .debug_abbrev  0x00000000       0x1b build/Sercom/production/_ext/1664057780/signature.o
 .debug_aranges
                0x00000000       0x18 build/Sercom/production/_ext/1664057780/signature.o
 .debug_line    0x00000000       0x1d build/Sercom/production/_ext/1664057780/signature.o
 .debug_str     0x00000000        0x0 build/Sercom/production/_ext/1664057780/signature.o
 .comment       0x00000000       0x2c build/Sercom/production/_ext/1664057780/signature.o
 .ARM.attributes
                0x00000000       0x32 build/Sercom/production/_ext/1664057780/signature.o
 .text          0x00000000        0x0 build/Sercom/production/_ext/1664057780/hash.o
 .data          0x00000000        0x0 build/Sercom/production/_ext/1664057780/hash.o
 .bss           0x00000000        0x0 build/Sercom/production/_ext/1664057780/hash.o
 .text.wc_HashTypeConvert
                0x00000000       0x12 build/Sercom/production/_ext/1664057780/hash.o
 .text.wc_HashGetOID
                0x00000000       0x34 build/Sercom/production/_ext/1664057780/hash.o
 .rodata.wc_HashGetOID
                0x00000000       0x50 build/Sercom/production/_ext/1664057780/hash.o
 .text.wc_OidGetHash
                0x00000000       0x3c build/Sercom/production/_ext/1664057780/hash.o
 .text.wc_HashGetDigestSize
                0x00000000       0x30 build/Sercom/production/_ext/1664057780/hash.o
 .rodata.wc_HashGetDigestSize
                0x00000000       0x48 build/Sercom/production/_ext/1664057780/hash.o
 .text.wc_HashGetBlockSize
                0x00000000       0x24 build/Sercom/production/_ext/1664057780/hash.o
 .rodata.wc_HashGetBlockSize
                0x00000000       0x48 build/Sercom/production/_ext/1664057780/hash.o
 .text.wc_HashInit_ex
                0x00000000       0x54 build/Sercom/production/_ext/1664057780/hash.o
 .rodata.wc_HashInit_ex
                0x00000000       0x3c build/Sercom/production/_ext/1664057780/hash.o
 .text.wc_HashInit
                0x00000000        0xe build/Sercom/production/_ext/1664057780/hash.o
 .text.wc_HashUpdate
                0x00000000       0x60 build/Sercom/production/_ext/1664057780/hash.o
 .rodata.wc_HashUpdate
                0x00000000       0x3c build/Sercom/production/_ext/1664057780/hash.o
 .text.wc_HashFinal
                0x00000000       0x54 build/Sercom/production/_ext/1664057780/hash.o
 .rodata.wc_HashFinal
                0x00000000       0x3c build/Sercom/production/_ext/1664057780/hash.o
 .text.wc_HashFree
                0x00000000       0x4c build/Sercom/production/_ext/1664057780/hash.o
 .rodata.wc_HashFree
                0x00000000       0x3c build/Sercom/production/_ext/1664057780/hash.o
 .text.wc_HashSetFlags
                0x00000000       0x4c build/Sercom/production/_ext/1664057780/hash.o
 .rodata.wc_HashSetFlags
                0x00000000       0x3c build/Sercom/production/_ext/1664057780/hash.o
 .text.wc_HashGetFlags
                0x00000000       0x4c build/Sercom/production/_ext/1664057780/hash.o
 .rodata.wc_HashGetFlags
                0x00000000       0x3c build/Sercom/production/_ext/1664057780/hash.o
 .text.wc_Md5Hash
                0x00000000       0x3c build/Sercom/production/_ext/1664057780/hash.o
 .text.wc_ShaHash
                0x00000000       0x56 build/Sercom/production/_ext/1664057780/hash.o
 .text.wc_Sha224Hash
                0x00000000       0x3c build/Sercom/production/_ext/1664057780/hash.o
 .text.wc_Sha256Hash
                0x00000000       0x56 build/Sercom/production/_ext/1664057780/hash.o
 .text.wc_Hash  0x00000000       0x84 build/Sercom/production/_ext/1664057780/hash.o
 .rodata.wc_Hash
                0x00000000       0x3c build/Sercom/production/_ext/1664057780/hash.o
 .debug_info    0x00000000     0x24d7 build/Sercom/production/_ext/1664057780/hash.o
 .debug_abbrev  0x00000000      0x2a2 build/Sercom/production/_ext/1664057780/hash.o
 .debug_loc     0x00000000     0x1b8f build/Sercom/production/_ext/1664057780/hash.o
 .debug_aranges
                0x00000000       0xa0 build/Sercom/production/_ext/1664057780/hash.o
 .debug_ranges  0x00000000       0x90 build/Sercom/production/_ext/1664057780/hash.o
 .debug_line    0x00000000      0x718 build/Sercom/production/_ext/1664057780/hash.o
 .debug_str     0x00000000      0x1e7 build/Sercom/production/_ext/1664057780/hash.o
 .comment       0x00000000       0x2c build/Sercom/production/_ext/1664057780/hash.o
 .debug_frame   0x00000000      0x1c0 build/Sercom/production/_ext/1664057780/hash.o
 .ARM.attributes
                0x00000000       0x30 build/Sercom/production/_ext/1664057780/hash.o
 .text          0x00000000        0x0 build/Sercom/production/_ext/1664057780/sp_x86_64.o
 .data          0x00000000        0x0 build/Sercom/production/_ext/1664057780/sp_x86_64.o
 .bss           0x00000000        0x0 build/Sercom/production/_ext/1664057780/sp_x86_64.o
 .debug_info    0x00000000      0x313 build/Sercom/production/_ext/1664057780/sp_x86_64.o
 .debug_abbrev  0x00000000       0x1b build/Sercom/production/_ext/1664057780/sp_x86_64.o
 .debug_aranges
                0x00000000       0x18 build/Sercom/production/_ext/1664057780/sp_x86_64.o
 .debug_line    0x00000000       0x1d build/Sercom/production/_ext/1664057780/sp_x86_64.o
 .debug_str     0x00000000        0x0 build/Sercom/production/_ext/1664057780/sp_x86_64.o
 .comment       0x00000000       0x2c build/Sercom/production/_ext/1664057780/sp_x86_64.o
 .ARM.attributes
                0x00000000       0x32 build/Sercom/production/_ext/1664057780/sp_x86_64.o
 .text          0x00000000        0x0 build/Sercom/production/_ext/1664057780/tfm.o
 .data          0x00000000        0x0 build/Sercom/production/_ext/1664057780/tfm.o
 .bss           0x00000000        0x0 build/Sercom/production/_ext/1664057780/tfm.o
 .text.fp_cond_swap_ct
                0x00000000       0xb0 build/Sercom/production/_ext/1664057780/tfm.o
 .text.CheckRunTimeSettings
                0x00000000        0x4 build/Sercom/production/_ext/1664057780/tfm.o
 .text.CheckRunTimeFastMath
                0x00000000        0x4 build/Sercom/production/_ext/1664057780/tfm.o
 .text.s_fp_add
                0x00000000      0x100 build/Sercom/production/_ext/1664057780/tfm.o
 .text.s_fp_sub
                0x00000000      0x122 build/Sercom/production/_ext/1664057780/tfm.o
 .text.fp_mul_2
                0x00000000       0x92 build/Sercom/production/_ext/1664057780/tfm.o
 .text.fp_mul_d
                0x00000000       0xf6 build/Sercom/production/_ext/1664057780/tfm.o
 .text.fp_div_2
                0x00000000       0xac build/Sercom/production/_ext/1664057780/tfm.o
 .text.fp_div_2_mod_ct
                0x00000000      0x114 build/Sercom/production/_ext/1664057780/tfm.o
 .text.fp_submod_ct
                0x00000000      0x152 build/Sercom/production/_ext/1664057780/tfm.o
 .text.fp_addmod_ct
                0x00000000      0x168 build/Sercom/production/_ext/1664057780/tfm.o
 .text.fp_cmp_d
                0x00000000       0x30 build/Sercom/production/_ext/1664057780/tfm.o
 .text.fp_cmp_mag
                0x00000000       0x58 build/Sercom/production/_ext/1664057780/tfm.o
 .text.fp_add   0x00000000       0x4c build/Sercom/production/_ext/1664057780/tfm.o
 .text.fp_sub   0x00000000       0x44 build/Sercom/production/_ext/1664057780/tfm.o
 .text.fp_cmp   0x00000000       0x34 build/Sercom/production/_ext/1664057780/tfm.o
 .text.fp_montgomery_setup
                0x00000000       0x36 build/Sercom/production/_ext/1664057780/tfm.o
 .text.fp_montgomery_reduce_ex
                0x00000000      0x1b4 build/Sercom/production/_ext/1664057780/tfm.o
 .text.fp_montgomery_reduce
                0x00000000        0xa build/Sercom/production/_ext/1664057780/tfm.o
 .text.fp_to_unsigned_bin_at_pos
                0x00000000       0x52 build/Sercom/production/_ext/1664057780/tfm.o
 .text.fp_to_unsigned_bin_len
                0x00000000       0x42 build/Sercom/production/_ext/1664057780/tfm.o
 .text.fp_is_bit_set
                0x00000000       0x2c build/Sercom/production/_ext/1664057780/tfm.o
 .text.fp_set_bit
                0x00000000       0x32 build/Sercom/production/_ext/1664057780/tfm.o
 .text.fp_count_bits
                0x00000000       0x1c build/Sercom/production/_ext/1664057780/tfm.o
 .text.fp_unsigned_bin_size
                0x00000000       0x1c build/Sercom/production/_ext/1664057780/tfm.o
 .text.fp_leading_bit
                0x00000000       0x2a build/Sercom/production/_ext/1664057780/tfm.o
 .text.fp_lshd  0x00000000       0x80 build/Sercom/production/_ext/1664057780/tfm.o
 .text.fp_reverse
                0x00000000       0x1c build/Sercom/production/_ext/1664057780/tfm.o
 .text.fp_zero  0x00000000       0x16 build/Sercom/production/_ext/1664057780/tfm.o
 .text.fp_2expt
                0x00000000       0x36 build/Sercom/production/_ext/1664057780/tfm.o
 .text.fp_read_unsigned_bin
                0x00000000       0x74 build/Sercom/production/_ext/1664057780/tfm.o
 .text.fp_set   0x00000000       0x14 build/Sercom/production/_ext/1664057780/tfm.o
 .text.fp_montgomery_calc_normalization
                0x00000000       0x6e build/Sercom/production/_ext/1664057780/tfm.o
 .text.fp_rshd  0x00000000       0x6c build/Sercom/production/_ext/1664057780/tfm.o
 .text.fp_rshb  0x00000000       0xac build/Sercom/production/_ext/1664057780/tfm.o
 .text.fp_init  0x00000000        0x8 build/Sercom/production/_ext/1664057780/tfm.o
 .text.mp_init  0x00000000        0xc build/Sercom/production/_ext/1664057780/tfm.o
 .text.fp_sub_d
                0x00000000       0x30 build/Sercom/production/_ext/1664057780/tfm.o
 .text.fp_clear
                0x00000000       0x16 build/Sercom/production/_ext/1664057780/tfm.o
 .text.fp_forcezero
                0x00000000       0x1c build/Sercom/production/_ext/1664057780/tfm.o
 .text.mp_forcezero
                0x00000000        0x8 build/Sercom/production/_ext/1664057780/tfm.o
 .text.fp_free  0x00000000        0x2 build/Sercom/production/_ext/1664057780/tfm.o
 .text.mp_clear
                0x00000000        0xa build/Sercom/production/_ext/1664057780/tfm.o
 .text.mp_free  0x00000000        0x2 build/Sercom/production/_ext/1664057780/tfm.o
 .text.mp_init_multi
                0x00000000       0x3e build/Sercom/production/_ext/1664057780/tfm.o
 .text.mp_add   0x00000000        0x8 build/Sercom/production/_ext/1664057780/tfm.o
 .text.mp_sub   0x00000000        0x8 build/Sercom/production/_ext/1664057780/tfm.o
 .text.mp_mul_d
                0x00000000        0x8 build/Sercom/production/_ext/1664057780/tfm.o
 .text.mp_submod_ct
                0x00000000        0x8 build/Sercom/production/_ext/1664057780/tfm.o
 .text.mp_addmod_ct
                0x00000000        0x8 build/Sercom/production/_ext/1664057780/tfm.o
 .text.mp_cmp   0x00000000        0x8 build/Sercom/production/_ext/1664057780/tfm.o
 .text.mp_cmp_d
                0x00000000        0x8 build/Sercom/production/_ext/1664057780/tfm.o
 .text.mp_unsigned_bin_size
                0x00000000        0x8 build/Sercom/production/_ext/1664057780/tfm.o
 .text.mp_to_unsigned_bin_at_pos
                0x00000000        0x8 build/Sercom/production/_ext/1664057780/tfm.o
 .text.mp_to_unsigned_bin_len
                0x00000000        0x8 build/Sercom/production/_ext/1664057780/tfm.o
 .text.mp_read_unsigned_bin
                0x00000000        0x8 build/Sercom/production/_ext/1664057780/tfm.o
 .text.mp_sub_d
                0x00000000        0x8 build/Sercom/production/_ext/1664057780/tfm.o
 .text.mp_2expt
                0x00000000        0xa build/Sercom/production/_ext/1664057780/tfm.o
 .text.fp_copy  0x00000000       0x22 build/Sercom/production/_ext/1664057780/tfm.o
 .text.fp_mul_2d
                0x00000000       0xc2 build/Sercom/production/_ext/1664057780/tfm.o
 .text.fp_set_int
                0x00000000       0x6c build/Sercom/production/_ext/1664057780/tfm.o
 .text.mp_mul_2d
                0x00000000        0x8 build/Sercom/production/_ext/1664057780/tfm.o
 .text.fp_mul_comba
                0x00000000      0x1a0 build/Sercom/production/_ext/1664057780/tfm.o
 .text.fp_mul   0x00000000       0x4a build/Sercom/production/_ext/1664057780/tfm.o
 .text.mp_mul   0x00000000        0x8 build/Sercom/production/_ext/1664057780/tfm.o
 .text.fp_mod_2d
                0x00000000      0x11e build/Sercom/production/_ext/1664057780/tfm.o
 .text.fp_div_2d
                0x00000000       0xa4 build/Sercom/production/_ext/1664057780/tfm.o
 .text.mp_div_2d
                0x00000000        0xa build/Sercom/production/_ext/1664057780/tfm.o
 .text.fp_sqr_comba
                0x00000000      0x218 build/Sercom/production/_ext/1664057780/tfm.o
 .text.fp_sqr   0x00000000       0x38 build/Sercom/production/_ext/1664057780/tfm.o
 .text.fp_invmod_mont_ct
                0x00000000      0x220 build/Sercom/production/_ext/1664057780/tfm.o
 .text.mp_invmod_mont_ct
                0x00000000        0x8 build/Sercom/production/_ext/1664057780/tfm.o
 .text.fp_div_d
                0x00000000      0x170 build/Sercom/production/_ext/1664057780/tfm.o
 .text.fp_init_copy
                0x00000000       0x18 build/Sercom/production/_ext/1664057780/tfm.o
 .text.fp_div   0x00000000      0x4ac build/Sercom/production/_ext/1664057780/tfm.o
 .text.fp_mod   0x00000000       0x54 build/Sercom/production/_ext/1664057780/tfm.o
 .text.fp_mulmod
                0x00000000       0x38 build/Sercom/production/_ext/1664057780/tfm.o
 .text.mp_mulmod
                0x00000000        0x8 build/Sercom/production/_ext/1664057780/tfm.o
 .text.fp_submod
                0x00000000       0x38 build/Sercom/production/_ext/1664057780/tfm.o
 .text.mp_submod
                0x00000000        0x8 build/Sercom/production/_ext/1664057780/tfm.o
 .text.fp_addmod
                0x00000000       0x38 build/Sercom/production/_ext/1664057780/tfm.o
 .text.mp_addmod
                0x00000000        0x8 build/Sercom/production/_ext/1664057780/tfm.o
 .text._fp_exptmod_ct
                0x00000000      0x180 build/Sercom/production/_ext/1664057780/tfm.o
 .text._fp_exptmod_nct
                0x00000000      0x3a0 build/Sercom/production/_ext/1664057780/tfm.o
 .text.mp_mod   0x00000000        0x8 build/Sercom/production/_ext/1664057780/tfm.o
 .text.fp_invmod
                0x00000000      0x6e4 build/Sercom/production/_ext/1664057780/tfm.o
 .text.mp_invmod
                0x00000000        0x8 build/Sercom/production/_ext/1664057780/tfm.o
 .text.mp_div   0x00000000        0x8 build/Sercom/production/_ext/1664057780/tfm.o
 .text.fp_exptmod
                0x00000000      0x278 build/Sercom/production/_ext/1664057780/tfm.o
 .text.mp_exptmod
                0x00000000        0x8 build/Sercom/production/_ext/1664057780/tfm.o
 .text.fp_exptmod_ex
                0x00000000       0xf4 build/Sercom/production/_ext/1664057780/tfm.o
 .text.mp_exptmod_ex
                0x00000000       0x10 build/Sercom/production/_ext/1664057780/tfm.o
 .text.fp_exptmod_nct
                0x00000000       0x98 build/Sercom/production/_ext/1664057780/tfm.o
 .text.mp_exptmod_nct
                0x00000000        0x8 build/Sercom/production/_ext/1664057780/tfm.o
 .text.fp_to_unsigned_bin
                0x00000000       0x30 build/Sercom/production/_ext/1664057780/tfm.o
 .text.mp_to_unsigned_bin
                0x00000000        0x8 build/Sercom/production/_ext/1664057780/tfm.o
 .text.mp_init_copy
                0x00000000        0xa build/Sercom/production/_ext/1664057780/tfm.o
 .text.mp_copy  0x00000000        0xa build/Sercom/production/_ext/1664057780/tfm.o
 .text.mp_isodd
                0x00000000       0x12 build/Sercom/production/_ext/1664057780/tfm.o
 .text.mp_iszero
                0x00000000        0x8 build/Sercom/production/_ext/1664057780/tfm.o
 .text.mp_count_bits
                0x00000000        0x8 build/Sercom/production/_ext/1664057780/tfm.o
 .text.mp_leading_bit
                0x00000000        0x8 build/Sercom/production/_ext/1664057780/tfm.o
 .text.mp_rshb  0x00000000        0x8 build/Sercom/production/_ext/1664057780/tfm.o
 .text.mp_rshd  0x00000000        0x8 build/Sercom/production/_ext/1664057780/tfm.o
 .text.mp_set_int
                0x00000000        0x8 build/Sercom/production/_ext/1664057780/tfm.o
 .text.mp_is_bit_set
                0x00000000        0x8 build/Sercom/production/_ext/1664057780/tfm.o
 .text.mp_set_bit
                0x00000000        0x8 build/Sercom/production/_ext/1664057780/tfm.o
 .text.fp_sqrmod
                0x00000000       0x34 build/Sercom/production/_ext/1664057780/tfm.o
 .text.mp_sqrmod
                0x00000000        0x8 build/Sercom/production/_ext/1664057780/tfm.o
 .text.mp_montgomery_calc_normalization
                0x00000000        0x8 build/Sercom/production/_ext/1664057780/tfm.o
 .text.fp_cnt_lsb
                0x00000000       0x56 build/Sercom/production/_ext/1664057780/tfm.o
 .text.fp_prime_miller_rabin_ex
                0x00000000       0xdc build/Sercom/production/_ext/1664057780/tfm.o
 .text.fp_isprime_ex
                0x00000000      0x150 build/Sercom/production/_ext/1664057780/tfm.o
 .text.mp_mod_d
                0x00000000        0xc build/Sercom/production/_ext/1664057780/tfm.o
 .text.mp_prime_is_prime
                0x00000000        0x8 build/Sercom/production/_ext/1664057780/tfm.o
 .text.mp_prime_is_prime_ex
                0x00000000      0x258 build/Sercom/production/_ext/1664057780/tfm.o
 .text.mp_cond_swap_ct
                0x00000000        0x8 build/Sercom/production/_ext/1664057780/tfm.o
 .text.fp_add_d
                0x00000000       0x30 build/Sercom/production/_ext/1664057780/tfm.o
 .text.mp_add_d
                0x00000000        0x8 build/Sercom/production/_ext/1664057780/tfm.o
 .text.mp_read_radix
                0x00000000      0x18e build/Sercom/production/_ext/1664057780/tfm.o
 .text.mp_sqr   0x00000000        0x8 build/Sercom/production/_ext/1664057780/tfm.o
 .text.mp_montgomery_reduce
                0x00000000        0x8 build/Sercom/production/_ext/1664057780/tfm.o
 .text.mp_montgomery_reduce_ex
                0x00000000        0x8 build/Sercom/production/_ext/1664057780/tfm.o
 .text.mp_montgomery_setup
                0x00000000        0x8 build/Sercom/production/_ext/1664057780/tfm.o
 .text.mp_div_2
                0x00000000        0xa build/Sercom/production/_ext/1664057780/tfm.o
 .text.mp_div_2_mod_ct
                0x00000000        0x8 build/Sercom/production/_ext/1664057780/tfm.o
 .text.mp_set   0x00000000        0xa build/Sercom/production/_ext/1664057780/tfm.o
 .text.mp_radix_size
                0x00000000       0xd4 build/Sercom/production/_ext/1664057780/tfm.o
 .text.mp_toradix
                0x00000000       0xd8 build/Sercom/production/_ext/1664057780/tfm.o
 .text.mp_abs   0x00000000       0x10 build/Sercom/production/_ext/1664057780/tfm.o
 .text.mp_lshd  0x00000000        0x8 build/Sercom/production/_ext/1664057780/tfm.o
 .rodata        0x00000000       0x44 build/Sercom/production/_ext/1664057780/tfm.o
 .rodata.lnz    0x00000000       0x40 build/Sercom/production/_ext/1664057780/tfm.o
 .rodata.primes
                0x00000000      0x400 build/Sercom/production/_ext/1664057780/tfm.o
 .debug_info    0x00000000     0x8b98 build/Sercom/production/_ext/1664057780/tfm.o
 .debug_abbrev  0x00000000      0x4e0 build/Sercom/production/_ext/1664057780/tfm.o
 .debug_loc     0x00000000     0xba4b build/Sercom/production/_ext/1664057780/tfm.o
 .debug_aranges
                0x00000000      0x430 build/Sercom/production/_ext/1664057780/tfm.o
 .debug_ranges  0x00000000      0x610 build/Sercom/production/_ext/1664057780/tfm.o
 .debug_line    0x00000000     0x4366 build/Sercom/production/_ext/1664057780/tfm.o
 .debug_str     0x00000000       0x3f build/Sercom/production/_ext/1664057780/tfm.o
 .comment       0x00000000       0x2c build/Sercom/production/_ext/1664057780/tfm.o
 .debug_frame   0x00000000      0xecc build/Sercom/production/_ext/1664057780/tfm.o
 .ARM.attributes
                0x00000000       0x30 build/Sercom/production/_ext/1664057780/tfm.o
 .text          0x00000000        0x0 build/Sercom/production/_ext/1664057780/evp.o
 .data          0x00000000        0x0 build/Sercom/production/_ext/1664057780/evp.o
 .bss           0x00000000        0x0 build/Sercom/production/_ext/1664057780/evp.o
 .debug_info    0x00000000      0x30d build/Sercom/production/_ext/1664057780/evp.o
 .debug_abbrev  0x00000000       0x1b build/Sercom/production/_ext/1664057780/evp.o
 .debug_aranges
                0x00000000       0x18 build/Sercom/production/_ext/1664057780/evp.o
 .debug_line    0x00000000       0x1d build/Sercom/production/_ext/1664057780/evp.o
 .debug_str     0x00000000        0x0 build/Sercom/production/_ext/1664057780/evp.o
 .comment       0x00000000       0x2c build/Sercom/production/_ext/1664057780/evp.o
 .ARM.attributes
                0x00000000       0x32 build/Sercom/production/_ext/1664057780/evp.o
 .text          0x00000000        0x0 build/Sercom/production/_ext/1664057780/sp_arm64.o
 .data          0x00000000        0x0 build/Sercom/production/_ext/1664057780/sp_arm64.o
 .bss           0x00000000        0x0 build/Sercom/production/_ext/1664057780/sp_arm64.o
 .debug_info    0x00000000      0x312 build/Sercom/production/_ext/1664057780/sp_arm64.o
 .debug_abbrev  0x00000000       0x1b build/Sercom/production/_ext/1664057780/sp_arm64.o
 .debug_aranges
                0x00000000       0x18 build/Sercom/production/_ext/1664057780/sp_arm64.o
 .debug_line    0x00000000       0x1d build/Sercom/production/_ext/1664057780/sp_arm64.o
 .debug_str     0x00000000        0x0 build/Sercom/production/_ext/1664057780/sp_arm64.o
 .comment       0x00000000       0x2c build/Sercom/production/_ext/1664057780/sp_arm64.o
 .ARM.attributes
                0x00000000       0x32 build/Sercom/production/_ext/1664057780/sp_arm64.o
 .text          0x00000000        0x0 build/Sercom/production/_ext/1664057780/ge_448.o
 .data          0x00000000        0x0 build/Sercom/production/_ext/1664057780/ge_448.o
 .bss           0x00000000        0x0 build/Sercom/production/_ext/1664057780/ge_448.o
 .debug_info    0x00000000      0x310 build/Sercom/production/_ext/1664057780/ge_448.o
 .debug_abbrev  0x00000000       0x1b build/Sercom/production/_ext/1664057780/ge_448.o
 .debug_aranges
                0x00000000       0x18 build/Sercom/production/_ext/1664057780/ge_448.o
 .debug_line    0x00000000       0x1d build/Sercom/production/_ext/1664057780/ge_448.o
 .debug_str     0x00000000        0x0 build/Sercom/production/_ext/1664057780/ge_448.o
 .comment       0x00000000       0x2c build/Sercom/production/_ext/1664057780/ge_448.o
 .ARM.attributes
                0x00000000       0x32 build/Sercom/production/_ext/1664057780/ge_448.o
 .text          0x00000000        0x0 build/Sercom/production/_ext/1664057780/pwdbased.o
 .data          0x00000000        0x0 build/Sercom/production/_ext/1664057780/pwdbased.o
 .bss           0x00000000        0x0 build/Sercom/production/_ext/1664057780/pwdbased.o
 .debug_info    0x00000000      0x312 build/Sercom/production/_ext/1664057780/pwdbased.o
 .debug_abbrev  0x00000000       0x1b build/Sercom/production/_ext/1664057780/pwdbased.o
 .debug_aranges
                0x00000000       0x18 build/Sercom/production/_ext/1664057780/pwdbased.o
 .debug_line    0x00000000       0x1d build/Sercom/production/_ext/1664057780/pwdbased.o
 .debug_str     0x00000000        0x0 build/Sercom/production/_ext/1664057780/pwdbased.o
 .comment       0x00000000       0x2c build/Sercom/production/_ext/1664057780/pwdbased.o
 .ARM.attributes
                0x00000000       0x32 build/Sercom/production/_ext/1664057780/pwdbased.o
 .text          0x00000000        0x0 build/Sercom/production/_ext/1664057780/sp_int.o
 .data          0x00000000        0x0 build/Sercom/production/_ext/1664057780/sp_int.o
 .bss           0x00000000        0x0 build/Sercom/production/_ext/1664057780/sp_int.o
 .debug_info    0x00000000      0x310 build/Sercom/production/_ext/1664057780/sp_int.o
 .debug_abbrev  0x00000000       0x1b build/Sercom/production/_ext/1664057780/sp_int.o
 .debug_aranges
                0x00000000       0x18 build/Sercom/production/_ext/1664057780/sp_int.o
 .debug_line    0x00000000       0x1d build/Sercom/production/_ext/1664057780/sp_int.o
 .debug_str     0x00000000        0x0 build/Sercom/production/_ext/1664057780/sp_int.o
 .comment       0x00000000       0x2c build/Sercom/production/_ext/1664057780/sp_int.o
 .ARM.attributes
                0x00000000       0x32 build/Sercom/production/_ext/1664057780/sp_int.o
 .text          0x00000000        0x0 build/Sercom/production/_ext/1664057780/ge_operations.o
 .data          0x00000000        0x0 build/Sercom/production/_ext/1664057780/ge_operations.o
 .bss           0x00000000        0x0 build/Sercom/production/_ext/1664057780/ge_operations.o
 .debug_info    0x00000000      0x317 build/Sercom/production/_ext/1664057780/ge_operations.o
 .debug_abbrev  0x00000000       0x1b build/Sercom/production/_ext/1664057780/ge_operations.o
 .debug_aranges
                0x00000000       0x18 build/Sercom/production/_ext/1664057780/ge_operations.o
 .debug_line    0x00000000       0x1d build/Sercom/production/_ext/1664057780/ge_operations.o
 .debug_str     0x00000000        0x0 build/Sercom/production/_ext/1664057780/ge_operations.o
 .comment       0x00000000       0x2c build/Sercom/production/_ext/1664057780/ge_operations.o
 .ARM.attributes
                0x00000000       0x32 build/Sercom/production/_ext/1664057780/ge_operations.o
 .text          0x00000000        0x0 build/Sercom/production/_ext/1664057780/eccsi.o
 .data          0x00000000        0x0 build/Sercom/production/_ext/1664057780/eccsi.o
 .bss           0x00000000        0x0 build/Sercom/production/_ext/1664057780/eccsi.o
 .debug_info    0x00000000      0x30f build/Sercom/production/_ext/1664057780/eccsi.o
 .debug_abbrev  0x00000000       0x1b build/Sercom/production/_ext/1664057780/eccsi.o
 .debug_aranges
                0x00000000       0x18 build/Sercom/production/_ext/1664057780/eccsi.o
 .debug_line    0x00000000       0x1d build/Sercom/production/_ext/1664057780/eccsi.o
 .debug_str     0x00000000        0x0 build/Sercom/production/_ext/1664057780/eccsi.o
 .comment       0x00000000       0x2c build/Sercom/production/_ext/1664057780/eccsi.o
 .ARM.attributes
                0x00000000       0x32 build/Sercom/production/_ext/1664057780/eccsi.o
 .text          0x00000000        0x0 build/Sercom/production/_ext/1360937237/main.o
 .data          0x00000000        0x0 build/Sercom/production/_ext/1360937237/main.o
 .bss           0x00000000        0x0 build/Sercom/production/_ext/1360937237/main.o
 .text          0x00000000        0x0 build/Sercom/production/_ext/1360937237/app.o
 .data          0x00000000        0x0 build/Sercom/production/_ext/1360937237/app.o
 .bss           0x00000000        0x0 build/Sercom/production/_ext/1360937237/app.o
 .text          0x00000000        0x0 c:/program files/microchip/xc32/v4.21/bin/bin/../../lib/gcc/pic32c/8.3.1/../../../../pic32c/lib/thumb/v8-m.base/nofp\libpic32c.a(data_init_wrapper.o)
 .data          0x00000000        0x0 c:/program files/microchip/xc32/v4.21/bin/bin/../../lib/gcc/pic32c/8.3.1/../../../../pic32c/lib/thumb/v8-m.base/nofp\libpic32c.a(data_init_wrapper.o)
 .bss           0x00000000        0x0 c:/program files/microchip/xc32/v4.21/bin/bin/../../lib/gcc/pic32c/8.3.1/../../../../pic32c/lib/thumb/v8-m.base/nofp\libpic32c.a(data_init_wrapper.o)
 .xc_stack_usage
                0x00000000       0x2a c:/program files/microchip/xc32/v4.21/bin/bin/../../lib/gcc/pic32c/8.3.1/../../../../pic32c/lib/thumb/v8-m.base/nofp\libpic32c.a(data_init_wrapper.o)
 .xc_stack_usage.hdr
                0x00000000        0xe c:/program files/microchip/xc32/v4.21/bin/bin/../../lib/gcc/pic32c/8.3.1/../../../../pic32c/lib/thumb/v8-m.base/nofp\libpic32c.a(data_init_wrapper.o)
 .text          0x00000000        0x0 c:/program files/microchip/xc32/v4.21/bin/bin/../../lib/gcc/pic32c/8.3.1/../../../../pic32c/lib/thumb/v8-m.base/nofp\libpic32c.a(data_init_0_1.o)
 .data          0x00000000        0x0 c:/program files/microchip/xc32/v4.21/bin/bin/../../lib/gcc/pic32c/8.3.1/../../../../pic32c/lib/thumb/v8-m.base/nofp\libpic32c.a(data_init_0_1.o)
 .xc_stack_usage
                0x00000000       0x2f c:/program files/microchip/xc32/v4.21/bin/bin/../../lib/gcc/pic32c/8.3.1/../../../../pic32c/lib/thumb/v8-m.base/nofp\libpic32c.a(data_init_0_1.o)
 .xc_stack_usage.hdr
                0x00000000        0xe c:/program files/microchip/xc32/v4.21/bin/bin/../../lib/gcc/pic32c/8.3.1/../../../../pic32c/lib/thumb/v8-m.base/nofp\libpic32c.a(data_init_0_1.o)
 .text          0x00000000        0x0 c:/program files/microchip/xc32/v4.21/bin/bin/../../lib/gcc/pic32c/8.3.1/../../../../pic32c/lib/thumb/v8-m.base/nofp\libc-musl.a(tolower.o)
 .data          0x00000000        0x0 c:/program files/microchip/xc32/v4.21/bin/bin/../../lib/gcc/pic32c/8.3.1/../../../../pic32c/lib/thumb/v8-m.base/nofp\libc-musl.a(tolower.o)
 .bss           0x00000000        0x0 c:/program files/microchip/xc32/v4.21/bin/bin/../../lib/gcc/pic32c/8.3.1/../../../../pic32c/lib/thumb/v8-m.base/nofp\libc-musl.a(tolower.o)
 .xc_stack_usage
                0x00000000       0x2e c:/program files/microchip/xc32/v4.21/bin/bin/../../lib/gcc/pic32c/8.3.1/../../../../pic32c/lib/thumb/v8-m.base/nofp\libc-musl.a(tolower.o)
 .text.__tolower_l
                0x00000000        0x8 c:/program files/microchip/xc32/v4.21/bin/bin/../../lib/gcc/pic32c/8.3.1/../../../../pic32c/lib/thumb/v8-m.base/nofp\libc-musl.a(tolower.o)
 .xc_stack_usage.hdr
                0x00000000        0xe c:/program files/microchip/xc32/v4.21/bin/bin/../../lib/gcc/pic32c/8.3.1/../../../../pic32c/lib/thumb/v8-m.base/nofp\libc-musl.a(tolower.o)
 .text          0x00000000        0x0 c:/program files/microchip/xc32/v4.21/bin/bin/../../lib/gcc/pic32c/8.3.1/../../../../pic32c/lib/thumb/v8-m.base/nofp\libc-musl.a(toupper.o)
 .data          0x00000000        0x0 c:/program files/microchip/xc32/v4.21/bin/bin/../../lib/gcc/pic32c/8.3.1/../../../../pic32c/lib/thumb/v8-m.base/nofp\libc-musl.a(toupper.o)
 .bss           0x00000000        0x0 c:/program files/microchip/xc32/v4.21/bin/bin/../../lib/gcc/pic32c/8.3.1/../../../../pic32c/lib/thumb/v8-m.base/nofp\libc-musl.a(toupper.o)
 .xc_stack_usage
                0x00000000       0x2e c:/program files/microchip/xc32/v4.21/bin/bin/../../lib/gcc/pic32c/8.3.1/../../../../pic32c/lib/thumb/v8-m.base/nofp\libc-musl.a(toupper.o)
 .text.__toupper_l
                0x00000000        0x8 c:/program files/microchip/xc32/v4.21/bin/bin/../../lib/gcc/pic32c/8.3.1/../../../../pic32c/lib/thumb/v8-m.base/nofp\libc-musl.a(toupper.o)
 .xc_stack_usage.hdr
                0x00000000        0xe c:/program files/microchip/xc32/v4.21/bin/bin/../../lib/gcc/pic32c/8.3.1/../../../../pic32c/lib/thumb/v8-m.base/nofp\libc-musl.a(toupper.o)
 .text          0x00000000        0x0 c:/program files/microchip/xc32/v4.21/bin/bin/../../lib/gcc/pic32c/8.3.1/../../../../pic32c/lib/thumb/v8-m.base/nofp\libc-musl.a(__libc_start_main.o)
 .data          0x00000000        0x0 c:/program files/microchip/xc32/v4.21/bin/bin/../../lib/gcc/pic32c/8.3.1/../../../../pic32c/lib/thumb/v8-m.base/nofp\libc-musl.a(__libc_start_main.o)
 .bss           0x00000000        0x0 c:/program files/microchip/xc32/v4.21/bin/bin/../../lib/gcc/pic32c/8.3.1/../../../../pic32c/lib/thumb/v8-m.base/nofp\libc-musl.a(__libc_start_main.o)
 .xc_stack_usage
                0x00000000       0x34 c:/program files/microchip/xc32/v4.21/bin/bin/../../lib/gcc/pic32c/8.3.1/../../../../pic32c/lib/thumb/v8-m.base/nofp\libc-musl.a(__libc_start_main.o)
 .xc_stack_usage.hdr
                0x00000000        0xe c:/program files/microchip/xc32/v4.21/bin/bin/../../lib/gcc/pic32c/8.3.1/../../../../pic32c/lib/thumb/v8-m.base/nofp\libc-musl.a(__libc_start_main.o)
 .text          0x00000000        0x0 c:/program files/microchip/xc32/v4.21/bin/bin/../../lib/gcc/pic32c/8.3.1/../../../../pic32c/lib/thumb/v8-m.base/nofp\libc-musl.a(libc.o)
 .data          0x00000000        0x0 c:/program files/microchip/xc32/v4.21/bin/bin/../../lib/gcc/pic32c/8.3.1/../../../../pic32c/lib/thumb/v8-m.base/nofp\libc-musl.a(libc.o)
 .xc_stack_usage.hdr
                0x00000000        0xe c:/program files/microchip/xc32/v4.21/bin/bin/../../lib/gcc/pic32c/8.3.1/../../../../pic32c/lib/thumb/v8-m.base/nofp\libc-musl.a(libc.o)
 .text          0x00000000        0x0 c:/program files/microchip/xc32/v4.21/bin/bin/../../lib/gcc/pic32c/8.3.1/../../../../pic32c/lib/thumb/v8-m.base/nofp\libc-musl.a(malloc.o)
 .data          0x00000000        0x0 c:/program files/microchip/xc32/v4.21/bin/bin/../../lib/gcc/pic32c/8.3.1/../../../../pic32c/lib/thumb/v8-m.base/nofp\libc-musl.a(malloc.o)
 .xc_stack_usage
                0x00000000       0xeb c:/program files/microchip/xc32/v4.21/bin/bin/../../lib/gcc/pic32c/8.3.1/../../../../pic32c/lib/thumb/v8-m.base/nofp\libc-musl.a(malloc.o)
 .text.__malloc0
                0x00000000       0x26 c:/program files/microchip/xc32/v4.21/bin/bin/../../lib/gcc/pic32c/8.3.1/../../../../pic32c/lib/thumb/v8-m.base/nofp\libc-musl.a(malloc.o)
 .text.realloc  0x00000000       0x8a c:/program files/microchip/xc32/v4.21/bin/bin/../../lib/gcc/pic32c/8.3.1/../../../../pic32c/lib/thumb/v8-m.base/nofp\libc-musl.a(malloc.o)
 .xc_stack_usage.hdr
                0x00000000        0xe c:/program files/microchip/xc32/v4.21/bin/bin/../../lib/gcc/pic32c/8.3.1/../../../../pic32c/lib/thumb/v8-m.base/nofp\libc-musl.a(malloc.o)
 .text          0x00000000        0x0 c:/program files/microchip/xc32/v4.21/bin/bin/../../lib/gcc/pic32c/8.3.1/../../../../pic32c/lib/thumb/v8-m.base/nofp\libc-musl.a(expand_heap.o)
 .data          0x00000000        0x0 c:/program files/microchip/xc32/v4.21/bin/bin/../../lib/gcc/pic32c/8.3.1/../../../../pic32c/lib/thumb/v8-m.base/nofp\libc-musl.a(expand_heap.o)
 .bss           0x00000000        0x0 c:/program files/microchip/xc32/v4.21/bin/bin/../../lib/gcc/pic32c/8.3.1/../../../../pic32c/lib/thumb/v8-m.base/nofp\libc-musl.a(expand_heap.o)
 .xc_stack_usage
                0x00000000       0x1b c:/program files/microchip/xc32/v4.21/bin/bin/../../lib/gcc/pic32c/8.3.1/../../../../pic32c/lib/thumb/v8-m.base/nofp\libc-musl.a(expand_heap.o)
 .xc_stack_usage.hdr
                0x00000000        0xe c:/program files/microchip/xc32/v4.21/bin/bin/../../lib/gcc/pic32c/8.3.1/../../../../pic32c/lib/thumb/v8-m.base/nofp\libc-musl.a(expand_heap.o)
 .text          0x00000000        0x0 c:/program files/microchip/xc32/v4.21/bin/bin/../../lib/gcc/pic32c/8.3.1/../../../../pic32c/lib/thumb/v8-m.base/nofp\libc-musl.a(rand.o)
 .data          0x00000000        0x0 c:/program files/microchip/xc32/v4.21/bin/bin/../../lib/gcc/pic32c/8.3.1/../../../../pic32c/lib/thumb/v8-m.base/nofp\libc-musl.a(rand.o)
 .bss           0x00000000        0x4 c:/program files/microchip/xc32/v4.21/bin/bin/../../lib/gcc/pic32c/8.3.1/../../../../pic32c/lib/thumb/v8-m.base/nofp\libc-musl.a(rand.o)
 .xc_stack_usage
                0x00000000       0x25 c:/program files/microchip/xc32/v4.21/bin/bin/../../lib/gcc/pic32c/8.3.1/../../../../pic32c/lib/thumb/v8-m.base/nofp\libc-musl.a(rand.o)
 .text.srand    0x00000000        0xc c:/program files/microchip/xc32/v4.21/bin/bin/../../lib/gcc/pic32c/8.3.1/../../../../pic32c/lib/thumb/v8-m.base/nofp\libc-musl.a(rand.o)
 .text.rand     0x00000000       0x18 c:/program files/microchip/xc32/v4.21/bin/bin/../../lib/gcc/pic32c/8.3.1/../../../../pic32c/lib/thumb/v8-m.base/nofp\libc-musl.a(rand.o)
 .xc_stack_usage.hdr
                0x00000000        0xe c:/program files/microchip/xc32/v4.21/bin/bin/../../lib/gcc/pic32c/8.3.1/../../../../pic32c/lib/thumb/v8-m.base/nofp\libc-musl.a(rand.o)
 .debug_info    0x00000000      0x32d c:/program files/microchip/xc32/v4.21/bin/bin/../../lib/gcc/pic32c/8.3.1/../../../../pic32c/lib/thumb/v8-m.base/nofp\libc-musl.a(rand.o)
 .debug_abbrev  0x00000000       0x8b c:/program files/microchip/xc32/v4.21/bin/bin/../../lib/gcc/pic32c/8.3.1/../../../../pic32c/lib/thumb/v8-m.base/nofp\libc-musl.a(rand.o)
 .debug_loc     0x00000000       0x24 c:/program files/microchip/xc32/v4.21/bin/bin/../../lib/gcc/pic32c/8.3.1/../../../../pic32c/lib/thumb/v8-m.base/nofp\libc-musl.a(rand.o)
 .debug_aranges
                0x00000000       0x28 c:/program files/microchip/xc32/v4.21/bin/bin/../../lib/gcc/pic32c/8.3.1/../../../../pic32c/lib/thumb/v8-m.base/nofp\libc-musl.a(rand.o)
 .debug_ranges  0x00000000       0x18 c:/program files/microchip/xc32/v4.21/bin/bin/../../lib/gcc/pic32c/8.3.1/../../../../pic32c/lib/thumb/v8-m.base/nofp\libc-musl.a(rand.o)
 .debug_line    0x00000000      0x101 c:/program files/microchip/xc32/v4.21/bin/bin/../../lib/gcc/pic32c/8.3.1/../../../../pic32c/lib/thumb/v8-m.base/nofp\libc-musl.a(rand.o)
 .debug_str     0x00000000        0x0 c:/program files/microchip/xc32/v4.21/bin/bin/../../lib/gcc/pic32c/8.3.1/../../../../pic32c/lib/thumb/v8-m.base/nofp\libc-musl.a(rand.o)
 .comment       0x00000000       0x2c c:/program files/microchip/xc32/v4.21/bin/bin/../../lib/gcc/pic32c/8.3.1/../../../../pic32c/lib/thumb/v8-m.base/nofp\libc-musl.a(rand.o)
 .note.GNU-stack
                0x00000000        0x0 c:/program files/microchip/xc32/v4.21/bin/bin/../../lib/gcc/pic32c/8.3.1/../../../../pic32c/lib/thumb/v8-m.base/nofp\libc-musl.a(rand.o)
 .debug_frame   0x00000000       0x30 c:/program files/microchip/xc32/v4.21/bin/bin/../../lib/gcc/pic32c/8.3.1/../../../../pic32c/lib/thumb/v8-m.base/nofp\libc-musl.a(rand.o)
 .ARM.attributes
                0x00000000       0x32 c:/program files/microchip/xc32/v4.21/bin/bin/../../lib/gcc/pic32c/8.3.1/../../../../pic32c/lib/thumb/v8-m.base/nofp\libc-musl.a(rand.o)
 .text          0x00000000        0x0 c:/program files/microchip/xc32/v4.21/bin/bin/../../lib/gcc/pic32c/8.3.1/../../../../pic32c/lib/thumb/v8-m.base/nofp\libc-musl.a(__sio_sprintf_doux.o)
 .data          0x00000000        0x0 c:/program files/microchip/xc32/v4.21/bin/bin/../../lib/gcc/pic32c/8.3.1/../../../../pic32c/lib/thumb/v8-m.base/nofp\libc-musl.a(__sio_sprintf_doux.o)
 .bss           0x00000000        0x0 c:/program files/microchip/xc32/v4.21/bin/bin/../../lib/gcc/pic32c/8.3.1/../../../../pic32c/lib/thumb/v8-m.base/nofp\libc-musl.a(__sio_sprintf_doux.o)
 .xc_stack_usage
                0x00000000       0x3c c:/program files/microchip/xc32/v4.21/bin/bin/../../lib/gcc/pic32c/8.3.1/../../../../pic32c/lib/thumb/v8-m.base/nofp\libc-musl.a(__sio_sprintf_doux.o)
 .text.__sio_sprintf_doux
                0x00000000       0x20 c:/program files/microchip/xc32/v4.21/bin/bin/../../lib/gcc/pic32c/8.3.1/../../../../pic32c/lib/thumb/v8-m.base/nofp\libc-musl.a(__sio_sprintf_doux.o)
 .xc_stack_usage.hdr
                0x00000000        0xe c:/program files/microchip/xc32/v4.21/bin/bin/../../lib/gcc/pic32c/8.3.1/../../../../pic32c/lib/thumb/v8-m.base/nofp\libc-musl.a(__sio_sprintf_doux.o)
 .text          0x00000000        0x0 c:/program files/microchip/xc32/v4.21/bin/bin/../../lib/gcc/pic32c/8.3.1/../../../../pic32c/lib/thumb/v8-m.base/nofp\libc-musl.a(__fmt_d.o)
 .data          0x00000000        0x0 c:/program files/microchip/xc32/v4.21/bin/bin/../../lib/gcc/pic32c/8.3.1/../../../../pic32c/lib/thumb/v8-m.base/nofp\libc-musl.a(__fmt_d.o)
 .bss           0x00000000        0x0 c:/program files/microchip/xc32/v4.21/bin/bin/../../lib/gcc/pic32c/8.3.1/../../../../pic32c/lib/thumb/v8-m.base/nofp\libc-musl.a(__fmt_d.o)
 .xc_stack_usage
                0x00000000       0x15 c:/program files/microchip/xc32/v4.21/bin/bin/../../lib/gcc/pic32c/8.3.1/../../../../pic32c/lib/thumb/v8-m.base/nofp\libc-musl.a(__fmt_d.o)
 .xc_stack_usage.hdr
                0x00000000        0xe c:/program files/microchip/xc32/v4.21/bin/bin/../../lib/gcc/pic32c/8.3.1/../../../../pic32c/lib/thumb/v8-m.base/nofp\libc-musl.a(__fmt_d.o)
 .text          0x00000000        0x0 c:/program files/microchip/xc32/v4.21/bin/bin/../../lib/gcc/pic32c/8.3.1/../../../../pic32c/lib/thumb/v8-m.base/nofp\libc-musl.a(__fmt_o.o)
 .data          0x00000000        0x0 c:/program files/microchip/xc32/v4.21/bin/bin/../../lib/gcc/pic32c/8.3.1/../../../../pic32c/lib/thumb/v8-m.base/nofp\libc-musl.a(__fmt_o.o)
 .bss           0x00000000        0x0 c:/program files/microchip/xc32/v4.21/bin/bin/../../lib/gcc/pic32c/8.3.1/../../../../pic32c/lib/thumb/v8-m.base/nofp\libc-musl.a(__fmt_o.o)
 .xc_stack_usage
                0x00000000       0x15 c:/program files/microchip/xc32/v4.21/bin/bin/../../lib/gcc/pic32c/8.3.1/../../../../pic32c/lib/thumb/v8-m.base/nofp\libc-musl.a(__fmt_o.o)
 .xc_stack_usage.hdr
                0x00000000        0xe c:/program files/microchip/xc32/v4.21/bin/bin/../../lib/gcc/pic32c/8.3.1/../../../../pic32c/lib/thumb/v8-m.base/nofp\libc-musl.a(__fmt_o.o)
 .text          0x00000000        0x0 c:/program files/microchip/xc32/v4.21/bin/bin/../../lib/gcc/pic32c/8.3.1/../../../../pic32c/lib/thumb/v8-m.base/nofp\libc-musl.a(__fmt_s.o)
 .data          0x00000000        0x0 c:/program files/microchip/xc32/v4.21/bin/bin/../../lib/gcc/pic32c/8.3.1/../../../../pic32c/lib/thumb/v8-m.base/nofp\libc-musl.a(__fmt_s.o)
 .bss           0x00000000        0x0 c:/program files/microchip/xc32/v4.21/bin/bin/../../lib/gcc/pic32c/8.3.1/../../../../pic32c/lib/thumb/v8-m.base/nofp\libc-musl.a(__fmt_s.o)
 .xc_stack_usage
                0x00000000       0x15 c:/program files/microchip/xc32/v4.21/bin/bin/../../lib/gcc/pic32c/8.3.1/../../../../pic32c/lib/thumb/v8-m.base/nofp\libc-musl.a(__fmt_s.o)
 .xc_stack_usage.hdr
                0x00000000        0xe c:/program files/microchip/xc32/v4.21/bin/bin/../../lib/gcc/pic32c/8.3.1/../../../../pic32c/lib/thumb/v8-m.base/nofp\libc-musl.a(__fmt_s.o)
 .text          0x00000000        0x0 c:/program files/microchip/xc32/v4.21/bin/bin/../../lib/gcc/pic32c/8.3.1/../../../../pic32c/lib/thumb/v8-m.base/nofp\libc-musl.a(__fmt_u.o)
 .data          0x00000000        0x0 c:/program files/microchip/xc32/v4.21/bin/bin/../../lib/gcc/pic32c/8.3.1/../../../../pic32c/lib/thumb/v8-m.base/nofp\libc-musl.a(__fmt_u.o)
 .bss           0x00000000        0x0 c:/program files/microchip/xc32/v4.21/bin/bin/../../lib/gcc/pic32c/8.3.1/../../../../pic32c/lib/thumb/v8-m.base/nofp\libc-musl.a(__fmt_u.o)
 .xc_stack_usage
                0x00000000       0x2a c:/program files/microchip/xc32/v4.21/bin/bin/../../lib/gcc/pic32c/8.3.1/../../../../pic32c/lib/thumb/v8-m.base/nofp\libc-musl.a(__fmt_u.o)
 .xc_stack_usage.hdr
                0x00000000        0xe c:/program files/microchip/xc32/v4.21/bin/bin/../../lib/gcc/pic32c/8.3.1/../../../../pic32c/lib/thumb/v8-m.base/nofp\libc-musl.a(__fmt_u.o)
 .text          0x00000000        0x0 c:/program files/microchip/xc32/v4.21/bin/bin/../../lib/gcc/pic32c/8.3.1/../../../../pic32c/lib/thumb/v8-m.base/nofp\libc-musl.a(__fmt_x.o)
 .data          0x00000000        0x0 c:/program files/microchip/xc32/v4.21/bin/bin/../../lib/gcc/pic32c/8.3.1/../../../../pic32c/lib/thumb/v8-m.base/nofp\libc-musl.a(__fmt_x.o)
 .bss           0x00000000        0x0 c:/program files/microchip/xc32/v4.21/bin/bin/../../lib/gcc/pic32c/8.3.1/../../../../pic32c/lib/thumb/v8-m.base/nofp\libc-musl.a(__fmt_x.o)
 .xc_stack_usage
                0x00000000       0x15 c:/program files/microchip/xc32/v4.21/bin/bin/../../lib/gcc/pic32c/8.3.1/../../../../pic32c/lib/thumb/v8-m.base/nofp\libc-musl.a(__fmt_x.o)
 .xc_stack_usage.hdr
                0x00000000        0xe c:/program files/microchip/xc32/v4.21/bin/bin/../../lib/gcc/pic32c/8.3.1/../../../../pic32c/lib/thumb/v8-m.base/nofp\libc-musl.a(__fmt_x.o)
 .text          0x00000000        0x0 c:/program files/microchip/xc32/v4.21/bin/bin/../../lib/gcc/pic32c/8.3.1/../../../../pic32c/lib/thumb/v8-m.base/nofp\libc-musl.a(__pop_int.o)
 .data          0x00000000        0x0 c:/program files/microchip/xc32/v4.21/bin/bin/../../lib/gcc/pic32c/8.3.1/../../../../pic32c/lib/thumb/v8-m.base/nofp\libc-musl.a(__pop_int.o)
 .bss           0x00000000        0x0 c:/program files/microchip/xc32/v4.21/bin/bin/../../lib/gcc/pic32c/8.3.1/../../../../pic32c/lib/thumb/v8-m.base/nofp\libc-musl.a(__pop_int.o)
 .xc_stack_usage
                0x00000000       0x17 c:/program files/microchip/xc32/v4.21/bin/bin/../../lib/gcc/pic32c/8.3.1/../../../../pic32c/lib/thumb/v8-m.base/nofp\libc-musl.a(__pop_int.o)
 .xc_stack_usage.hdr
                0x00000000        0xe c:/program files/microchip/xc32/v4.21/bin/bin/../../lib/gcc/pic32c/8.3.1/../../../../pic32c/lib/thumb/v8-m.base/nofp\libc-musl.a(__pop_int.o)
 .text          0x00000000        0x0 c:/program files/microchip/xc32/v4.21/bin/bin/../../lib/gcc/pic32c/8.3.1/../../../../pic32c/lib/thumb/v8-m.base/nofp\libc-musl.a(__pop_ptr.o)
 .data          0x00000000        0x0 c:/program files/microchip/xc32/v4.21/bin/bin/../../lib/gcc/pic32c/8.3.1/../../../../pic32c/lib/thumb/v8-m.base/nofp\libc-musl.a(__pop_ptr.o)
 .bss           0x00000000        0x0 c:/program files/microchip/xc32/v4.21/bin/bin/../../lib/gcc/pic32c/8.3.1/../../../../pic32c/lib/thumb/v8-m.base/nofp\libc-musl.a(__pop_ptr.o)
 .xc_stack_usage
                0x00000000       0x17 c:/program files/microchip/xc32/v4.21/bin/bin/../../lib/gcc/pic32c/8.3.1/../../../../pic32c/lib/thumb/v8-m.base/nofp\libc-musl.a(__pop_ptr.o)
 .xc_stack_usage.hdr
                0x00000000        0xe c:/program files/microchip/xc32/v4.21/bin/bin/../../lib/gcc/pic32c/8.3.1/../../../../pic32c/lib/thumb/v8-m.base/nofp\libc-musl.a(__pop_ptr.o)
 .text          0x00000000        0x0 c:/program files/microchip/xc32/v4.21/bin/bin/../../lib/gcc/pic32c/8.3.1/../../../../pic32c/lib/thumb/v8-m.base/nofp\libc-musl.a(__printf_core.o)
 .data          0x00000000        0x0 c:/program files/microchip/xc32/v4.21/bin/bin/../../lib/gcc/pic32c/8.3.1/../../../../pic32c/lib/thumb/v8-m.base/nofp\libc-musl.a(__printf_core.o)
 .bss           0x00000000        0x0 c:/program files/microchip/xc32/v4.21/bin/bin/../../lib/gcc/pic32c/8.3.1/../../../../pic32c/lib/thumb/v8-m.base/nofp\libc-musl.a(__printf_core.o)
 .xc_stack_usage
                0x00000000       0xaf c:/program files/microchip/xc32/v4.21/bin/bin/../../lib/gcc/pic32c/8.3.1/../../../../pic32c/lib/thumb/v8-m.base/nofp\libc-musl.a(__printf_core.o)
 .text.__string_out
                0x00000000       0x26 c:/program files/microchip/xc32/v4.21/bin/bin/../../lib/gcc/pic32c/8.3.1/../../../../pic32c/lib/thumb/v8-m.base/nofp\libc-musl.a(__printf_core.o)
 .text.__dummy_fmt3
                0x00000000        0x4 c:/program files/microchip/xc32/v4.21/bin/bin/../../lib/gcc/pic32c/8.3.1/../../../../pic32c/lib/thumb/v8-m.base/nofp\libc-musl.a(__printf_core.o)
 .text.__dummy_fmts
                0x00000000        0x4 c:/program files/microchip/xc32/v4.21/bin/bin/../../lib/gcc/pic32c/8.3.1/../../../../pic32c/lib/thumb/v8-m.base/nofp\libc-musl.a(__printf_core.o)
 .xc_stack_usage.hdr
                0x00000000        0xe c:/program files/microchip/xc32/v4.21/bin/bin/../../lib/gcc/pic32c/8.3.1/../../../../pic32c/lib/thumb/v8-m.base/nofp\libc-musl.a(__printf_core.o)
 .text          0x00000000        0x0 c:/program files/microchip/xc32/v4.21/bin/bin/../../lib/gcc/pic32c/8.3.1/../../../../pic32c/lib/thumb/v8-m.base/nofp\libc-musl.a(stdin.o)
 .xc_stack_usage
                0x00000000       0x33 c:/program files/microchip/xc32/v4.21/bin/bin/../../lib/gcc/pic32c/8.3.1/../../../../pic32c/lib/thumb/v8-m.base/nofp\libc-musl.a(stdin.o)
 .xc_stack_usage.hdr
                0x00000000        0xe c:/program files/microchip/xc32/v4.21/bin/bin/../../lib/gcc/pic32c/8.3.1/../../../../pic32c/lib/thumb/v8-m.base/nofp\libc-musl.a(stdin.o)
 .text          0x00000000        0x0 c:/program files/microchip/xc32/v4.21/bin/bin/../../lib/gcc/pic32c/8.3.1/../../../../pic32c/lib/thumb/v8-m.base/nofp\libc-musl.a(stdout.o)
 .xc_stack_usage
                0x00000000       0x51 c:/program files/microchip/xc32/v4.21/bin/bin/../../lib/gcc/pic32c/8.3.1/../../../../pic32c/lib/thumb/v8-m.base/nofp\libc-musl.a(stdout.o)
 .text.__dummy  0x00000000        0x8 c:/program files/microchip/xc32/v4.21/bin/bin/../../lib/gcc/pic32c/8.3.1/../../../../pic32c/lib/thumb/v8-m.base/nofp\libc-musl.a(stdout.o)
 .xc_stack_usage.hdr
                0x00000000        0xe c:/program files/microchip/xc32/v4.21/bin/bin/../../lib/gcc/pic32c/8.3.1/../../../../pic32c/lib/thumb/v8-m.base/nofp\libc-musl.a(stdout.o)
 .text          0x00000000        0x0 c:/program files/microchip/xc32/v4.21/bin/bin/../../lib/gcc/pic32c/8.3.1/../../../../pic32c/lib/thumb/v8-m.base/nofp\libc-musl.a(setbuf.o)
 .data          0x00000000        0x0 c:/program files/microchip/xc32/v4.21/bin/bin/../../lib/gcc/pic32c/8.3.1/../../../../pic32c/lib/thumb/v8-m.base/nofp\libc-musl.a(setbuf.o)
 .bss           0x00000000        0x0 c:/program files/microchip/xc32/v4.21/bin/bin/../../lib/gcc/pic32c/8.3.1/../../../../pic32c/lib/thumb/v8-m.base/nofp\libc-musl.a(setbuf.o)
 .xc_stack_usage
                0x00000000       0x14 c:/program files/microchip/xc32/v4.21/bin/bin/../../lib/gcc/pic32c/8.3.1/../../../../pic32c/lib/thumb/v8-m.base/nofp\libc-musl.a(setbuf.o)
 .xc_stack_usage.hdr
                0x00000000        0xe c:/program files/microchip/xc32/v4.21/bin/bin/../../lib/gcc/pic32c/8.3.1/../../../../pic32c/lib/thumb/v8-m.base/nofp\libc-musl.a(setbuf.o)
 .text          0x00000000        0x0 c:/program files/microchip/xc32/v4.21/bin/bin/../../lib/gcc/pic32c/8.3.1/../../../../pic32c/lib/thumb/v8-m.base/nofp\libc-musl.a(atoi.o)
 .data          0x00000000        0x0 c:/program files/microchip/xc32/v4.21/bin/bin/../../lib/gcc/pic32c/8.3.1/../../../../pic32c/lib/thumb/v8-m.base/nofp\libc-musl.a(atoi.o)
 .bss           0x00000000        0x0 c:/program files/microchip/xc32/v4.21/bin/bin/../../lib/gcc/pic32c/8.3.1/../../../../pic32c/lib/thumb/v8-m.base/nofp\libc-musl.a(atoi.o)
 .xc_stack_usage
                0x00000000       0x12 c:/program files/microchip/xc32/v4.21/bin/bin/../../lib/gcc/pic32c/8.3.1/../../../../pic32c/lib/thumb/v8-m.base/nofp\libc-musl.a(atoi.o)
 .xc_stack_usage.hdr
                0x00000000        0xe c:/program files/microchip/xc32/v4.21/bin/bin/../../lib/gcc/pic32c/8.3.1/../../../../pic32c/lib/thumb/v8-m.base/nofp\libc-musl.a(atoi.o)
 .text          0x00000000        0x0 c:/program files/microchip/xc32/v4.21/bin/bin/../../lib/gcc/pic32c/8.3.1/../../../../pic32c/lib/thumb/v8-m.base/nofp\libc-musl.a(memcmp.o)
 .data          0x00000000        0x0 c:/program files/microchip/xc32/v4.21/bin/bin/../../lib/gcc/pic32c/8.3.1/../../../../pic32c/lib/thumb/v8-m.base/nofp\libc-musl.a(memcmp.o)
 .bss           0x00000000        0x0 c:/program files/microchip/xc32/v4.21/bin/bin/../../lib/gcc/pic32c/8.3.1/../../../../pic32c/lib/thumb/v8-m.base/nofp\libc-musl.a(memcmp.o)
 .xc_stack_usage
                0x00000000       0x14 c:/program files/microchip/xc32/v4.21/bin/bin/../../lib/gcc/pic32c/8.3.1/../../../../pic32c/lib/thumb/v8-m.base/nofp\libc-musl.a(memcmp.o)
 .text.memcmp   0x00000000       0x1c c:/program files/microchip/xc32/v4.21/bin/bin/../../lib/gcc/pic32c/8.3.1/../../../../pic32c/lib/thumb/v8-m.base/nofp\libc-musl.a(memcmp.o)
 .xc_stack_usage.hdr
                0x00000000        0xe c:/program files/microchip/xc32/v4.21/bin/bin/../../lib/gcc/pic32c/8.3.1/../../../../pic32c/lib/thumb/v8-m.base/nofp\libc-musl.a(memcmp.o)
 .debug_info    0x00000000      0x2e3 c:/program files/microchip/xc32/v4.21/bin/bin/../../lib/gcc/pic32c/8.3.1/../../../../pic32c/lib/thumb/v8-m.base/nofp\libc-musl.a(memcmp.o)
 .debug_abbrev  0x00000000       0x8b c:/program files/microchip/xc32/v4.21/bin/bin/../../lib/gcc/pic32c/8.3.1/../../../../pic32c/lib/thumb/v8-m.base/nofp\libc-musl.a(memcmp.o)
 .debug_loc     0x00000000      0x184 c:/program files/microchip/xc32/v4.21/bin/bin/../../lib/gcc/pic32c/8.3.1/../../../../pic32c/lib/thumb/v8-m.base/nofp\libc-musl.a(memcmp.o)
 .debug_aranges
                0x00000000       0x20 c:/program files/microchip/xc32/v4.21/bin/bin/../../lib/gcc/pic32c/8.3.1/../../../../pic32c/lib/thumb/v8-m.base/nofp\libc-musl.a(memcmp.o)
 .debug_ranges  0x00000000       0x10 c:/program files/microchip/xc32/v4.21/bin/bin/../../lib/gcc/pic32c/8.3.1/../../../../pic32c/lib/thumb/v8-m.base/nofp\libc-musl.a(memcmp.o)
 .debug_line    0x00000000       0xe8 c:/program files/microchip/xc32/v4.21/bin/bin/../../lib/gcc/pic32c/8.3.1/../../../../pic32c/lib/thumb/v8-m.base/nofp\libc-musl.a(memcmp.o)
 .debug_str     0x00000000        0x0 c:/program files/microchip/xc32/v4.21/bin/bin/../../lib/gcc/pic32c/8.3.1/../../../../pic32c/lib/thumb/v8-m.base/nofp\libc-musl.a(memcmp.o)
 .comment       0x00000000       0x2c c:/program files/microchip/xc32/v4.21/bin/bin/../../lib/gcc/pic32c/8.3.1/../../../../pic32c/lib/thumb/v8-m.base/nofp\libc-musl.a(memcmp.o)
 .note.GNU-stack
                0x00000000        0x0 c:/program files/microchip/xc32/v4.21/bin/bin/../../lib/gcc/pic32c/8.3.1/../../../../pic32c/lib/thumb/v8-m.base/nofp\libc-musl.a(memcmp.o)
 .debug_frame   0x00000000       0x2c c:/program files/microchip/xc32/v4.21/bin/bin/../../lib/gcc/pic32c/8.3.1/../../../../pic32c/lib/thumb/v8-m.base/nofp\libc-musl.a(memcmp.o)
 .ARM.attributes
                0x00000000       0x32 c:/program files/microchip/xc32/v4.21/bin/bin/../../lib/gcc/pic32c/8.3.1/../../../../pic32c/lib/thumb/v8-m.base/nofp\libc-musl.a(memcmp.o)
 .text          0x00000000        0x0 c:/program files/microchip/xc32/v4.21/bin/bin/../../lib/gcc/pic32c/8.3.1/../../../../pic32c/lib/thumb/v8-m.base/nofp\libc-musl.a(memcpy.o)
 .data          0x00000000        0x0 c:/program files/microchip/xc32/v4.21/bin/bin/../../lib/gcc/pic32c/8.3.1/../../../../pic32c/lib/thumb/v8-m.base/nofp\libc-musl.a(memcpy.o)
 .bss           0x00000000        0x0 c:/program files/microchip/xc32/v4.21/bin/bin/../../lib/gcc/pic32c/8.3.1/../../../../pic32c/lib/thumb/v8-m.base/nofp\libc-musl.a(memcpy.o)
 .xc_stack_usage
                0x00000000       0x14 c:/program files/microchip/xc32/v4.21/bin/bin/../../lib/gcc/pic32c/8.3.1/../../../../pic32c/lib/thumb/v8-m.base/nofp\libc-musl.a(memcpy.o)
 .xc_stack_usage.hdr
                0x00000000        0xe c:/program files/microchip/xc32/v4.21/bin/bin/../../lib/gcc/pic32c/8.3.1/../../../../pic32c/lib/thumb/v8-m.base/nofp\libc-musl.a(memcpy.o)
 .text          0x00000000        0x0 c:/program files/microchip/xc32/v4.21/bin/bin/../../lib/gcc/pic32c/8.3.1/../../../../pic32c/lib/thumb/v8-m.base/nofp\libc-musl.a(memmove.o)
 .data          0x00000000        0x0 c:/program files/microchip/xc32/v4.21/bin/bin/../../lib/gcc/pic32c/8.3.1/../../../../pic32c/lib/thumb/v8-m.base/nofp\libc-musl.a(memmove.o)
 .bss           0x00000000        0x0 c:/program files/microchip/xc32/v4.21/bin/bin/../../lib/gcc/pic32c/8.3.1/../../../../pic32c/lib/thumb/v8-m.base/nofp\libc-musl.a(memmove.o)
 .xc_stack_usage
                0x00000000       0x15 c:/program files/microchip/xc32/v4.21/bin/bin/../../lib/gcc/pic32c/8.3.1/../../../../pic32c/lib/thumb/v8-m.base/nofp\libc-musl.a(memmove.o)
 .text.memmove  0x00000000       0x26 c:/program files/microchip/xc32/v4.21/bin/bin/../../lib/gcc/pic32c/8.3.1/../../../../pic32c/lib/thumb/v8-m.base/nofp\libc-musl.a(memmove.o)
 .xc_stack_usage.hdr
                0x00000000        0xe c:/program files/microchip/xc32/v4.21/bin/bin/../../lib/gcc/pic32c/8.3.1/../../../../pic32c/lib/thumb/v8-m.base/nofp\libc-musl.a(memmove.o)
 .debug_info    0x00000000      0x2f4 c:/program files/microchip/xc32/v4.21/bin/bin/../../lib/gcc/pic32c/8.3.1/../../../../pic32c/lib/thumb/v8-m.base/nofp\libc-musl.a(memmove.o)
 .debug_abbrev  0x00000000       0xa3 c:/program files/microchip/xc32/v4.21/bin/bin/../../lib/gcc/pic32c/8.3.1/../../../../pic32c/lib/thumb/v8-m.base/nofp\libc-musl.a(memmove.o)
 .debug_loc     0x00000000      0x104 c:/program files/microchip/xc32/v4.21/bin/bin/../../lib/gcc/pic32c/8.3.1/../../../../pic32c/lib/thumb/v8-m.base/nofp\libc-musl.a(memmove.o)
 .debug_aranges
                0x00000000       0x20 c:/program files/microchip/xc32/v4.21/bin/bin/../../lib/gcc/pic32c/8.3.1/../../../../pic32c/lib/thumb/v8-m.base/nofp\libc-musl.a(memmove.o)
 .debug_ranges  0x00000000       0x10 c:/program files/microchip/xc32/v4.21/bin/bin/../../lib/gcc/pic32c/8.3.1/../../../../pic32c/lib/thumb/v8-m.base/nofp\libc-musl.a(memmove.o)
 .debug_line    0x00000000      0x108 c:/program files/microchip/xc32/v4.21/bin/bin/../../lib/gcc/pic32c/8.3.1/../../../../pic32c/lib/thumb/v8-m.base/nofp\libc-musl.a(memmove.o)
 .debug_str     0x00000000        0x0 c:/program files/microchip/xc32/v4.21/bin/bin/../../lib/gcc/pic32c/8.3.1/../../../../pic32c/lib/thumb/v8-m.base/nofp\libc-musl.a(memmove.o)
 .comment       0x00000000       0x2c c:/program files/microchip/xc32/v4.21/bin/bin/../../lib/gcc/pic32c/8.3.1/../../../../pic32c/lib/thumb/v8-m.base/nofp\libc-musl.a(memmove.o)
 .note.GNU-stack
                0x00000000        0x0 c:/program files/microchip/xc32/v4.21/bin/bin/../../lib/gcc/pic32c/8.3.1/../../../../pic32c/lib/thumb/v8-m.base/nofp\libc-musl.a(memmove.o)
 .debug_frame   0x00000000       0x28 c:/program files/microchip/xc32/v4.21/bin/bin/../../lib/gcc/pic32c/8.3.1/../../../../pic32c/lib/thumb/v8-m.base/nofp\libc-musl.a(memmove.o)
 .ARM.attributes
                0x00000000       0x32 c:/program files/microchip/xc32/v4.21/bin/bin/../../lib/gcc/pic32c/8.3.1/../../../../pic32c/lib/thumb/v8-m.base/nofp\libc-musl.a(memmove.o)
 .text          0x00000000        0x0 c:/program files/microchip/xc32/v4.21/bin/bin/../../lib/gcc/pic32c/8.3.1/../../../../pic32c/lib/thumb/v8-m.base/nofp\libc-musl.a(memset.o)
 .data          0x00000000        0x0 c:/program files/microchip/xc32/v4.21/bin/bin/../../lib/gcc/pic32c/8.3.1/../../../../pic32c/lib/thumb/v8-m.base/nofp\libc-musl.a(memset.o)
 .bss           0x00000000        0x0 c:/program files/microchip/xc32/v4.21/bin/bin/../../lib/gcc/pic32c/8.3.1/../../../../pic32c/lib/thumb/v8-m.base/nofp\libc-musl.a(memset.o)
 .xc_stack_usage
                0x00000000       0x14 c:/program files/microchip/xc32/v4.21/bin/bin/../../lib/gcc/pic32c/8.3.1/../../../../pic32c/lib/thumb/v8-m.base/nofp\libc-musl.a(memset.o)
 .xc_stack_usage.hdr
                0x00000000        0xe c:/program files/microchip/xc32/v4.21/bin/bin/../../lib/gcc/pic32c/8.3.1/../../../../pic32c/lib/thumb/v8-m.base/nofp\libc-musl.a(memset.o)
 .text          0x00000000        0x0 c:/program files/microchip/xc32/v4.21/bin/bin/../../lib/gcc/pic32c/8.3.1/../../../../pic32c/lib/thumb/v8-m.base/nofp\libc-musl.a(strlen.o)
 .data          0x00000000        0x0 c:/program files/microchip/xc32/v4.21/bin/bin/../../lib/gcc/pic32c/8.3.1/../../../../pic32c/lib/thumb/v8-m.base/nofp\libc-musl.a(strlen.o)
 .bss           0x00000000        0x0 c:/program files/microchip/xc32/v4.21/bin/bin/../../lib/gcc/pic32c/8.3.1/../../../../pic32c/lib/thumb/v8-m.base/nofp\libc-musl.a(strlen.o)
 .xc_stack_usage
                0x00000000       0x14 c:/program files/microchip/xc32/v4.21/bin/bin/../../lib/gcc/pic32c/8.3.1/../../../../pic32c/lib/thumb/v8-m.base/nofp\libc-musl.a(strlen.o)
 .xc_stack_usage.hdr
                0x00000000        0xe c:/program files/microchip/xc32/v4.21/bin/bin/../../lib/gcc/pic32c/8.3.1/../../../../pic32c/lib/thumb/v8-m.base/nofp\libc-musl.a(strlen.o)
 .text          0x00000000        0x0 c:/program files/microchip/xc32/v4.21/bin/bin/../../lib/gcc/pic32c/8.3.1/../../../../pic32c/lib/thumb/v8-m.base/nofp\libc-musl.a(strcmp.o)
 .data          0x00000000        0x0 c:/program files/microchip/xc32/v4.21/bin/bin/../../lib/gcc/pic32c/8.3.1/../../../../pic32c/lib/thumb/v8-m.base/nofp\libc-musl.a(strcmp.o)
 .bss           0x00000000        0x0 c:/program files/microchip/xc32/v4.21/bin/bin/../../lib/gcc/pic32c/8.3.1/../../../../pic32c/lib/thumb/v8-m.base/nofp\libc-musl.a(strcmp.o)
 .xc_stack_usage
                0x00000000       0x14 c:/program files/microchip/xc32/v4.21/bin/bin/../../lib/gcc/pic32c/8.3.1/../../../../pic32c/lib/thumb/v8-m.base/nofp\libc-musl.a(strcmp.o)
 .text.strcmp   0x00000000       0x16 c:/program files/microchip/xc32/v4.21/bin/bin/../../lib/gcc/pic32c/8.3.1/../../../../pic32c/lib/thumb/v8-m.base/nofp\libc-musl.a(strcmp.o)
 .xc_stack_usage.hdr
                0x00000000        0xe c:/program files/microchip/xc32/v4.21/bin/bin/../../lib/gcc/pic32c/8.3.1/../../../../pic32c/lib/thumb/v8-m.base/nofp\libc-musl.a(strcmp.o)
 .debug_info    0x00000000      0x28c c:/program files/microchip/xc32/v4.21/bin/bin/../../lib/gcc/pic32c/8.3.1/../../../../pic32c/lib/thumb/v8-m.base/nofp\libc-musl.a(strcmp.o)
 .debug_abbrev  0x00000000       0x63 c:/program files/microchip/xc32/v4.21/bin/bin/../../lib/gcc/pic32c/8.3.1/../../../../pic32c/lib/thumb/v8-m.base/nofp\libc-musl.a(strcmp.o)
 .debug_loc     0x00000000       0x96 c:/program files/microchip/xc32/v4.21/bin/bin/../../lib/gcc/pic32c/8.3.1/../../../../pic32c/lib/thumb/v8-m.base/nofp\libc-musl.a(strcmp.o)
 .debug_aranges
                0x00000000       0x20 c:/program files/microchip/xc32/v4.21/bin/bin/../../lib/gcc/pic32c/8.3.1/../../../../pic32c/lib/thumb/v8-m.base/nofp\libc-musl.a(strcmp.o)
 .debug_ranges  0x00000000       0x10 c:/program files/microchip/xc32/v4.21/bin/bin/../../lib/gcc/pic32c/8.3.1/../../../../pic32c/lib/thumb/v8-m.base/nofp\libc-musl.a(strcmp.o)
 .debug_line    0x00000000       0xc0 c:/program files/microchip/xc32/v4.21/bin/bin/../../lib/gcc/pic32c/8.3.1/../../../../pic32c/lib/thumb/v8-m.base/nofp\libc-musl.a(strcmp.o)
 .debug_str     0x00000000        0x0 c:/program files/microchip/xc32/v4.21/bin/bin/../../lib/gcc/pic32c/8.3.1/../../../../pic32c/lib/thumb/v8-m.base/nofp\libc-musl.a(strcmp.o)
 .comment       0x00000000       0x2c c:/program files/microchip/xc32/v4.21/bin/bin/../../lib/gcc/pic32c/8.3.1/../../../../pic32c/lib/thumb/v8-m.base/nofp\libc-musl.a(strcmp.o)
 .note.GNU-stack
                0x00000000        0x0 c:/program files/microchip/xc32/v4.21/bin/bin/../../lib/gcc/pic32c/8.3.1/../../../../pic32c/lib/thumb/v8-m.base/nofp\libc-musl.a(strcmp.o)
 .debug_frame   0x00000000       0x28 c:/program files/microchip/xc32/v4.21/bin/bin/../../lib/gcc/pic32c/8.3.1/../../../../pic32c/lib/thumb/v8-m.base/nofp\libc-musl.a(strcmp.o)
 .ARM.attributes
                0x00000000       0x32 c:/program files/microchip/xc32/v4.21/bin/bin/../../lib/gcc/pic32c/8.3.1/../../../../pic32c/lib/thumb/v8-m.base/nofp\libc-musl.a(strcmp.o)
 .text          0x00000000        0x0 c:/program files/microchip/xc32/v4.21/bin/bin/../../lib/gcc/pic32c/8.3.1/../../../../pic32c/lib/thumb/v8-m.base/nofp\libc-musl.a(strncmp.o)
 .data          0x00000000        0x0 c:/program files/microchip/xc32/v4.21/bin/bin/../../lib/gcc/pic32c/8.3.1/../../../../pic32c/lib/thumb/v8-m.base/nofp\libc-musl.a(strncmp.o)
 .bss           0x00000000        0x0 c:/program files/microchip/xc32/v4.21/bin/bin/../../lib/gcc/pic32c/8.3.1/../../../../pic32c/lib/thumb/v8-m.base/nofp\libc-musl.a(strncmp.o)
 .xc_stack_usage
                0x00000000       0x15 c:/program files/microchip/xc32/v4.21/bin/bin/../../lib/gcc/pic32c/8.3.1/../../../../pic32c/lib/thumb/v8-m.base/nofp\libc-musl.a(strncmp.o)
 .text.strncmp  0x00000000       0x26 c:/program files/microchip/xc32/v4.21/bin/bin/../../lib/gcc/pic32c/8.3.1/../../../../pic32c/lib/thumb/v8-m.base/nofp\libc-musl.a(strncmp.o)
 .xc_stack_usage.hdr
                0x00000000        0xe c:/program files/microchip/xc32/v4.21/bin/bin/../../lib/gcc/pic32c/8.3.1/../../../../pic32c/lib/thumb/v8-m.base/nofp\libc-musl.a(strncmp.o)
 .debug_info    0x00000000      0x2eb c:/program files/microchip/xc32/v4.21/bin/bin/../../lib/gcc/pic32c/8.3.1/../../../../pic32c/lib/thumb/v8-m.base/nofp\libc-musl.a(strncmp.o)
 .debug_abbrev  0x00000000       0x97 c:/program files/microchip/xc32/v4.21/bin/bin/../../lib/gcc/pic32c/8.3.1/../../../../pic32c/lib/thumb/v8-m.base/nofp\libc-musl.a(strncmp.o)
 .debug_loc     0x00000000       0xec c:/program files/microchip/xc32/v4.21/bin/bin/../../lib/gcc/pic32c/8.3.1/../../../../pic32c/lib/thumb/v8-m.base/nofp\libc-musl.a(strncmp.o)
 .debug_aranges
                0x00000000       0x20 c:/program files/microchip/xc32/v4.21/bin/bin/../../lib/gcc/pic32c/8.3.1/../../../../pic32c/lib/thumb/v8-m.base/nofp\libc-musl.a(strncmp.o)
 .debug_ranges  0x00000000       0x10 c:/program files/microchip/xc32/v4.21/bin/bin/../../lib/gcc/pic32c/8.3.1/../../../../pic32c/lib/thumb/v8-m.base/nofp\libc-musl.a(strncmp.o)
 .debug_line    0x00000000       0xf3 c:/program files/microchip/xc32/v4.21/bin/bin/../../lib/gcc/pic32c/8.3.1/../../../../pic32c/lib/thumb/v8-m.base/nofp\libc-musl.a(strncmp.o)
 .debug_str     0x00000000        0x0 c:/program files/microchip/xc32/v4.21/bin/bin/../../lib/gcc/pic32c/8.3.1/../../../../pic32c/lib/thumb/v8-m.base/nofp\libc-musl.a(strncmp.o)
 .comment       0x00000000       0x2c c:/program files/microchip/xc32/v4.21/bin/bin/../../lib/gcc/pic32c/8.3.1/../../../../pic32c/lib/thumb/v8-m.base/nofp\libc-musl.a(strncmp.o)
 .note.GNU-stack
                0x00000000        0x0 c:/program files/microchip/xc32/v4.21/bin/bin/../../lib/gcc/pic32c/8.3.1/../../../../pic32c/lib/thumb/v8-m.base/nofp\libc-musl.a(strncmp.o)
 .debug_frame   0x00000000       0x2c c:/program files/microchip/xc32/v4.21/bin/bin/../../lib/gcc/pic32c/8.3.1/../../../../pic32c/lib/thumb/v8-m.base/nofp\libc-musl.a(strncmp.o)
 .ARM.attributes
                0x00000000       0x32 c:/program files/microchip/xc32/v4.21/bin/bin/../../lib/gcc/pic32c/8.3.1/../../../../pic32c/lib/thumb/v8-m.base/nofp\libc-musl.a(strncmp.o)
 .text          0x00000000        0x0 c:/program files/microchip/xc32/v4.21/bin/bin/../../lib/gcc/pic32c/8.3.1/../../../../pic32c/lib/thumb/v8-m.base/nofp\libc-musl.a(strncpy.o)
 .data          0x00000000        0x0 c:/program files/microchip/xc32/v4.21/bin/bin/../../lib/gcc/pic32c/8.3.1/../../../../pic32c/lib/thumb/v8-m.base/nofp\libc-musl.a(strncpy.o)
 .bss           0x00000000        0x0 c:/program files/microchip/xc32/v4.21/bin/bin/../../lib/gcc/pic32c/8.3.1/../../../../pic32c/lib/thumb/v8-m.base/nofp\libc-musl.a(strncpy.o)
 .xc_stack_usage
                0x00000000       0x15 c:/program files/microchip/xc32/v4.21/bin/bin/../../lib/gcc/pic32c/8.3.1/../../../../pic32c/lib/thumb/v8-m.base/nofp\libc-musl.a(strncpy.o)
 .text.strncpy  0x00000000        0xc c:/program files/microchip/xc32/v4.21/bin/bin/../../lib/gcc/pic32c/8.3.1/../../../../pic32c/lib/thumb/v8-m.base/nofp\libc-musl.a(strncpy.o)
 .xc_stack_usage.hdr
                0x00000000        0xe c:/program files/microchip/xc32/v4.21/bin/bin/../../lib/gcc/pic32c/8.3.1/../../../../pic32c/lib/thumb/v8-m.base/nofp\libc-musl.a(strncpy.o)
 .debug_info    0x00000000      0x2da c:/program files/microchip/xc32/v4.21/bin/bin/../../lib/gcc/pic32c/8.3.1/../../../../pic32c/lib/thumb/v8-m.base/nofp\libc-musl.a(strncpy.o)
 .debug_abbrev  0x00000000       0x9d c:/program files/microchip/xc32/v4.21/bin/bin/../../lib/gcc/pic32c/8.3.1/../../../../pic32c/lib/thumb/v8-m.base/nofp\libc-musl.a(strncpy.o)
 .debug_loc     0x00000000       0x99 c:/program files/microchip/xc32/v4.21/bin/bin/../../lib/gcc/pic32c/8.3.1/../../../../pic32c/lib/thumb/v8-m.base/nofp\libc-musl.a(strncpy.o)
 .debug_aranges
                0x00000000       0x20 c:/program files/microchip/xc32/v4.21/bin/bin/../../lib/gcc/pic32c/8.3.1/../../../../pic32c/lib/thumb/v8-m.base/nofp\libc-musl.a(strncpy.o)
 .debug_ranges  0x00000000       0x10 c:/program files/microchip/xc32/v4.21/bin/bin/../../lib/gcc/pic32c/8.3.1/../../../../pic32c/lib/thumb/v8-m.base/nofp\libc-musl.a(strncpy.o)
 .debug_line    0x00000000       0xd5 c:/program files/microchip/xc32/v4.21/bin/bin/../../lib/gcc/pic32c/8.3.1/../../../../pic32c/lib/thumb/v8-m.base/nofp\libc-musl.a(strncpy.o)
 .debug_str     0x00000000        0xa c:/program files/microchip/xc32/v4.21/bin/bin/../../lib/gcc/pic32c/8.3.1/../../../../pic32c/lib/thumb/v8-m.base/nofp\libc-musl.a(strncpy.o)
 .comment       0x00000000       0x2c c:/program files/microchip/xc32/v4.21/bin/bin/../../lib/gcc/pic32c/8.3.1/../../../../pic32c/lib/thumb/v8-m.base/nofp\libc-musl.a(strncpy.o)
 .note.GNU-stack
                0x00000000        0x0 c:/program files/microchip/xc32/v4.21/bin/bin/../../lib/gcc/pic32c/8.3.1/../../../../pic32c/lib/thumb/v8-m.base/nofp\libc-musl.a(strncpy.o)
 .debug_frame   0x00000000       0x28 c:/program files/microchip/xc32/v4.21/bin/bin/../../lib/gcc/pic32c/8.3.1/../../../../pic32c/lib/thumb/v8-m.base/nofp\libc-musl.a(strncpy.o)
 .ARM.attributes
                0x00000000       0x32 c:/program files/microchip/xc32/v4.21/bin/bin/../../lib/gcc/pic32c/8.3.1/../../../../pic32c/lib/thumb/v8-m.base/nofp\libc-musl.a(strncpy.o)
 .text          0x00000000        0x0 c:/program files/microchip/xc32/v4.21/bin/bin/../../lib/gcc/pic32c/8.3.1/../../../../pic32c/lib/thumb/v8-m.base/nofp\libc-musl.a(gmtime.o)
 .data          0x00000000        0x0 c:/program files/microchip/xc32/v4.21/bin/bin/../../lib/gcc/pic32c/8.3.1/../../../../pic32c/lib/thumb/v8-m.base/nofp\libc-musl.a(gmtime.o)
 .bss           0x00000000       0x2c c:/program files/microchip/xc32/v4.21/bin/bin/../../lib/gcc/pic32c/8.3.1/../../../../pic32c/lib/thumb/v8-m.base/nofp\libc-musl.a(gmtime.o)
 .xc_stack_usage
                0x00000000       0x14 c:/program files/microchip/xc32/v4.21/bin/bin/../../lib/gcc/pic32c/8.3.1/../../../../pic32c/lib/thumb/v8-m.base/nofp\libc-musl.a(gmtime.o)
 .text.gmtime   0x00000000       0x10 c:/program files/microchip/xc32/v4.21/bin/bin/../../lib/gcc/pic32c/8.3.1/../../../../pic32c/lib/thumb/v8-m.base/nofp\libc-musl.a(gmtime.o)
 .xc_stack_usage.hdr
                0x00000000        0xe c:/program files/microchip/xc32/v4.21/bin/bin/../../lib/gcc/pic32c/8.3.1/../../../../pic32c/lib/thumb/v8-m.base/nofp\libc-musl.a(gmtime.o)
 .debug_info    0x00000000      0x3d4 c:/program files/microchip/xc32/v4.21/bin/bin/../../lib/gcc/pic32c/8.3.1/../../../../pic32c/lib/thumb/v8-m.base/nofp\libc-musl.a(gmtime.o)
 .debug_abbrev  0x00000000       0xd0 c:/program files/microchip/xc32/v4.21/bin/bin/../../lib/gcc/pic32c/8.3.1/../../../../pic32c/lib/thumb/v8-m.base/nofp\libc-musl.a(gmtime.o)
 .debug_loc     0x00000000       0x45 c:/program files/microchip/xc32/v4.21/bin/bin/../../lib/gcc/pic32c/8.3.1/../../../../pic32c/lib/thumb/v8-m.base/nofp\libc-musl.a(gmtime.o)
 .debug_aranges
                0x00000000       0x20 c:/program files/microchip/xc32/v4.21/bin/bin/../../lib/gcc/pic32c/8.3.1/../../../../pic32c/lib/thumb/v8-m.base/nofp\libc-musl.a(gmtime.o)
 .debug_ranges  0x00000000       0x10 c:/program files/microchip/xc32/v4.21/bin/bin/../../lib/gcc/pic32c/8.3.1/../../../../pic32c/lib/thumb/v8-m.base/nofp\libc-musl.a(gmtime.o)
 .debug_line    0x00000000      0x13e c:/program files/microchip/xc32/v4.21/bin/bin/../../lib/gcc/pic32c/8.3.1/../../../../pic32c/lib/thumb/v8-m.base/nofp\libc-musl.a(gmtime.o)
 .debug_str     0x00000000        0xb c:/program files/microchip/xc32/v4.21/bin/bin/../../lib/gcc/pic32c/8.3.1/../../../../pic32c/lib/thumb/v8-m.base/nofp\libc-musl.a(gmtime.o)
 .comment       0x00000000       0x2c c:/program files/microchip/xc32/v4.21/bin/bin/../../lib/gcc/pic32c/8.3.1/../../../../pic32c/lib/thumb/v8-m.base/nofp\libc-musl.a(gmtime.o)
 .note.GNU-stack
                0x00000000        0x0 c:/program files/microchip/xc32/v4.21/bin/bin/../../lib/gcc/pic32c/8.3.1/../../../../pic32c/lib/thumb/v8-m.base/nofp\libc-musl.a(gmtime.o)
 .debug_frame   0x00000000       0x28 c:/program files/microchip/xc32/v4.21/bin/bin/../../lib/gcc/pic32c/8.3.1/../../../../pic32c/lib/thumb/v8-m.base/nofp\libc-musl.a(gmtime.o)
 .ARM.attributes
                0x00000000       0x32 c:/program files/microchip/xc32/v4.21/bin/bin/../../lib/gcc/pic32c/8.3.1/../../../../pic32c/lib/thumb/v8-m.base/nofp\libc-musl.a(gmtime.o)
 .text          0x00000000        0x0 c:/program files/microchip/xc32/v4.21/bin/bin/../../lib/gcc/pic32c/8.3.1/../../../../pic32c/lib/thumb/v8-m.base/nofp\libc-musl.a(gmtime_r.o)
 .data          0x00000000        0x0 c:/program files/microchip/xc32/v4.21/bin/bin/../../lib/gcc/pic32c/8.3.1/../../../../pic32c/lib/thumb/v8-m.base/nofp\libc-musl.a(gmtime_r.o)
 .bss           0x00000000        0x0 c:/program files/microchip/xc32/v4.21/bin/bin/../../lib/gcc/pic32c/8.3.1/../../../../pic32c/lib/thumb/v8-m.base/nofp\libc-musl.a(gmtime_r.o)
 .xc_stack_usage
                0x00000000       0x18 c:/program files/microchip/xc32/v4.21/bin/bin/../../lib/gcc/pic32c/8.3.1/../../../../pic32c/lib/thumb/v8-m.base/nofp\libc-musl.a(gmtime_r.o)
 .text.__gmtime_r
                0x00000000       0x34 c:/program files/microchip/xc32/v4.21/bin/bin/../../lib/gcc/pic32c/8.3.1/../../../../pic32c/lib/thumb/v8-m.base/nofp\libc-musl.a(gmtime_r.o)
 .rodata        0x00000000        0x4 c:/program files/microchip/xc32/v4.21/bin/bin/../../lib/gcc/pic32c/8.3.1/../../../../pic32c/lib/thumb/v8-m.base/nofp\libc-musl.a(gmtime_r.o)
 .xc_stack_usage.hdr
                0x00000000        0xe c:/program files/microchip/xc32/v4.21/bin/bin/../../lib/gcc/pic32c/8.3.1/../../../../pic32c/lib/thumb/v8-m.base/nofp\libc-musl.a(gmtime_r.o)
 .debug_info    0x00000000      0x3fe c:/program files/microchip/xc32/v4.21/bin/bin/../../lib/gcc/pic32c/8.3.1/../../../../pic32c/lib/thumb/v8-m.base/nofp\libc-musl.a(gmtime_r.o)
 .debug_abbrev  0x00000000       0xd2 c:/program files/microchip/xc32/v4.21/bin/bin/../../lib/gcc/pic32c/8.3.1/../../../../pic32c/lib/thumb/v8-m.base/nofp\libc-musl.a(gmtime_r.o)
 .debug_loc     0x00000000       0x91 c:/program files/microchip/xc32/v4.21/bin/bin/../../lib/gcc/pic32c/8.3.1/../../../../pic32c/lib/thumb/v8-m.base/nofp\libc-musl.a(gmtime_r.o)
 .debug_aranges
                0x00000000       0x20 c:/program files/microchip/xc32/v4.21/bin/bin/../../lib/gcc/pic32c/8.3.1/../../../../pic32c/lib/thumb/v8-m.base/nofp\libc-musl.a(gmtime_r.o)
 .debug_ranges  0x00000000       0x10 c:/program files/microchip/xc32/v4.21/bin/bin/../../lib/gcc/pic32c/8.3.1/../../../../pic32c/lib/thumb/v8-m.base/nofp\libc-musl.a(gmtime_r.o)
 .debug_line    0x00000000      0x278 c:/program files/microchip/xc32/v4.21/bin/bin/../../lib/gcc/pic32c/8.3.1/../../../../pic32c/lib/thumb/v8-m.base/nofp\libc-musl.a(gmtime_r.o)
 .debug_str     0x00000000        0xd c:/program files/microchip/xc32/v4.21/bin/bin/../../lib/gcc/pic32c/8.3.1/../../../../pic32c/lib/thumb/v8-m.base/nofp\libc-musl.a(gmtime_r.o)
 .comment       0x00000000       0x2c c:/program files/microchip/xc32/v4.21/bin/bin/../../lib/gcc/pic32c/8.3.1/../../../../pic32c/lib/thumb/v8-m.base/nofp\libc-musl.a(gmtime_r.o)
 .note.GNU-stack
                0x00000000        0x0 c:/program files/microchip/xc32/v4.21/bin/bin/../../lib/gcc/pic32c/8.3.1/../../../../pic32c/lib/thumb/v8-m.base/nofp\libc-musl.a(gmtime_r.o)
 .debug_frame   0x00000000       0x2c c:/program files/microchip/xc32/v4.21/bin/bin/../../lib/gcc/pic32c/8.3.1/../../../../pic32c/lib/thumb/v8-m.base/nofp\libc-musl.a(gmtime_r.o)
 .ARM.attributes
                0x00000000       0x32 c:/program files/microchip/xc32/v4.21/bin/bin/../../lib/gcc/pic32c/8.3.1/../../../../pic32c/lib/thumb/v8-m.base/nofp\libc-musl.a(gmtime_r.o)
 .text          0x00000000        0x0 c:/program files/microchip/xc32/v4.21/bin/bin/../../lib/gcc/pic32c/8.3.1/../../../../pic32c/lib/thumb/v8-m.base/nofp\libc-musl.a(time.o)
 .data          0x00000000        0x0 c:/program files/microchip/xc32/v4.21/bin/bin/../../lib/gcc/pic32c/8.3.1/../../../../pic32c/lib/thumb/v8-m.base/nofp\libc-musl.a(time.o)
 .bss           0x00000000        0x0 c:/program files/microchip/xc32/v4.21/bin/bin/../../lib/gcc/pic32c/8.3.1/../../../../pic32c/lib/thumb/v8-m.base/nofp\libc-musl.a(time.o)
 .xc_stack_usage
                0x00000000       0x12 c:/program files/microchip/xc32/v4.21/bin/bin/../../lib/gcc/pic32c/8.3.1/../../../../pic32c/lib/thumb/v8-m.base/nofp\libc-musl.a(time.o)
 .text.time     0x00000000       0x14 c:/program files/microchip/xc32/v4.21/bin/bin/../../lib/gcc/pic32c/8.3.1/../../../../pic32c/lib/thumb/v8-m.base/nofp\libc-musl.a(time.o)
 .xc_stack_usage.hdr
                0x00000000        0xe c:/program files/microchip/xc32/v4.21/bin/bin/../../lib/gcc/pic32c/8.3.1/../../../../pic32c/lib/thumb/v8-m.base/nofp\libc-musl.a(time.o)
 .debug_info    0x00000000      0x31c c:/program files/microchip/xc32/v4.21/bin/bin/../../lib/gcc/pic32c/8.3.1/../../../../pic32c/lib/thumb/v8-m.base/nofp\libc-musl.a(time.o)
 .debug_abbrev  0x00000000       0xc9 c:/program files/microchip/xc32/v4.21/bin/bin/../../lib/gcc/pic32c/8.3.1/../../../../pic32c/lib/thumb/v8-m.base/nofp\libc-musl.a(time.o)
 .debug_loc     0x00000000       0x52 c:/program files/microchip/xc32/v4.21/bin/bin/../../lib/gcc/pic32c/8.3.1/../../../../pic32c/lib/thumb/v8-m.base/nofp\libc-musl.a(time.o)
 .debug_aranges
                0x00000000       0x20 c:/program files/microchip/xc32/v4.21/bin/bin/../../lib/gcc/pic32c/8.3.1/../../../../pic32c/lib/thumb/v8-m.base/nofp\libc-musl.a(time.o)
 .debug_ranges  0x00000000       0x10 c:/program files/microchip/xc32/v4.21/bin/bin/../../lib/gcc/pic32c/8.3.1/../../../../pic32c/lib/thumb/v8-m.base/nofp\libc-musl.a(time.o)
 .debug_line    0x00000000       0xe1 c:/program files/microchip/xc32/v4.21/bin/bin/../../lib/gcc/pic32c/8.3.1/../../../../pic32c/lib/thumb/v8-m.base/nofp\libc-musl.a(time.o)
 .debug_str     0x00000000       0x10 c:/program files/microchip/xc32/v4.21/bin/bin/../../lib/gcc/pic32c/8.3.1/../../../../pic32c/lib/thumb/v8-m.base/nofp\libc-musl.a(time.o)
 .comment       0x00000000       0x2c c:/program files/microchip/xc32/v4.21/bin/bin/../../lib/gcc/pic32c/8.3.1/../../../../pic32c/lib/thumb/v8-m.base/nofp\libc-musl.a(time.o)
 .note.GNU-stack
                0x00000000        0x0 c:/program files/microchip/xc32/v4.21/bin/bin/../../lib/gcc/pic32c/8.3.1/../../../../pic32c/lib/thumb/v8-m.base/nofp\libc-musl.a(time.o)
 .debug_frame   0x00000000       0x2c c:/program files/microchip/xc32/v4.21/bin/bin/../../lib/gcc/pic32c/8.3.1/../../../../pic32c/lib/thumb/v8-m.base/nofp\libc-musl.a(time.o)
 .ARM.attributes
                0x00000000       0x32 c:/program files/microchip/xc32/v4.21/bin/bin/../../lib/gcc/pic32c/8.3.1/../../../../pic32c/lib/thumb/v8-m.base/nofp\libc-musl.a(time.o)
 .text          0x00000000        0x0 c:/program files/microchip/xc32/v4.21/bin/bin/../../lib/gcc/pic32c/8.3.1/../../../../pic32c/lib/thumb/v8-m.base/nofp\libc-musl.a(__environ.o)
 .data          0x00000000        0x0 c:/program files/microchip/xc32/v4.21/bin/bin/../../lib/gcc/pic32c/8.3.1/../../../../pic32c/lib/thumb/v8-m.base/nofp\libc-musl.a(__environ.o)
 .xc_stack_usage.hdr
                0x00000000        0xe c:/program files/microchip/xc32/v4.21/bin/bin/../../lib/gcc/pic32c/8.3.1/../../../../pic32c/lib/thumb/v8-m.base/nofp\libc-musl.a(__environ.o)
 .text          0x00000000        0x0 c:/program files/microchip/xc32/v4.21/bin/bin/../../lib/gcc/pic32c/8.3.1/../../../../pic32c/lib/thumb/v8-m.base/nofp\libc-musl.a(__errno_location.o)
 .data          0x00000000        0x0 c:/program files/microchip/xc32/v4.21/bin/bin/../../lib/gcc/pic32c/8.3.1/../../../../pic32c/lib/thumb/v8-m.base/nofp\libc-musl.a(__errno_location.o)
 .xc_stack_usage.hdr
                0x00000000        0xe c:/program files/microchip/xc32/v4.21/bin/bin/../../lib/gcc/pic32c/8.3.1/../../../../pic32c/lib/thumb/v8-m.base/nofp\libc-musl.a(__errno_location.o)
 .text          0x00000000        0x0 c:/program files/microchip/xc32/v4.21/bin/bin/../../lib/gcc/pic32c/8.3.1/../../../../pic32c/lib/thumb/v8-m.base/nofp\libc-musl.a(__int_vsprintf.o)
 .data          0x00000000        0x0 c:/program files/microchip/xc32/v4.21/bin/bin/../../lib/gcc/pic32c/8.3.1/../../../../pic32c/lib/thumb/v8-m.base/nofp\libc-musl.a(__int_vsprintf.o)
 .bss           0x00000000        0x0 c:/program files/microchip/xc32/v4.21/bin/bin/../../lib/gcc/pic32c/8.3.1/../../../../pic32c/lib/thumb/v8-m.base/nofp\libc-musl.a(__int_vsprintf.o)
 .xc_stack_usage
                0x00000000       0x18 c:/program files/microchip/xc32/v4.21/bin/bin/../../lib/gcc/pic32c/8.3.1/../../../../pic32c/lib/thumb/v8-m.base/nofp\libc-musl.a(__int_vsprintf.o)
 .xc_stack_usage.hdr
                0x00000000        0xe c:/program files/microchip/xc32/v4.21/bin/bin/../../lib/gcc/pic32c/8.3.1/../../../../pic32c/lib/thumb/v8-m.base/nofp\libc-musl.a(__int_vsprintf.o)
 .text          0x00000000        0x0 c:/program files/microchip/xc32/v4.21/bin/bin/../../lib/gcc/pic32c/8.3.1/../../../../pic32c/lib/thumb/v8-m.base/nofp\libc-musl.a(__io_init_needed.o)
 .data          0x00000000        0x0 c:/program files/microchip/xc32/v4.21/bin/bin/../../lib/gcc/pic32c/8.3.1/../../../../pic32c/lib/thumb/v8-m.base/nofp\libc-musl.a(__io_init_needed.o)
 .bss           0x00000000        0x0 c:/program files/microchip/xc32/v4.21/bin/bin/../../lib/gcc/pic32c/8.3.1/../../../../pic32c/lib/thumb/v8-m.base/nofp\libc-musl.a(__io_init_needed.o)
 .xc_stack_usage
                0x00000000       0x40 c:/program files/microchip/xc32/v4.21/bin/bin/../../lib/gcc/pic32c/8.3.1/../../../../pic32c/lib/thumb/v8-m.base/nofp\libc-musl.a(__io_init_needed.o)
 .xc_stack_usage.hdr
                0x00000000        0xe c:/program files/microchip/xc32/v4.21/bin/bin/../../lib/gcc/pic32c/8.3.1/../../../../pic32c/lib/thumb/v8-m.base/nofp\libc-musl.a(__io_init_needed.o)
 .debug_info    0x00000000      0x369 c:/program files/microchip/xc32/v4.21/bin/bin/../../lib/gcc/pic32c/8.3.1/../../../../pic32c/lib/thumb/v8-m.base/nofp\libc-musl.a(__io_init_needed.o)
 .debug_abbrev  0x00000000       0x76 c:/program files/microchip/xc32/v4.21/bin/bin/../../lib/gcc/pic32c/8.3.1/../../../../pic32c/lib/thumb/v8-m.base/nofp\libc-musl.a(__io_init_needed.o)
 .debug_loc     0x00000000       0x40 c:/program files/microchip/xc32/v4.21/bin/bin/../../lib/gcc/pic32c/8.3.1/../../../../pic32c/lib/thumb/v8-m.base/nofp\libc-musl.a(__io_init_needed.o)
 .debug_aranges
                0x00000000       0x28 c:/program files/microchip/xc32/v4.21/bin/bin/../../lib/gcc/pic32c/8.3.1/../../../../pic32c/lib/thumb/v8-m.base/nofp\libc-musl.a(__io_init_needed.o)
 .debug_ranges  0x00000000       0x18 c:/program files/microchip/xc32/v4.21/bin/bin/../../lib/gcc/pic32c/8.3.1/../../../../pic32c/lib/thumb/v8-m.base/nofp\libc-musl.a(__io_init_needed.o)
 .debug_line    0x00000000      0x145 c:/program files/microchip/xc32/v4.21/bin/bin/../../lib/gcc/pic32c/8.3.1/../../../../pic32c/lib/thumb/v8-m.base/nofp\libc-musl.a(__io_init_needed.o)
 .debug_str     0x00000000       0x25 c:/program files/microchip/xc32/v4.21/bin/bin/../../lib/gcc/pic32c/8.3.1/../../../../pic32c/lib/thumb/v8-m.base/nofp\libc-musl.a(__io_init_needed.o)
 .comment       0x00000000       0x2c c:/program files/microchip/xc32/v4.21/bin/bin/../../lib/gcc/pic32c/8.3.1/../../../../pic32c/lib/thumb/v8-m.base/nofp\libc-musl.a(__io_init_needed.o)
 .note.GNU-stack
                0x00000000        0x0 c:/program files/microchip/xc32/v4.21/bin/bin/../../lib/gcc/pic32c/8.3.1/../../../../pic32c/lib/thumb/v8-m.base/nofp\libc-musl.a(__io_init_needed.o)
 .debug_frame   0x00000000       0x40 c:/program files/microchip/xc32/v4.21/bin/bin/../../lib/gcc/pic32c/8.3.1/../../../../pic32c/lib/thumb/v8-m.base/nofp\libc-musl.a(__io_init_needed.o)
 .ARM.attributes
                0x00000000       0x32 c:/program files/microchip/xc32/v4.21/bin/bin/../../lib/gcc/pic32c/8.3.1/../../../../pic32c/lib/thumb/v8-m.base/nofp\libc-musl.a(__io_init_needed.o)
 .text          0x00000000        0x0 c:/program files/microchip/xc32/v4.21/bin/bin/../../lib/gcc/pic32c/8.3.1/../../../../pic32c/lib/thumb/v8-m.base/nofp\libc-musl.a(__io_rw_needed.o)
 .data          0x00000000        0x0 c:/program files/microchip/xc32/v4.21/bin/bin/../../lib/gcc/pic32c/8.3.1/../../../../pic32c/lib/thumb/v8-m.base/nofp\libc-musl.a(__io_rw_needed.o)
 .bss           0x00000000        0x0 c:/program files/microchip/xc32/v4.21/bin/bin/../../lib/gcc/pic32c/8.3.1/../../../../pic32c/lib/thumb/v8-m.base/nofp\libc-musl.a(__io_rw_needed.o)
 .xc_stack_usage
                0x00000000       0x1c c:/program files/microchip/xc32/v4.21/bin/bin/../../lib/gcc/pic32c/8.3.1/../../../../pic32c/lib/thumb/v8-m.base/nofp\libc-musl.a(__io_rw_needed.o)
 .xc_stack_usage.hdr
                0x00000000        0xe c:/program files/microchip/xc32/v4.21/bin/bin/../../lib/gcc/pic32c/8.3.1/../../../../pic32c/lib/thumb/v8-m.base/nofp\libc-musl.a(__io_rw_needed.o)
 .debug_info    0x00000000      0x367 c:/program files/microchip/xc32/v4.21/bin/bin/../../lib/gcc/pic32c/8.3.1/../../../../pic32c/lib/thumb/v8-m.base/nofp\libc-musl.a(__io_rw_needed.o)
 .debug_abbrev  0x00000000       0x5c c:/program files/microchip/xc32/v4.21/bin/bin/../../lib/gcc/pic32c/8.3.1/../../../../pic32c/lib/thumb/v8-m.base/nofp\libc-musl.a(__io_rw_needed.o)
 .debug_loc     0x00000000       0x20 c:/program files/microchip/xc32/v4.21/bin/bin/../../lib/gcc/pic32c/8.3.1/../../../../pic32c/lib/thumb/v8-m.base/nofp\libc-musl.a(__io_rw_needed.o)
 .debug_aranges
                0x00000000       0x20 c:/program files/microchip/xc32/v4.21/bin/bin/../../lib/gcc/pic32c/8.3.1/../../../../pic32c/lib/thumb/v8-m.base/nofp\libc-musl.a(__io_rw_needed.o)
 .debug_ranges  0x00000000       0x10 c:/program files/microchip/xc32/v4.21/bin/bin/../../lib/gcc/pic32c/8.3.1/../../../../pic32c/lib/thumb/v8-m.base/nofp\libc-musl.a(__io_rw_needed.o)
 .debug_line    0x00000000      0x13b c:/program files/microchip/xc32/v4.21/bin/bin/../../lib/gcc/pic32c/8.3.1/../../../../pic32c/lib/thumb/v8-m.base/nofp\libc-musl.a(__io_rw_needed.o)
 .debug_str     0x00000000       0x4d c:/program files/microchip/xc32/v4.21/bin/bin/../../lib/gcc/pic32c/8.3.1/../../../../pic32c/lib/thumb/v8-m.base/nofp\libc-musl.a(__io_rw_needed.o)
 .comment       0x00000000       0x2c c:/program files/microchip/xc32/v4.21/bin/bin/../../lib/gcc/pic32c/8.3.1/../../../../pic32c/lib/thumb/v8-m.base/nofp\libc-musl.a(__io_rw_needed.o)
 .note.GNU-stack
                0x00000000        0x0 c:/program files/microchip/xc32/v4.21/bin/bin/../../lib/gcc/pic32c/8.3.1/../../../../pic32c/lib/thumb/v8-m.base/nofp\libc-musl.a(__io_rw_needed.o)
 .debug_frame   0x00000000       0x28 c:/program files/microchip/xc32/v4.21/bin/bin/../../lib/gcc/pic32c/8.3.1/../../../../pic32c/lib/thumb/v8-m.base/nofp\libc-musl.a(__io_rw_needed.o)
 .ARM.attributes
                0x00000000       0x32 c:/program files/microchip/xc32/v4.21/bin/bin/../../lib/gcc/pic32c/8.3.1/../../../../pic32c/lib/thumb/v8-m.base/nofp\libc-musl.a(__io_rw_needed.o)
 .text          0x00000000        0x0 c:/program files/microchip/xc32/v4.21/bin/bin/../../lib/gcc/pic32c/8.3.1/../../../../pic32c/lib/thumb/v8-m.base/nofp\libc-musl.a(__pop_float.o)
 .data          0x00000000        0x0 c:/program files/microchip/xc32/v4.21/bin/bin/../../lib/gcc/pic32c/8.3.1/../../../../pic32c/lib/thumb/v8-m.base/nofp\libc-musl.a(__pop_float.o)
 .bss           0x00000000        0x0 c:/program files/microchip/xc32/v4.21/bin/bin/../../lib/gcc/pic32c/8.3.1/../../../../pic32c/lib/thumb/v8-m.base/nofp\libc-musl.a(__pop_float.o)
 .xc_stack_usage
                0x00000000       0x19 c:/program files/microchip/xc32/v4.21/bin/bin/../../lib/gcc/pic32c/8.3.1/../../../../pic32c/lib/thumb/v8-m.base/nofp\libc-musl.a(__pop_float.o)
 .xc_stack_usage.hdr
                0x00000000        0xe c:/program files/microchip/xc32/v4.21/bin/bin/../../lib/gcc/pic32c/8.3.1/../../../../pic32c/lib/thumb/v8-m.base/nofp\libc-musl.a(__pop_float.o)
 .text          0x00000000        0x0 c:/program files/microchip/xc32/v4.21/bin/bin/../../lib/gcc/pic32c/8.3.1/../../../../pic32c/lib/thumb/v8-m.base/nofp\libc-musl.a(__stdio_read.o)
 .data          0x00000000        0x0 c:/program files/microchip/xc32/v4.21/bin/bin/../../lib/gcc/pic32c/8.3.1/../../../../pic32c/lib/thumb/v8-m.base/nofp\libc-musl.a(__stdio_read.o)
 .bss           0x00000000        0x0 c:/program files/microchip/xc32/v4.21/bin/bin/../../lib/gcc/pic32c/8.3.1/../../../../pic32c/lib/thumb/v8-m.base/nofp\libc-musl.a(__stdio_read.o)
 .xc_stack_usage
                0x00000000       0x1a c:/program files/microchip/xc32/v4.21/bin/bin/../../lib/gcc/pic32c/8.3.1/../../../../pic32c/lib/thumb/v8-m.base/nofp\libc-musl.a(__stdio_read.o)
 .xc_stack_usage.hdr
                0x00000000        0xe c:/program files/microchip/xc32/v4.21/bin/bin/../../lib/gcc/pic32c/8.3.1/../../../../pic32c/lib/thumb/v8-m.base/nofp\libc-musl.a(__stdio_read.o)
 .text          0x00000000        0x0 c:/program files/microchip/xc32/v4.21/bin/bin/../../lib/gcc/pic32c/8.3.1/../../../../pic32c/lib/thumb/v8-m.base/nofp\libc-musl.a(__towrite_rw.o)
 .data          0x00000000        0x0 c:/program files/microchip/xc32/v4.21/bin/bin/../../lib/gcc/pic32c/8.3.1/../../../../pic32c/lib/thumb/v8-m.base/nofp\libc-musl.a(__towrite_rw.o)
 .bss           0x00000000        0x0 c:/program files/microchip/xc32/v4.21/bin/bin/../../lib/gcc/pic32c/8.3.1/../../../../pic32c/lib/thumb/v8-m.base/nofp\libc-musl.a(__towrite_rw.o)
 .xc_stack_usage
                0x00000000       0x1a c:/program files/microchip/xc32/v4.21/bin/bin/../../lib/gcc/pic32c/8.3.1/../../../../pic32c/lib/thumb/v8-m.base/nofp\libc-musl.a(__towrite_rw.o)
 .xc_stack_usage.hdr
                0x00000000        0xe c:/program files/microchip/xc32/v4.21/bin/bin/../../lib/gcc/pic32c/8.3.1/../../../../pic32c/lib/thumb/v8-m.base/nofp\libc-musl.a(__towrite_rw.o)
 .text          0x00000000        0x0 c:/program files/microchip/xc32/v4.21/bin/bin/../../lib/gcc/pic32c/8.3.1/../../../../pic32c/lib/thumb/v8-m.base/nofp\libc-musl.a(setvbuf.o)
 .data          0x00000000        0x0 c:/program files/microchip/xc32/v4.21/bin/bin/../../lib/gcc/pic32c/8.3.1/../../../../pic32c/lib/thumb/v8-m.base/nofp\libc-musl.a(setvbuf.o)
 .bss           0x00000000        0x0 c:/program files/microchip/xc32/v4.21/bin/bin/../../lib/gcc/pic32c/8.3.1/../../../../pic32c/lib/thumb/v8-m.base/nofp\libc-musl.a(setvbuf.o)
 .xc_stack_usage
                0x00000000       0x36 c:/program files/microchip/xc32/v4.21/bin/bin/../../lib/gcc/pic32c/8.3.1/../../../../pic32c/lib/thumb/v8-m.base/nofp\libc-musl.a(setvbuf.o)
 .xc_stack_usage.hdr
                0x00000000        0xe c:/program files/microchip/xc32/v4.21/bin/bin/../../lib/gcc/pic32c/8.3.1/../../../../pic32c/lib/thumb/v8-m.base/nofp\libc-musl.a(setvbuf.o)
 .text          0x00000000        0x0 c:/program files/microchip/xc32/v4.21/bin/bin/../../lib/gcc/pic32c/8.3.1/../../../../pic32c/lib/thumb/v8-m.base/nofp\libc-musl.a(stpncpy.o)
 .data          0x00000000        0x0 c:/program files/microchip/xc32/v4.21/bin/bin/../../lib/gcc/pic32c/8.3.1/../../../../pic32c/lib/thumb/v8-m.base/nofp\libc-musl.a(stpncpy.o)
 .bss           0x00000000        0x0 c:/program files/microchip/xc32/v4.21/bin/bin/../../lib/gcc/pic32c/8.3.1/../../../../pic32c/lib/thumb/v8-m.base/nofp\libc-musl.a(stpncpy.o)
 .xc_stack_usage
                0x00000000       0x15 c:/program files/microchip/xc32/v4.21/bin/bin/../../lib/gcc/pic32c/8.3.1/../../../../pic32c/lib/thumb/v8-m.base/nofp\libc-musl.a(stpncpy.o)
 .text.stpncpy  0x00000000       0x2e c:/program files/microchip/xc32/v4.21/bin/bin/../../lib/gcc/pic32c/8.3.1/../../../../pic32c/lib/thumb/v8-m.base/nofp\libc-musl.a(stpncpy.o)
 .xc_stack_usage.hdr
                0x00000000        0xe c:/program files/microchip/xc32/v4.21/bin/bin/../../lib/gcc/pic32c/8.3.1/../../../../pic32c/lib/thumb/v8-m.base/nofp\libc-musl.a(stpncpy.o)
 .debug_info    0x00000000      0x2f5 c:/program files/microchip/xc32/v4.21/bin/bin/../../lib/gcc/pic32c/8.3.1/../../../../pic32c/lib/thumb/v8-m.base/nofp\libc-musl.a(stpncpy.o)
 .debug_abbrev  0x00000000       0x86 c:/program files/microchip/xc32/v4.21/bin/bin/../../lib/gcc/pic32c/8.3.1/../../../../pic32c/lib/thumb/v8-m.base/nofp\libc-musl.a(stpncpy.o)
 .debug_loc     0x00000000      0x1a9 c:/program files/microchip/xc32/v4.21/bin/bin/../../lib/gcc/pic32c/8.3.1/../../../../pic32c/lib/thumb/v8-m.base/nofp\libc-musl.a(stpncpy.o)
 .debug_aranges
                0x00000000       0x20 c:/program files/microchip/xc32/v4.21/bin/bin/../../lib/gcc/pic32c/8.3.1/../../../../pic32c/lib/thumb/v8-m.base/nofp\libc-musl.a(stpncpy.o)
 .debug_ranges  0x00000000       0x10 c:/program files/microchip/xc32/v4.21/bin/bin/../../lib/gcc/pic32c/8.3.1/../../../../pic32c/lib/thumb/v8-m.base/nofp\libc-musl.a(stpncpy.o)
 .debug_line    0x00000000      0x110 c:/program files/microchip/xc32/v4.21/bin/bin/../../lib/gcc/pic32c/8.3.1/../../../../pic32c/lib/thumb/v8-m.base/nofp\libc-musl.a(stpncpy.o)
 .debug_str     0x00000000        0x0 c:/program files/microchip/xc32/v4.21/bin/bin/../../lib/gcc/pic32c/8.3.1/../../../../pic32c/lib/thumb/v8-m.base/nofp\libc-musl.a(stpncpy.o)
 .comment       0x00000000       0x2c c:/program files/microchip/xc32/v4.21/bin/bin/../../lib/gcc/pic32c/8.3.1/../../../../pic32c/lib/thumb/v8-m.base/nofp\libc-musl.a(stpncpy.o)
 .note.GNU-stack
                0x00000000        0x0 c:/program files/microchip/xc32/v4.21/bin/bin/../../lib/gcc/pic32c/8.3.1/../../../../pic32c/lib/thumb/v8-m.base/nofp\libc-musl.a(stpncpy.o)
 .debug_frame   0x00000000       0x28 c:/program files/microchip/xc32/v4.21/bin/bin/../../lib/gcc/pic32c/8.3.1/../../../../pic32c/lib/thumb/v8-m.base/nofp\libc-musl.a(stpncpy.o)
 .ARM.attributes
                0x00000000       0x32 c:/program files/microchip/xc32/v4.21/bin/bin/../../lib/gcc/pic32c/8.3.1/../../../../pic32c/lib/thumb/v8-m.base/nofp\libc-musl.a(stpncpy.o)
 .text          0x00000000        0x0 c:/program files/microchip/xc32/v4.21/bin/bin/../../lib/gcc/pic32c/8.3.1/../../../../pic32c/lib/thumb/v8-m.base/nofp\libc-musl.a(__secs_to_tm.o)
 .data          0x00000000        0x0 c:/program files/microchip/xc32/v4.21/bin/bin/../../lib/gcc/pic32c/8.3.1/../../../../pic32c/lib/thumb/v8-m.base/nofp\libc-musl.a(__secs_to_tm.o)
 .bss           0x00000000        0x0 c:/program files/microchip/xc32/v4.21/bin/bin/../../lib/gcc/pic32c/8.3.1/../../../../pic32c/lib/thumb/v8-m.base/nofp\libc-musl.a(__secs_to_tm.o)
 .xc_stack_usage
                0x00000000       0x1a c:/program files/microchip/xc32/v4.21/bin/bin/../../lib/gcc/pic32c/8.3.1/../../../../pic32c/lib/thumb/v8-m.base/nofp\libc-musl.a(__secs_to_tm.o)
 .text.__secs_to_tm
                0x00000000      0x1b8 c:/program files/microchip/xc32/v4.21/bin/bin/../../lib/gcc/pic32c/8.3.1/../../../../pic32c/lib/thumb/v8-m.base/nofp\libc-musl.a(__secs_to_tm.o)
 .rodata        0x00000000        0xc c:/program files/microchip/xc32/v4.21/bin/bin/../../lib/gcc/pic32c/8.3.1/../../../../pic32c/lib/thumb/v8-m.base/nofp\libc-musl.a(__secs_to_tm.o)
 .xc_stack_usage.hdr
                0x00000000        0xe c:/program files/microchip/xc32/v4.21/bin/bin/../../lib/gcc/pic32c/8.3.1/../../../../pic32c/lib/thumb/v8-m.base/nofp\libc-musl.a(__secs_to_tm.o)
 .debug_info    0x00000000      0x52c c:/program files/microchip/xc32/v4.21/bin/bin/../../lib/gcc/pic32c/8.3.1/../../../../pic32c/lib/thumb/v8-m.base/nofp\libc-musl.a(__secs_to_tm.o)
 .debug_abbrev  0x00000000       0xbc c:/program files/microchip/xc32/v4.21/bin/bin/../../lib/gcc/pic32c/8.3.1/../../../../pic32c/lib/thumb/v8-m.base/nofp\libc-musl.a(__secs_to_tm.o)
 .debug_loc     0x00000000      0x2af c:/program files/microchip/xc32/v4.21/bin/bin/../../lib/gcc/pic32c/8.3.1/../../../../pic32c/lib/thumb/v8-m.base/nofp\libc-musl.a(__secs_to_tm.o)
 .debug_aranges
                0x00000000       0x20 c:/program files/microchip/xc32/v4.21/bin/bin/../../lib/gcc/pic32c/8.3.1/../../../../pic32c/lib/thumb/v8-m.base/nofp\libc-musl.a(__secs_to_tm.o)
 .debug_ranges  0x00000000       0x10 c:/program files/microchip/xc32/v4.21/bin/bin/../../lib/gcc/pic32c/8.3.1/../../../../pic32c/lib/thumb/v8-m.base/nofp\libc-musl.a(__secs_to_tm.o)
 .debug_line    0x00000000      0x30f c:/program files/microchip/xc32/v4.21/bin/bin/../../lib/gcc/pic32c/8.3.1/../../../../pic32c/lib/thumb/v8-m.base/nofp\libc-musl.a(__secs_to_tm.o)
 .debug_str     0x00000000        0x0 c:/program files/microchip/xc32/v4.21/bin/bin/../../lib/gcc/pic32c/8.3.1/../../../../pic32c/lib/thumb/v8-m.base/nofp\libc-musl.a(__secs_to_tm.o)
 .comment       0x00000000       0x2c c:/program files/microchip/xc32/v4.21/bin/bin/../../lib/gcc/pic32c/8.3.1/../../../../pic32c/lib/thumb/v8-m.base/nofp\libc-musl.a(__secs_to_tm.o)
 .note.GNU-stack
                0x00000000        0x0 c:/program files/microchip/xc32/v4.21/bin/bin/../../lib/gcc/pic32c/8.3.1/../../../../pic32c/lib/thumb/v8-m.base/nofp\libc-musl.a(__secs_to_tm.o)
 .debug_frame   0x00000000       0x30 c:/program files/microchip/xc32/v4.21/bin/bin/../../lib/gcc/pic32c/8.3.1/../../../../pic32c/lib/thumb/v8-m.base/nofp\libc-musl.a(__secs_to_tm.o)
 .ARM.attributes
                0x00000000       0x32 c:/program files/microchip/xc32/v4.21/bin/bin/../../lib/gcc/pic32c/8.3.1/../../../../pic32c/lib/thumb/v8-m.base/nofp\libc-musl.a(__secs_to_tm.o)
 .text          0x00000000        0x0 c:/program files/microchip/xc32/v4.21/bin/bin/../../lib/gcc/pic32c/8.3.1/../../../../pic32c/lib/thumb/v8-m.base/nofp\libc-musl.a(clock_gettime.o)
 .data          0x00000000        0x0 c:/program files/microchip/xc32/v4.21/bin/bin/../../lib/gcc/pic32c/8.3.1/../../../../pic32c/lib/thumb/v8-m.base/nofp\libc-musl.a(clock_gettime.o)
 .bss           0x00000000        0x0 c:/program files/microchip/xc32/v4.21/bin/bin/../../lib/gcc/pic32c/8.3.1/../../../../pic32c/lib/thumb/v8-m.base/nofp\libc-musl.a(clock_gettime.o)
 .xc_stack_usage
                0x00000000       0x1d c:/program files/microchip/xc32/v4.21/bin/bin/../../lib/gcc/pic32c/8.3.1/../../../../pic32c/lib/thumb/v8-m.base/nofp\libc-musl.a(clock_gettime.o)
 .text.__clock_gettime
                0x00000000       0x2a c:/program files/microchip/xc32/v4.21/bin/bin/../../lib/gcc/pic32c/8.3.1/../../../../pic32c/lib/thumb/v8-m.base/nofp\libc-musl.a(clock_gettime.o)
 .xc_stack_usage.hdr
                0x00000000        0xe c:/program files/microchip/xc32/v4.21/bin/bin/../../lib/gcc/pic32c/8.3.1/../../../../pic32c/lib/thumb/v8-m.base/nofp\libc-musl.a(clock_gettime.o)
 .debug_info    0x00000000      0x441 c:/program files/microchip/xc32/v4.21/bin/bin/../../lib/gcc/pic32c/8.3.1/../../../../pic32c/lib/thumb/v8-m.base/nofp\libc-musl.a(clock_gettime.o)
 .debug_abbrev  0x00000000      0x102 c:/program files/microchip/xc32/v4.21/bin/bin/../../lib/gcc/pic32c/8.3.1/../../../../pic32c/lib/thumb/v8-m.base/nofp\libc-musl.a(clock_gettime.o)
 .debug_loc     0x00000000       0xc3 c:/program files/microchip/xc32/v4.21/bin/bin/../../lib/gcc/pic32c/8.3.1/../../../../pic32c/lib/thumb/v8-m.base/nofp\libc-musl.a(clock_gettime.o)
 .debug_aranges
                0x00000000       0x20 c:/program files/microchip/xc32/v4.21/bin/bin/../../lib/gcc/pic32c/8.3.1/../../../../pic32c/lib/thumb/v8-m.base/nofp\libc-musl.a(clock_gettime.o)
 .debug_ranges  0x00000000       0x10 c:/program files/microchip/xc32/v4.21/bin/bin/../../lib/gcc/pic32c/8.3.1/../../../../pic32c/lib/thumb/v8-m.base/nofp\libc-musl.a(clock_gettime.o)
 .debug_line    0x00000000      0x1ff c:/program files/microchip/xc32/v4.21/bin/bin/../../lib/gcc/pic32c/8.3.1/../../../../pic32c/lib/thumb/v8-m.base/nofp\libc-musl.a(clock_gettime.o)
 .debug_str     0x00000000       0x1b c:/program files/microchip/xc32/v4.21/bin/bin/../../lib/gcc/pic32c/8.3.1/../../../../pic32c/lib/thumb/v8-m.base/nofp\libc-musl.a(clock_gettime.o)
 .comment       0x00000000       0x2c c:/program files/microchip/xc32/v4.21/bin/bin/../../lib/gcc/pic32c/8.3.1/../../../../pic32c/lib/thumb/v8-m.base/nofp\libc-musl.a(clock_gettime.o)
 .note.GNU-stack
                0x00000000        0x0 c:/program files/microchip/xc32/v4.21/bin/bin/../../lib/gcc/pic32c/8.3.1/../../../../pic32c/lib/thumb/v8-m.base/nofp\libc-musl.a(clock_gettime.o)
 .debug_frame   0x00000000       0x2c c:/program files/microchip/xc32/v4.21/bin/bin/../../lib/gcc/pic32c/8.3.1/../../../../pic32c/lib/thumb/v8-m.base/nofp\libc-musl.a(clock_gettime.o)
 .ARM.attributes
                0x00000000       0x32 c:/program files/microchip/xc32/v4.21/bin/bin/../../lib/gcc/pic32c/8.3.1/../../../../pic32c/lib/thumb/v8-m.base/nofp\libc-musl.a(clock_gettime.o)
 .text          0x00000000        0x0 c:/program files/microchip/xc32/v4.21/bin/bin/../../lib/gcc/pic32c/8.3.1/../../../../pic32c/lib/thumb/v8-m.base/nofp\libc-musl.a(gettimeofday.o)
 .data          0x00000000        0x0 c:/program files/microchip/xc32/v4.21/bin/bin/../../lib/gcc/pic32c/8.3.1/../../../../pic32c/lib/thumb/v8-m.base/nofp\libc-musl.a(gettimeofday.o)
 .bss           0x00000000        0x0 c:/program files/microchip/xc32/v4.21/bin/bin/../../lib/gcc/pic32c/8.3.1/../../../../pic32c/lib/thumb/v8-m.base/nofp\libc-musl.a(gettimeofday.o)
 .xc_stack_usage
                0x00000000       0x1c c:/program files/microchip/xc32/v4.21/bin/bin/../../lib/gcc/pic32c/8.3.1/../../../../pic32c/lib/thumb/v8-m.base/nofp\libc-musl.a(gettimeofday.o)
 .text.__gettimeofday
                0x00000000        0x6 c:/program files/microchip/xc32/v4.21/bin/bin/../../lib/gcc/pic32c/8.3.1/../../../../pic32c/lib/thumb/v8-m.base/nofp\libc-musl.a(gettimeofday.o)
 .xc_stack_usage.hdr
                0x00000000        0xe c:/program files/microchip/xc32/v4.21/bin/bin/../../lib/gcc/pic32c/8.3.1/../../../../pic32c/lib/thumb/v8-m.base/nofp\libc-musl.a(gettimeofday.o)
 .debug_info    0x00000000      0x323 c:/program files/microchip/xc32/v4.21/bin/bin/../../lib/gcc/pic32c/8.3.1/../../../../pic32c/lib/thumb/v8-m.base/nofp\libc-musl.a(gettimeofday.o)
 .debug_abbrev  0x00000000       0xa3 c:/program files/microchip/xc32/v4.21/bin/bin/../../lib/gcc/pic32c/8.3.1/../../../../pic32c/lib/thumb/v8-m.base/nofp\libc-musl.a(gettimeofday.o)
 .debug_loc     0x00000000       0x25 c:/program files/microchip/xc32/v4.21/bin/bin/../../lib/gcc/pic32c/8.3.1/../../../../pic32c/lib/thumb/v8-m.base/nofp\libc-musl.a(gettimeofday.o)
 .debug_aranges
                0x00000000       0x20 c:/program files/microchip/xc32/v4.21/bin/bin/../../lib/gcc/pic32c/8.3.1/../../../../pic32c/lib/thumb/v8-m.base/nofp\libc-musl.a(gettimeofday.o)
 .debug_ranges  0x00000000       0x10 c:/program files/microchip/xc32/v4.21/bin/bin/../../lib/gcc/pic32c/8.3.1/../../../../pic32c/lib/thumb/v8-m.base/nofp\libc-musl.a(gettimeofday.o)
 .debug_line    0x00000000       0xd4 c:/program files/microchip/xc32/v4.21/bin/bin/../../lib/gcc/pic32c/8.3.1/../../../../pic32c/lib/thumb/v8-m.base/nofp\libc-musl.a(gettimeofday.o)
 .debug_str     0x00000000        0x0 c:/program files/microchip/xc32/v4.21/bin/bin/../../lib/gcc/pic32c/8.3.1/../../../../pic32c/lib/thumb/v8-m.base/nofp\libc-musl.a(gettimeofday.o)
 .comment       0x00000000       0x2c c:/program files/microchip/xc32/v4.21/bin/bin/../../lib/gcc/pic32c/8.3.1/../../../../pic32c/lib/thumb/v8-m.base/nofp\libc-musl.a(gettimeofday.o)
 .note.GNU-stack
                0x00000000        0x0 c:/program files/microchip/xc32/v4.21/bin/bin/../../lib/gcc/pic32c/8.3.1/../../../../pic32c/lib/thumb/v8-m.base/nofp\libc-musl.a(gettimeofday.o)
 .debug_frame   0x00000000       0x20 c:/program files/microchip/xc32/v4.21/bin/bin/../../lib/gcc/pic32c/8.3.1/../../../../pic32c/lib/thumb/v8-m.base/nofp\libc-musl.a(gettimeofday.o)
 .ARM.attributes
                0x00000000       0x32 c:/program files/microchip/xc32/v4.21/bin/bin/../../lib/gcc/pic32c/8.3.1/../../../../pic32c/lib/thumb/v8-m.base/nofp\libc-musl.a(gettimeofday.o)
 .text          0x00000000        0x0 c:/program files/microchip/xc32/v4.21/bin/bin/../../lib/gcc/pic32c/8.3.1/../../../../pic32c/lib/thumb/v8-m.base/nofp\libc-musl.a(readv.o)
 .data          0x00000000        0x0 c:/program files/microchip/xc32/v4.21/bin/bin/../../lib/gcc/pic32c/8.3.1/../../../../pic32c/lib/thumb/v8-m.base/nofp\libc-musl.a(readv.o)
 .bss           0x00000000        0x0 c:/program files/microchip/xc32/v4.21/bin/bin/../../lib/gcc/pic32c/8.3.1/../../../../pic32c/lib/thumb/v8-m.base/nofp\libc-musl.a(readv.o)
 .xc_stack_usage
                0x00000000       0x15 c:/program files/microchip/xc32/v4.21/bin/bin/../../lib/gcc/pic32c/8.3.1/../../../../pic32c/lib/thumb/v8-m.base/nofp\libc-musl.a(readv.o)
 .xc_stack_usage.hdr
                0x00000000        0xe c:/program files/microchip/xc32/v4.21/bin/bin/../../lib/gcc/pic32c/8.3.1/../../../../pic32c/lib/thumb/v8-m.base/nofp\libc-musl.a(readv.o)
 .text          0x00000000        0x0 c:/program files/microchip/xc32/v4.21/bin/bin/../../lib/gcc/pic32c/8.3.1/../../../../pic32c/lib/thumb/v8-m.base/nofp\libc-musl.a(syscall_ret.o)
 .data          0x00000000        0x0 c:/program files/microchip/xc32/v4.21/bin/bin/../../lib/gcc/pic32c/8.3.1/../../../../pic32c/lib/thumb/v8-m.base/nofp\libc-musl.a(syscall_ret.o)
 .bss           0x00000000        0x0 c:/program files/microchip/xc32/v4.21/bin/bin/../../lib/gcc/pic32c/8.3.1/../../../../pic32c/lib/thumb/v8-m.base/nofp\libc-musl.a(syscall_ret.o)
 .xc_stack_usage
                0x00000000       0x1b c:/program files/microchip/xc32/v4.21/bin/bin/../../lib/gcc/pic32c/8.3.1/../../../../pic32c/lib/thumb/v8-m.base/nofp\libc-musl.a(syscall_ret.o)
 .text.__syscall_ret
                0x00000000       0x1c c:/program files/microchip/xc32/v4.21/bin/bin/../../lib/gcc/pic32c/8.3.1/../../../../pic32c/lib/thumb/v8-m.base/nofp\libc-musl.a(syscall_ret.o)
 .xc_stack_usage.hdr
                0x00000000        0xe c:/program files/microchip/xc32/v4.21/bin/bin/../../lib/gcc/pic32c/8.3.1/../../../../pic32c/lib/thumb/v8-m.base/nofp\libc-musl.a(syscall_ret.o)
 .debug_info    0x00000000      0x2cb c:/program files/microchip/xc32/v4.21/bin/bin/../../lib/gcc/pic32c/8.3.1/../../../../pic32c/lib/thumb/v8-m.base/nofp\libc-musl.a(syscall_ret.o)
 .debug_abbrev  0x00000000       0x66 c:/program files/microchip/xc32/v4.21/bin/bin/../../lib/gcc/pic32c/8.3.1/../../../../pic32c/lib/thumb/v8-m.base/nofp\libc-musl.a(syscall_ret.o)
 .debug_loc     0x00000000       0x46 c:/program files/microchip/xc32/v4.21/bin/bin/../../lib/gcc/pic32c/8.3.1/../../../../pic32c/lib/thumb/v8-m.base/nofp\libc-musl.a(syscall_ret.o)
 .debug_aranges
                0x00000000       0x20 c:/program files/microchip/xc32/v4.21/bin/bin/../../lib/gcc/pic32c/8.3.1/../../../../pic32c/lib/thumb/v8-m.base/nofp\libc-musl.a(syscall_ret.o)
 .debug_ranges  0x00000000       0x10 c:/program files/microchip/xc32/v4.21/bin/bin/../../lib/gcc/pic32c/8.3.1/../../../../pic32c/lib/thumb/v8-m.base/nofp\libc-musl.a(syscall_ret.o)
 .debug_line    0x00000000      0x145 c:/program files/microchip/xc32/v4.21/bin/bin/../../lib/gcc/pic32c/8.3.1/../../../../pic32c/lib/thumb/v8-m.base/nofp\libc-musl.a(syscall_ret.o)
 .debug_str     0x00000000        0x0 c:/program files/microchip/xc32/v4.21/bin/bin/../../lib/gcc/pic32c/8.3.1/../../../../pic32c/lib/thumb/v8-m.base/nofp\libc-musl.a(syscall_ret.o)
 .comment       0x00000000       0x2c c:/program files/microchip/xc32/v4.21/bin/bin/../../lib/gcc/pic32c/8.3.1/../../../../pic32c/lib/thumb/v8-m.base/nofp\libc-musl.a(syscall_ret.o)
 .note.GNU-stack
                0x00000000        0x0 c:/program files/microchip/xc32/v4.21/bin/bin/../../lib/gcc/pic32c/8.3.1/../../../../pic32c/lib/thumb/v8-m.base/nofp\libc-musl.a(syscall_ret.o)
 .debug_frame   0x00000000       0x20 c:/program files/microchip/xc32/v4.21/bin/bin/../../lib/gcc/pic32c/8.3.1/../../../../pic32c/lib/thumb/v8-m.base/nofp\libc-musl.a(syscall_ret.o)
 .ARM.attributes
                0x00000000       0x32 c:/program files/microchip/xc32/v4.21/bin/bin/../../lib/gcc/pic32c/8.3.1/../../../../pic32c/lib/thumb/v8-m.base/nofp\libc-musl.a(syscall_ret.o)
 .text          0x00000000        0x0 c:/program files/microchip/xc32/v4.21/bin/bin/../../lib/gcc/pic32c/8.3.1/../../../../pic32c/lib/thumb/v8-m.base/nofp\libc-musl.a(__int_vsnprintf.o)
 .data          0x00000000        0x0 c:/program files/microchip/xc32/v4.21/bin/bin/../../lib/gcc/pic32c/8.3.1/../../../../pic32c/lib/thumb/v8-m.base/nofp\libc-musl.a(__int_vsnprintf.o)
 .bss           0x00000000        0x0 c:/program files/microchip/xc32/v4.21/bin/bin/../../lib/gcc/pic32c/8.3.1/../../../../pic32c/lib/thumb/v8-m.base/nofp\libc-musl.a(__int_vsnprintf.o)
 .xc_stack_usage
                0x00000000       0x19 c:/program files/microchip/xc32/v4.21/bin/bin/../../lib/gcc/pic32c/8.3.1/../../../../pic32c/lib/thumb/v8-m.base/nofp\libc-musl.a(__int_vsnprintf.o)
 .xc_stack_usage.hdr
                0x00000000        0xe c:/program files/microchip/xc32/v4.21/bin/bin/../../lib/gcc/pic32c/8.3.1/../../../../pic32c/lib/thumb/v8-m.base/nofp\libc-musl.a(__int_vsnprintf.o)
 .text          0x00000000        0x0 c:/program files/microchip/xc32/v4.21/bin/bin/../../lib/gcc/pic32c/8.3.1/../../../../pic32c/lib/thumb/v8-m.base/nofp\libc-musl.a(__fopen_rw.o)
 .data          0x00000000        0x0 c:/program files/microchip/xc32/v4.21/bin/bin/../../lib/gcc/pic32c/8.3.1/../../../../pic32c/lib/thumb/v8-m.base/nofp\libc-musl.a(__fopen_rw.o)
 .bss           0x00000000        0x0 c:/program files/microchip/xc32/v4.21/bin/bin/../../lib/gcc/pic32c/8.3.1/../../../../pic32c/lib/thumb/v8-m.base/nofp\libc-musl.a(__fopen_rw.o)
 .xc_stack_usage
                0x00000000       0x18 c:/program files/microchip/xc32/v4.21/bin/bin/../../lib/gcc/pic32c/8.3.1/../../../../pic32c/lib/thumb/v8-m.base/nofp\libc-musl.a(__fopen_rw.o)
 .text.__fopen_rw
                0x00000000       0x4c c:/program files/microchip/xc32/v4.21/bin/bin/../../lib/gcc/pic32c/8.3.1/../../../../pic32c/lib/thumb/v8-m.base/nofp\libc-musl.a(__fopen_rw.o)
 .xc_stack_usage.hdr
                0x00000000        0xe c:/program files/microchip/xc32/v4.21/bin/bin/../../lib/gcc/pic32c/8.3.1/../../../../pic32c/lib/thumb/v8-m.base/nofp\libc-musl.a(__fopen_rw.o)
 .debug_info    0x00000000      0x694 c:/program files/microchip/xc32/v4.21/bin/bin/../../lib/gcc/pic32c/8.3.1/../../../../pic32c/lib/thumb/v8-m.base/nofp\libc-musl.a(__fopen_rw.o)
 .debug_abbrev  0x00000000      0x110 c:/program files/microchip/xc32/v4.21/bin/bin/../../lib/gcc/pic32c/8.3.1/../../../../pic32c/lib/thumb/v8-m.base/nofp\libc-musl.a(__fopen_rw.o)
 .debug_loc     0x00000000       0x4f c:/program files/microchip/xc32/v4.21/bin/bin/../../lib/gcc/pic32c/8.3.1/../../../../pic32c/lib/thumb/v8-m.base/nofp\libc-musl.a(__fopen_rw.o)
 .debug_aranges
                0x00000000       0x20 c:/program files/microchip/xc32/v4.21/bin/bin/../../lib/gcc/pic32c/8.3.1/../../../../pic32c/lib/thumb/v8-m.base/nofp\libc-musl.a(__fopen_rw.o)
 .debug_ranges  0x00000000       0x10 c:/program files/microchip/xc32/v4.21/bin/bin/../../lib/gcc/pic32c/8.3.1/../../../../pic32c/lib/thumb/v8-m.base/nofp\libc-musl.a(__fopen_rw.o)
 .debug_line    0x00000000      0x2a7 c:/program files/microchip/xc32/v4.21/bin/bin/../../lib/gcc/pic32c/8.3.1/../../../../pic32c/lib/thumb/v8-m.base/nofp\libc-musl.a(__fopen_rw.o)
 .debug_str     0x00000000        0x0 c:/program files/microchip/xc32/v4.21/bin/bin/../../lib/gcc/pic32c/8.3.1/../../../../pic32c/lib/thumb/v8-m.base/nofp\libc-musl.a(__fopen_rw.o)
 .comment       0x00000000       0x2c c:/program files/microchip/xc32/v4.21/bin/bin/../../lib/gcc/pic32c/8.3.1/../../../../pic32c/lib/thumb/v8-m.base/nofp\libc-musl.a(__fopen_rw.o)
 .note.GNU-stack
                0x00000000        0x0 c:/program files/microchip/xc32/v4.21/bin/bin/../../lib/gcc/pic32c/8.3.1/../../../../pic32c/lib/thumb/v8-m.base/nofp\libc-musl.a(__fopen_rw.o)
 .debug_frame   0x00000000       0x28 c:/program files/microchip/xc32/v4.21/bin/bin/../../lib/gcc/pic32c/8.3.1/../../../../pic32c/lib/thumb/v8-m.base/nofp\libc-musl.a(__fopen_rw.o)
 .ARM.attributes
                0x00000000       0x32 c:/program files/microchip/xc32/v4.21/bin/bin/../../lib/gcc/pic32c/8.3.1/../../../../pic32c/lib/thumb/v8-m.base/nofp\libc-musl.a(__fopen_rw.o)
 .text          0x00000000        0x0 c:/program files/microchip/xc32/v4.21/bin/bin/../../lib/gcc/pic32c/8.3.1/../../../../pic32c/lib/thumb/v8-m.base/nofp\libc-musl.a(__ftello_rw.o)
 .data          0x00000000        0x0 c:/program files/microchip/xc32/v4.21/bin/bin/../../lib/gcc/pic32c/8.3.1/../../../../pic32c/lib/thumb/v8-m.base/nofp\libc-musl.a(__ftello_rw.o)
 .bss           0x00000000        0x0 c:/program files/microchip/xc32/v4.21/bin/bin/../../lib/gcc/pic32c/8.3.1/../../../../pic32c/lib/thumb/v8-m.base/nofp\libc-musl.a(__ftello_rw.o)
 .xc_stack_usage
                0x00000000       0x1d c:/program files/microchip/xc32/v4.21/bin/bin/../../lib/gcc/pic32c/8.3.1/../../../../pic32c/lib/thumb/v8-m.base/nofp\libc-musl.a(__ftello_rw.o)
 .text.__ftello_adj_rw
                0x00000000       0x28 c:/program files/microchip/xc32/v4.21/bin/bin/../../lib/gcc/pic32c/8.3.1/../../../../pic32c/lib/thumb/v8-m.base/nofp\libc-musl.a(__ftello_rw.o)
 .xc_stack_usage.hdr
                0x00000000        0xe c:/program files/microchip/xc32/v4.21/bin/bin/../../lib/gcc/pic32c/8.3.1/../../../../pic32c/lib/thumb/v8-m.base/nofp\libc-musl.a(__ftello_rw.o)
 .debug_info    0x00000000      0x5f5 c:/program files/microchip/xc32/v4.21/bin/bin/../../lib/gcc/pic32c/8.3.1/../../../../pic32c/lib/thumb/v8-m.base/nofp\libc-musl.a(__ftello_rw.o)
 .debug_abbrev  0x00000000       0xef c:/program files/microchip/xc32/v4.21/bin/bin/../../lib/gcc/pic32c/8.3.1/../../../../pic32c/lib/thumb/v8-m.base/nofp\libc-musl.a(__ftello_rw.o)
 .debug_loc     0x00000000       0x45 c:/program files/microchip/xc32/v4.21/bin/bin/../../lib/gcc/pic32c/8.3.1/../../../../pic32c/lib/thumb/v8-m.base/nofp\libc-musl.a(__ftello_rw.o)
 .debug_aranges
                0x00000000       0x20 c:/program files/microchip/xc32/v4.21/bin/bin/../../lib/gcc/pic32c/8.3.1/../../../../pic32c/lib/thumb/v8-m.base/nofp\libc-musl.a(__ftello_rw.o)
 .debug_ranges  0x00000000       0x10 c:/program files/microchip/xc32/v4.21/bin/bin/../../lib/gcc/pic32c/8.3.1/../../../../pic32c/lib/thumb/v8-m.base/nofp\libc-musl.a(__ftello_rw.o)
 .debug_line    0x00000000      0x1e7 c:/program files/microchip/xc32/v4.21/bin/bin/../../lib/gcc/pic32c/8.3.1/../../../../pic32c/lib/thumb/v8-m.base/nofp\libc-musl.a(__ftello_rw.o)
 .debug_str     0x00000000        0x0 c:/program files/microchip/xc32/v4.21/bin/bin/../../lib/gcc/pic32c/8.3.1/../../../../pic32c/lib/thumb/v8-m.base/nofp\libc-musl.a(__ftello_rw.o)
 .comment       0x00000000       0x2c c:/program files/microchip/xc32/v4.21/bin/bin/../../lib/gcc/pic32c/8.3.1/../../../../pic32c/lib/thumb/v8-m.base/nofp\libc-musl.a(__ftello_rw.o)
 .note.GNU-stack
                0x00000000        0x0 c:/program files/microchip/xc32/v4.21/bin/bin/../../lib/gcc/pic32c/8.3.1/../../../../pic32c/lib/thumb/v8-m.base/nofp\libc-musl.a(__ftello_rw.o)
 .debug_frame   0x00000000       0x2c c:/program files/microchip/xc32/v4.21/bin/bin/../../lib/gcc/pic32c/8.3.1/../../../../pic32c/lib/thumb/v8-m.base/nofp\libc-musl.a(__ftello_rw.o)
 .ARM.attributes
                0x00000000       0x32 c:/program files/microchip/xc32/v4.21/bin/bin/../../lib/gcc/pic32c/8.3.1/../../../../pic32c/lib/thumb/v8-m.base/nofp\libc-musl.a(__ftello_rw.o)
 .text          0x00000000        0x0 c:/program files/microchip/xc32/v4.21/bin/bin/../../lib/gcc/pic32c/8.3.1/../../../../pic32c/lib/thumb/v8-m.base/nofp\libc-musl.a(__init_stdio.o)
 .data          0x00000000        0x0 c:/program files/microchip/xc32/v4.21/bin/bin/../../lib/gcc/pic32c/8.3.1/../../../../pic32c/lib/thumb/v8-m.base/nofp\libc-musl.a(__init_stdio.o)
 .bss           0x00000000        0x0 c:/program files/microchip/xc32/v4.21/bin/bin/../../lib/gcc/pic32c/8.3.1/../../../../pic32c/lib/thumb/v8-m.base/nofp\libc-musl.a(__init_stdio.o)
 .xc_stack_usage
                0x00000000       0x2f c:/program files/microchip/xc32/v4.21/bin/bin/../../lib/gcc/pic32c/8.3.1/../../../../pic32c/lib/thumb/v8-m.base/nofp\libc-musl.a(__init_stdio.o)
 .xc_stack_usage.hdr
                0x00000000        0xe c:/program files/microchip/xc32/v4.21/bin/bin/../../lib/gcc/pic32c/8.3.1/../../../../pic32c/lib/thumb/v8-m.base/nofp\libc-musl.a(__init_stdio.o)
 .text          0x00000000        0x0 c:/program files/microchip/xc32/v4.21/bin/bin/../../lib/gcc/pic32c/8.3.1/../../../../pic32c/lib/thumb/v8-m.base/nofp\libc-musl.a(__io_buf_needed.o)
 .data          0x00000000        0x0 c:/program files/microchip/xc32/v4.21/bin/bin/../../lib/gcc/pic32c/8.3.1/../../../../pic32c/lib/thumb/v8-m.base/nofp\libc-musl.a(__io_buf_needed.o)
 .bss           0x00000000        0x0 c:/program files/microchip/xc32/v4.21/bin/bin/../../lib/gcc/pic32c/8.3.1/../../../../pic32c/lib/thumb/v8-m.base/nofp\libc-musl.a(__io_buf_needed.o)
 .xc_stack_usage
                0x00000000       0x1d c:/program files/microchip/xc32/v4.21/bin/bin/../../lib/gcc/pic32c/8.3.1/../../../../pic32c/lib/thumb/v8-m.base/nofp\libc-musl.a(__io_buf_needed.o)
 .xc_stack_usage.hdr
                0x00000000        0xe c:/program files/microchip/xc32/v4.21/bin/bin/../../lib/gcc/pic32c/8.3.1/../../../../pic32c/lib/thumb/v8-m.base/nofp\libc-musl.a(__io_buf_needed.o)
 .debug_info    0x00000000      0x3ae c:/program files/microchip/xc32/v4.21/bin/bin/../../lib/gcc/pic32c/8.3.1/../../../../pic32c/lib/thumb/v8-m.base/nofp\libc-musl.a(__io_buf_needed.o)
 .debug_abbrev  0x00000000       0x5c c:/program files/microchip/xc32/v4.21/bin/bin/../../lib/gcc/pic32c/8.3.1/../../../../pic32c/lib/thumb/v8-m.base/nofp\libc-musl.a(__io_buf_needed.o)
 .debug_loc     0x00000000       0x20 c:/program files/microchip/xc32/v4.21/bin/bin/../../lib/gcc/pic32c/8.3.1/../../../../pic32c/lib/thumb/v8-m.base/nofp\libc-musl.a(__io_buf_needed.o)
 .debug_aranges
                0x00000000       0x20 c:/program files/microchip/xc32/v4.21/bin/bin/../../lib/gcc/pic32c/8.3.1/../../../../pic32c/lib/thumb/v8-m.base/nofp\libc-musl.a(__io_buf_needed.o)
 .debug_ranges  0x00000000       0x10 c:/program files/microchip/xc32/v4.21/bin/bin/../../lib/gcc/pic32c/8.3.1/../../../../pic32c/lib/thumb/v8-m.base/nofp\libc-musl.a(__io_buf_needed.o)
 .debug_line    0x00000000      0x13f c:/program files/microchip/xc32/v4.21/bin/bin/../../lib/gcc/pic32c/8.3.1/../../../../pic32c/lib/thumb/v8-m.base/nofp\libc-musl.a(__io_buf_needed.o)
 .debug_str     0x00000000       0x77 c:/program files/microchip/xc32/v4.21/bin/bin/../../lib/gcc/pic32c/8.3.1/../../../../pic32c/lib/thumb/v8-m.base/nofp\libc-musl.a(__io_buf_needed.o)
 .comment       0x00000000       0x2c c:/program files/microchip/xc32/v4.21/bin/bin/../../lib/gcc/pic32c/8.3.1/../../../../pic32c/lib/thumb/v8-m.base/nofp\libc-musl.a(__io_buf_needed.o)
 .note.GNU-stack
                0x00000000        0x0 c:/program files/microchip/xc32/v4.21/bin/bin/../../lib/gcc/pic32c/8.3.1/../../../../pic32c/lib/thumb/v8-m.base/nofp\libc-musl.a(__io_buf_needed.o)
 .debug_frame   0x00000000       0x28 c:/program files/microchip/xc32/v4.21/bin/bin/../../lib/gcc/pic32c/8.3.1/../../../../pic32c/lib/thumb/v8-m.base/nofp\libc-musl.a(__io_buf_needed.o)
 .ARM.attributes
                0x00000000       0x32 c:/program files/microchip/xc32/v4.21/bin/bin/../../lib/gcc/pic32c/8.3.1/../../../../pic32c/lib/thumb/v8-m.base/nofp\libc-musl.a(__io_buf_needed.o)
 .text          0x00000000        0x0 c:/program files/microchip/xc32/v4.21/bin/bin/../../lib/gcc/pic32c/8.3.1/../../../../pic32c/lib/thumb/v8-m.base/nofp\libc-musl.a(__io_file_needed.o)
 .data          0x00000000        0x0 c:/program files/microchip/xc32/v4.21/bin/bin/../../lib/gcc/pic32c/8.3.1/../../../../pic32c/lib/thumb/v8-m.base/nofp\libc-musl.a(__io_file_needed.o)
 .bss           0x00000000        0x0 c:/program files/microchip/xc32/v4.21/bin/bin/../../lib/gcc/pic32c/8.3.1/../../../../pic32c/lib/thumb/v8-m.base/nofp\libc-musl.a(__io_file_needed.o)
 .xc_stack_usage
                0x00000000       0x1e c:/program files/microchip/xc32/v4.21/bin/bin/../../lib/gcc/pic32c/8.3.1/../../../../pic32c/lib/thumb/v8-m.base/nofp\libc-musl.a(__io_file_needed.o)
 .xc_stack_usage.hdr
                0x00000000        0xe c:/program files/microchip/xc32/v4.21/bin/bin/../../lib/gcc/pic32c/8.3.1/../../../../pic32c/lib/thumb/v8-m.base/nofp\libc-musl.a(__io_file_needed.o)
 .debug_info    0x00000000      0x326 c:/program files/microchip/xc32/v4.21/bin/bin/../../lib/gcc/pic32c/8.3.1/../../../../pic32c/lib/thumb/v8-m.base/nofp\libc-musl.a(__io_file_needed.o)
 .debug_abbrev  0x00000000       0x5c c:/program files/microchip/xc32/v4.21/bin/bin/../../lib/gcc/pic32c/8.3.1/../../../../pic32c/lib/thumb/v8-m.base/nofp\libc-musl.a(__io_file_needed.o)
 .debug_loc     0x00000000       0x20 c:/program files/microchip/xc32/v4.21/bin/bin/../../lib/gcc/pic32c/8.3.1/../../../../pic32c/lib/thumb/v8-m.base/nofp\libc-musl.a(__io_file_needed.o)
 .debug_aranges
                0x00000000       0x20 c:/program files/microchip/xc32/v4.21/bin/bin/../../lib/gcc/pic32c/8.3.1/../../../../pic32c/lib/thumb/v8-m.base/nofp\libc-musl.a(__io_file_needed.o)
 .debug_ranges  0x00000000       0x10 c:/program files/microchip/xc32/v4.21/bin/bin/../../lib/gcc/pic32c/8.3.1/../../../../pic32c/lib/thumb/v8-m.base/nofp\libc-musl.a(__io_file_needed.o)
 .debug_line    0x00000000       0xbd c:/program files/microchip/xc32/v4.21/bin/bin/../../lib/gcc/pic32c/8.3.1/../../../../pic32c/lib/thumb/v8-m.base/nofp\libc-musl.a(__io_file_needed.o)
 .debug_str     0x00000000        0xd c:/program files/microchip/xc32/v4.21/bin/bin/../../lib/gcc/pic32c/8.3.1/../../../../pic32c/lib/thumb/v8-m.base/nofp\libc-musl.a(__io_file_needed.o)
 .comment       0x00000000       0x2c c:/program files/microchip/xc32/v4.21/bin/bin/../../lib/gcc/pic32c/8.3.1/../../../../pic32c/lib/thumb/v8-m.base/nofp\libc-musl.a(__io_file_needed.o)
 .note.GNU-stack
                0x00000000        0x0 c:/program files/microchip/xc32/v4.21/bin/bin/../../lib/gcc/pic32c/8.3.1/../../../../pic32c/lib/thumb/v8-m.base/nofp\libc-musl.a(__io_file_needed.o)
 .debug_frame   0x00000000       0x28 c:/program files/microchip/xc32/v4.21/bin/bin/../../lib/gcc/pic32c/8.3.1/../../../../pic32c/lib/thumb/v8-m.base/nofp\libc-musl.a(__io_file_needed.o)
 .ARM.attributes
                0x00000000       0x32 c:/program files/microchip/xc32/v4.21/bin/bin/../../lib/gcc/pic32c/8.3.1/../../../../pic32c/lib/thumb/v8-m.base/nofp\libc-musl.a(__io_file_needed.o)
 .text          0x00000000        0x0 c:/program files/microchip/xc32/v4.21/bin/bin/../../lib/gcc/pic32c/8.3.1/../../../../pic32c/lib/thumb/v8-m.base/nofp\libc-musl.a(__io_std_needed.o)
 .data          0x00000000        0x0 c:/program files/microchip/xc32/v4.21/bin/bin/../../lib/gcc/pic32c/8.3.1/../../../../pic32c/lib/thumb/v8-m.base/nofp\libc-musl.a(__io_std_needed.o)
 .bss           0x00000000        0x0 c:/program files/microchip/xc32/v4.21/bin/bin/../../lib/gcc/pic32c/8.3.1/../../../../pic32c/lib/thumb/v8-m.base/nofp\libc-musl.a(__io_std_needed.o)
 .xc_stack_usage
                0x00000000       0x1d c:/program files/microchip/xc32/v4.21/bin/bin/../../lib/gcc/pic32c/8.3.1/../../../../pic32c/lib/thumb/v8-m.base/nofp\libc-musl.a(__io_std_needed.o)
 .xc_stack_usage.hdr
                0x00000000        0xe c:/program files/microchip/xc32/v4.21/bin/bin/../../lib/gcc/pic32c/8.3.1/../../../../pic32c/lib/thumb/v8-m.base/nofp\libc-musl.a(__io_std_needed.o)
 .debug_info    0x00000000      0x397 c:/program files/microchip/xc32/v4.21/bin/bin/../../lib/gcc/pic32c/8.3.1/../../../../pic32c/lib/thumb/v8-m.base/nofp\libc-musl.a(__io_std_needed.o)
 .debug_abbrev  0x00000000       0x5c c:/program files/microchip/xc32/v4.21/bin/bin/../../lib/gcc/pic32c/8.3.1/../../../../pic32c/lib/thumb/v8-m.base/nofp\libc-musl.a(__io_std_needed.o)
 .debug_loc     0x00000000       0x20 c:/program files/microchip/xc32/v4.21/bin/bin/../../lib/gcc/pic32c/8.3.1/../../../../pic32c/lib/thumb/v8-m.base/nofp\libc-musl.a(__io_std_needed.o)
 .debug_aranges
                0x00000000       0x20 c:/program files/microchip/xc32/v4.21/bin/bin/../../lib/gcc/pic32c/8.3.1/../../../../pic32c/lib/thumb/v8-m.base/nofp\libc-musl.a(__io_std_needed.o)
 .debug_ranges  0x00000000       0x10 c:/program files/microchip/xc32/v4.21/bin/bin/../../lib/gcc/pic32c/8.3.1/../../../../pic32c/lib/thumb/v8-m.base/nofp\libc-musl.a(__io_std_needed.o)
 .debug_line    0x00000000      0x13e c:/program files/microchip/xc32/v4.21/bin/bin/../../lib/gcc/pic32c/8.3.1/../../../../pic32c/lib/thumb/v8-m.base/nofp\libc-musl.a(__io_std_needed.o)
 .debug_str     0x00000000       0x6b c:/program files/microchip/xc32/v4.21/bin/bin/../../lib/gcc/pic32c/8.3.1/../../../../pic32c/lib/thumb/v8-m.base/nofp\libc-musl.a(__io_std_needed.o)
 .comment       0x00000000       0x2c c:/program files/microchip/xc32/v4.21/bin/bin/../../lib/gcc/pic32c/8.3.1/../../../../pic32c/lib/thumb/v8-m.base/nofp\libc-musl.a(__io_std_needed.o)
 .note.GNU-stack
                0x00000000        0x0 c:/program files/microchip/xc32/v4.21/bin/bin/../../lib/gcc/pic32c/8.3.1/../../../../pic32c/lib/thumb/v8-m.base/nofp\libc-musl.a(__io_std_needed.o)
 .debug_frame   0x00000000       0x28 c:/program files/microchip/xc32/v4.21/bin/bin/../../lib/gcc/pic32c/8.3.1/../../../../pic32c/lib/thumb/v8-m.base/nofp\libc-musl.a(__io_std_needed.o)
 .ARM.attributes
                0x00000000       0x32 c:/program files/microchip/xc32/v4.21/bin/bin/../../lib/gcc/pic32c/8.3.1/../../../../pic32c/lib/thumb/v8-m.base/nofp\libc-musl.a(__io_std_needed.o)
 .text          0x00000000        0x0 c:/program files/microchip/xc32/v4.21/bin/bin/../../lib/gcc/pic32c/8.3.1/../../../../pic32c/lib/thumb/v8-m.base/nofp\libc-musl.a(__out.o)
 .data          0x00000000        0x0 c:/program files/microchip/xc32/v4.21/bin/bin/../../lib/gcc/pic32c/8.3.1/../../../../pic32c/lib/thumb/v8-m.base/nofp\libc-musl.a(__out.o)
 .bss           0x00000000        0x0 c:/program files/microchip/xc32/v4.21/bin/bin/../../lib/gcc/pic32c/8.3.1/../../../../pic32c/lib/thumb/v8-m.base/nofp\libc-musl.a(__out.o)
 .xc_stack_usage
                0x00000000       0x2d c:/program files/microchip/xc32/v4.21/bin/bin/../../lib/gcc/pic32c/8.3.1/../../../../pic32c/lib/thumb/v8-m.base/nofp\libc-musl.a(__out.o)
 .xc_stack_usage.hdr
                0x00000000        0xe c:/program files/microchip/xc32/v4.21/bin/bin/../../lib/gcc/pic32c/8.3.1/../../../../pic32c/lib/thumb/v8-m.base/nofp\libc-musl.a(__out.o)
 .text          0x00000000        0x0 c:/program files/microchip/xc32/v4.21/bin/bin/../../lib/gcc/pic32c/8.3.1/../../../../pic32c/lib/thumb/v8-m.base/nofp\libc-musl.a(__putc.o)
 .data          0x00000000        0x0 c:/program files/microchip/xc32/v4.21/bin/bin/../../lib/gcc/pic32c/8.3.1/../../../../pic32c/lib/thumb/v8-m.base/nofp\libc-musl.a(__putc.o)
 .bss           0x00000000        0x0 c:/program files/microchip/xc32/v4.21/bin/bin/../../lib/gcc/pic32c/8.3.1/../../../../pic32c/lib/thumb/v8-m.base/nofp\libc-musl.a(__putc.o)
 .xc_stack_usage
                0x00000000       0x14 c:/program files/microchip/xc32/v4.21/bin/bin/../../lib/gcc/pic32c/8.3.1/../../../../pic32c/lib/thumb/v8-m.base/nofp\libc-musl.a(__putc.o)
 .text.__putc   0x00000000       0x3c c:/program files/microchip/xc32/v4.21/bin/bin/../../lib/gcc/pic32c/8.3.1/../../../../pic32c/lib/thumb/v8-m.base/nofp\libc-musl.a(__putc.o)
 .xc_stack_usage.hdr
                0x00000000        0xe c:/program files/microchip/xc32/v4.21/bin/bin/../../lib/gcc/pic32c/8.3.1/../../../../pic32c/lib/thumb/v8-m.base/nofp\libc-musl.a(__putc.o)
 .debug_info    0x00000000      0x504 c:/program files/microchip/xc32/v4.21/bin/bin/../../lib/gcc/pic32c/8.3.1/../../../../pic32c/lib/thumb/v8-m.base/nofp\libc-musl.a(__putc.o)
 .debug_abbrev  0x00000000       0xed c:/program files/microchip/xc32/v4.21/bin/bin/../../lib/gcc/pic32c/8.3.1/../../../../pic32c/lib/thumb/v8-m.base/nofp\libc-musl.a(__putc.o)
 .debug_loc     0x00000000       0xbe c:/program files/microchip/xc32/v4.21/bin/bin/../../lib/gcc/pic32c/8.3.1/../../../../pic32c/lib/thumb/v8-m.base/nofp\libc-musl.a(__putc.o)
 .debug_aranges
                0x00000000       0x20 c:/program files/microchip/xc32/v4.21/bin/bin/../../lib/gcc/pic32c/8.3.1/../../../../pic32c/lib/thumb/v8-m.base/nofp\libc-musl.a(__putc.o)
 .debug_ranges  0x00000000       0x10 c:/program files/microchip/xc32/v4.21/bin/bin/../../lib/gcc/pic32c/8.3.1/../../../../pic32c/lib/thumb/v8-m.base/nofp\libc-musl.a(__putc.o)
 .debug_line    0x00000000      0x169 c:/program files/microchip/xc32/v4.21/bin/bin/../../lib/gcc/pic32c/8.3.1/../../../../pic32c/lib/thumb/v8-m.base/nofp\libc-musl.a(__putc.o)
 .debug_str     0x00000000       0x1d c:/program files/microchip/xc32/v4.21/bin/bin/../../lib/gcc/pic32c/8.3.1/../../../../pic32c/lib/thumb/v8-m.base/nofp\libc-musl.a(__putc.o)
 .comment       0x00000000       0x2c c:/program files/microchip/xc32/v4.21/bin/bin/../../lib/gcc/pic32c/8.3.1/../../../../pic32c/lib/thumb/v8-m.base/nofp\libc-musl.a(__putc.o)
 .note.GNU-stack
                0x00000000        0x0 c:/program files/microchip/xc32/v4.21/bin/bin/../../lib/gcc/pic32c/8.3.1/../../../../pic32c/lib/thumb/v8-m.base/nofp\libc-musl.a(__putc.o)
 .debug_frame   0x00000000       0x28 c:/program files/microchip/xc32/v4.21/bin/bin/../../lib/gcc/pic32c/8.3.1/../../../../pic32c/lib/thumb/v8-m.base/nofp\libc-musl.a(__putc.o)
 .ARM.attributes
                0x00000000       0x32 c:/program files/microchip/xc32/v4.21/bin/bin/../../lib/gcc/pic32c/8.3.1/../../../../pic32c/lib/thumb/v8-m.base/nofp\libc-musl.a(__putc.o)
 .text          0x00000000        0x0 c:/program files/microchip/xc32/v4.21/bin/bin/../../lib/gcc/pic32c/8.3.1/../../../../pic32c/lib/thumb/v8-m.base/nofp\libc-musl.a(__stderr.o)
 .data          0x00000000       0x60 c:/program files/microchip/xc32/v4.21/bin/bin/../../lib/gcc/pic32c/8.3.1/../../../../pic32c/lib/thumb/v8-m.base/nofp\libc-musl.a(__stderr.o)
 .bss           0x00000000        0x0 c:/program files/microchip/xc32/v4.21/bin/bin/../../lib/gcc/pic32c/8.3.1/../../../../pic32c/lib/thumb/v8-m.base/nofp\libc-musl.a(__stderr.o)
 .xc_stack_usage
                0x00000000       0x50 c:/program files/microchip/xc32/v4.21/bin/bin/../../lib/gcc/pic32c/8.3.1/../../../../pic32c/lib/thumb/v8-m.base/nofp\libc-musl.a(__stderr.o)
 .text.__get_stderr
                0x00000000        0x8 c:/program files/microchip/xc32/v4.21/bin/bin/../../lib/gcc/pic32c/8.3.1/../../../../pic32c/lib/thumb/v8-m.base/nofp\libc-musl.a(__stderr.o)
 .xc_stack_usage.hdr
                0x00000000        0xe c:/program files/microchip/xc32/v4.21/bin/bin/../../lib/gcc/pic32c/8.3.1/../../../../pic32c/lib/thumb/v8-m.base/nofp\libc-musl.a(__stderr.o)
 .text          0x00000000        0x0 c:/program files/microchip/xc32/v4.21/bin/bin/../../lib/gcc/pic32c/8.3.1/../../../../pic32c/lib/thumb/v8-m.base/nofp\libc-musl.a(__stdio_close.o)
 .data          0x00000000        0x0 c:/program files/microchip/xc32/v4.21/bin/bin/../../lib/gcc/pic32c/8.3.1/../../../../pic32c/lib/thumb/v8-m.base/nofp\libc-musl.a(__stdio_close.o)
 .bss           0x00000000        0x0 c:/program files/microchip/xc32/v4.21/bin/bin/../../lib/gcc/pic32c/8.3.1/../../../../pic32c/lib/thumb/v8-m.base/nofp\libc-musl.a(__stdio_close.o)
 .xc_stack_usage
                0x00000000       0x39 c:/program files/microchip/xc32/v4.21/bin/bin/../../lib/gcc/pic32c/8.3.1/../../../../pic32c/lib/thumb/v8-m.base/nofp\libc-musl.a(__stdio_close.o)
 .text.__stdio_close
                0x00000000       0x42 c:/program files/microchip/xc32/v4.21/bin/bin/../../lib/gcc/pic32c/8.3.1/../../../../pic32c/lib/thumb/v8-m.base/nofp\libc-musl.a(__stdio_close.o)
 .xc_stack_usage.hdr
                0x00000000        0xe c:/program files/microchip/xc32/v4.21/bin/bin/../../lib/gcc/pic32c/8.3.1/../../../../pic32c/lib/thumb/v8-m.base/nofp\libc-musl.a(__stdio_close.o)
 .text          0x00000000        0x0 c:/program files/microchip/xc32/v4.21/bin/bin/../../lib/gcc/pic32c/8.3.1/../../../../pic32c/lib/thumb/v8-m.base/nofp\libc-musl.a(__stdio_exit.o)
 .data          0x00000000        0x0 c:/program files/microchip/xc32/v4.21/bin/bin/../../lib/gcc/pic32c/8.3.1/../../../../pic32c/lib/thumb/v8-m.base/nofp\libc-musl.a(__stdio_exit.o)
 .bss           0x00000000        0x4 c:/program files/microchip/xc32/v4.21/bin/bin/../../lib/gcc/pic32c/8.3.1/../../../../pic32c/lib/thumb/v8-m.base/nofp\libc-musl.a(__stdio_exit.o)
 .xc_stack_usage
                0x00000000       0x45 c:/program files/microchip/xc32/v4.21/bin/bin/../../lib/gcc/pic32c/8.3.1/../../../../pic32c/lib/thumb/v8-m.base/nofp\libc-musl.a(__stdio_exit.o)
 .text.__dummy  0x00000000        0x2 c:/program files/microchip/xc32/v4.21/bin/bin/../../lib/gcc/pic32c/8.3.1/../../../../pic32c/lib/thumb/v8-m.base/nofp\libc-musl.a(__stdio_exit.o)
 .text.__dummy1
                0x00000000        0x4 c:/program files/microchip/xc32/v4.21/bin/bin/../../lib/gcc/pic32c/8.3.1/../../../../pic32c/lib/thumb/v8-m.base/nofp\libc-musl.a(__stdio_exit.o)
 .text.__stdio_exit
                0x00000000       0x34 c:/program files/microchip/xc32/v4.21/bin/bin/../../lib/gcc/pic32c/8.3.1/../../../../pic32c/lib/thumb/v8-m.base/nofp\libc-musl.a(__stdio_exit.o)
 .xc_stack_usage.hdr
                0x00000000        0xe c:/program files/microchip/xc32/v4.21/bin/bin/../../lib/gcc/pic32c/8.3.1/../../../../pic32c/lib/thumb/v8-m.base/nofp\libc-musl.a(__stdio_exit.o)
 .debug_info    0x00000000      0x58f c:/program files/microchip/xc32/v4.21/bin/bin/../../lib/gcc/pic32c/8.3.1/../../../../pic32c/lib/thumb/v8-m.base/nofp\libc-musl.a(__stdio_exit.o)
 .debug_abbrev  0x00000000      0x157 c:/program files/microchip/xc32/v4.21/bin/bin/../../lib/gcc/pic32c/8.3.1/../../../../pic32c/lib/thumb/v8-m.base/nofp\libc-musl.a(__stdio_exit.o)
 .debug_loc     0x00000000       0x45 c:/program files/microchip/xc32/v4.21/bin/bin/../../lib/gcc/pic32c/8.3.1/../../../../pic32c/lib/thumb/v8-m.base/nofp\libc-musl.a(__stdio_exit.o)
 .debug_aranges
                0x00000000       0x30 c:/program files/microchip/xc32/v4.21/bin/bin/../../lib/gcc/pic32c/8.3.1/../../../../pic32c/lib/thumb/v8-m.base/nofp\libc-musl.a(__stdio_exit.o)
 .debug_ranges  0x00000000       0x20 c:/program files/microchip/xc32/v4.21/bin/bin/../../lib/gcc/pic32c/8.3.1/../../../../pic32c/lib/thumb/v8-m.base/nofp\libc-musl.a(__stdio_exit.o)
 .debug_line    0x00000000      0x186 c:/program files/microchip/xc32/v4.21/bin/bin/../../lib/gcc/pic32c/8.3.1/../../../../pic32c/lib/thumb/v8-m.base/nofp\libc-musl.a(__stdio_exit.o)
 .debug_str     0x00000000        0x0 c:/program files/microchip/xc32/v4.21/bin/bin/../../lib/gcc/pic32c/8.3.1/../../../../pic32c/lib/thumb/v8-m.base/nofp\libc-musl.a(__stdio_exit.o)
 .comment       0x00000000       0x2c c:/program files/microchip/xc32/v4.21/bin/bin/../../lib/gcc/pic32c/8.3.1/../../../../pic32c/lib/thumb/v8-m.base/nofp\libc-musl.a(__stdio_exit.o)
 .note.GNU-stack
                0x00000000        0x0 c:/program files/microchip/xc32/v4.21/bin/bin/../../lib/gcc/pic32c/8.3.1/../../../../pic32c/lib/thumb/v8-m.base/nofp\libc-musl.a(__stdio_exit.o)
 .debug_frame   0x00000000       0x48 c:/program files/microchip/xc32/v4.21/bin/bin/../../lib/gcc/pic32c/8.3.1/../../../../pic32c/lib/thumb/v8-m.base/nofp\libc-musl.a(__stdio_exit.o)
 .ARM.attributes
                0x00000000       0x32 c:/program files/microchip/xc32/v4.21/bin/bin/../../lib/gcc/pic32c/8.3.1/../../../../pic32c/lib/thumb/v8-m.base/nofp\libc-musl.a(__stdio_exit.o)
 .text          0x00000000        0x0 c:/program files/microchip/xc32/v4.21/bin/bin/../../lib/gcc/pic32c/8.3.1/../../../../pic32c/lib/thumb/v8-m.base/nofp\libc-musl.a(__stdio_write.o)
 .data          0x00000000        0x0 c:/program files/microchip/xc32/v4.21/bin/bin/../../lib/gcc/pic32c/8.3.1/../../../../pic32c/lib/thumb/v8-m.base/nofp\libc-musl.a(__stdio_write.o)
 .bss           0x00000000        0x0 c:/program files/microchip/xc32/v4.21/bin/bin/../../lib/gcc/pic32c/8.3.1/../../../../pic32c/lib/thumb/v8-m.base/nofp\libc-musl.a(__stdio_write.o)
 .xc_stack_usage
                0x00000000       0x42 c:/program files/microchip/xc32/v4.21/bin/bin/../../lib/gcc/pic32c/8.3.1/../../../../pic32c/lib/thumb/v8-m.base/nofp\libc-musl.a(__stdio_write.o)
 .xc_stack_usage.hdr
                0x00000000        0xe c:/program files/microchip/xc32/v4.21/bin/bin/../../lib/gcc/pic32c/8.3.1/../../../../pic32c/lib/thumb/v8-m.base/nofp\libc-musl.a(__stdio_write.o)
 .text          0x00000000        0x0 c:/program files/microchip/xc32/v4.21/bin/bin/../../lib/gcc/pic32c/8.3.1/../../../../pic32c/lib/thumb/v8-m.base/nofp\libc-musl.a(__stdout.o)
 .bss           0x00000000        0x0 c:/program files/microchip/xc32/v4.21/bin/bin/../../lib/gcc/pic32c/8.3.1/../../../../pic32c/lib/thumb/v8-m.base/nofp\libc-musl.a(__stdout.o)
 .xc_stack_usage
                0x00000000       0x50 c:/program files/microchip/xc32/v4.21/bin/bin/../../lib/gcc/pic32c/8.3.1/../../../../pic32c/lib/thumb/v8-m.base/nofp\libc-musl.a(__stdout.o)
 .text.__dummy  0x00000000        0x2 c:/program files/microchip/xc32/v4.21/bin/bin/../../lib/gcc/pic32c/8.3.1/../../../../pic32c/lib/thumb/v8-m.base/nofp\libc-musl.a(__stdout.o)
 .xc_stack_usage.hdr
                0x00000000        0xe c:/program files/microchip/xc32/v4.21/bin/bin/../../lib/gcc/pic32c/8.3.1/../../../../pic32c/lib/thumb/v8-m.base/nofp\libc-musl.a(__stdout.o)
 .text          0x00000000        0x0 c:/program files/microchip/xc32/v4.21/bin/bin/../../lib/gcc/pic32c/8.3.1/../../../../pic32c/lib/thumb/v8-m.base/nofp\libc-musl.a(__towrite.o)
 .data          0x00000000        0x0 c:/program files/microchip/xc32/v4.21/bin/bin/../../lib/gcc/pic32c/8.3.1/../../../../pic32c/lib/thumb/v8-m.base/nofp\libc-musl.a(__towrite.o)
 .bss           0x00000000        0x0 c:/program files/microchip/xc32/v4.21/bin/bin/../../lib/gcc/pic32c/8.3.1/../../../../pic32c/lib/thumb/v8-m.base/nofp\libc-musl.a(__towrite.o)
 .xc_stack_usage
                0x00000000       0x2c c:/program files/microchip/xc32/v4.21/bin/bin/../../lib/gcc/pic32c/8.3.1/../../../../pic32c/lib/thumb/v8-m.base/nofp\libc-musl.a(__towrite.o)
 .text.__dummy  0x00000000        0x4 c:/program files/microchip/xc32/v4.21/bin/bin/../../lib/gcc/pic32c/8.3.1/../../../../pic32c/lib/thumb/v8-m.base/nofp\libc-musl.a(__towrite.o)
 .xc_stack_usage.hdr
                0x00000000        0xe c:/program files/microchip/xc32/v4.21/bin/bin/../../lib/gcc/pic32c/8.3.1/../../../../pic32c/lib/thumb/v8-m.base/nofp\libc-musl.a(__towrite.o)
 .text          0x00000000        0x0 c:/program files/microchip/xc32/v4.21/bin/bin/../../lib/gcc/pic32c/8.3.1/../../../../pic32c/lib/thumb/v8-m.base/nofp\libc-musl.a(putc.o)
 .data          0x00000000        0x0 c:/program files/microchip/xc32/v4.21/bin/bin/../../lib/gcc/pic32c/8.3.1/../../../../pic32c/lib/thumb/v8-m.base/nofp\libc-musl.a(putc.o)
 .bss           0x00000000        0x0 c:/program files/microchip/xc32/v4.21/bin/bin/../../lib/gcc/pic32c/8.3.1/../../../../pic32c/lib/thumb/v8-m.base/nofp\libc-musl.a(putc.o)
 .xc_stack_usage
                0x00000000       0x4f c:/program files/microchip/xc32/v4.21/bin/bin/../../lib/gcc/pic32c/8.3.1/../../../../pic32c/lib/thumb/v8-m.base/nofp\libc-musl.a(putc.o)
 .text.__putc_unbuffered
                0x00000000       0x34 c:/program files/microchip/xc32/v4.21/bin/bin/../../lib/gcc/pic32c/8.3.1/../../../../pic32c/lib/thumb/v8-m.base/nofp\libc-musl.a(putc.o)
 .text.putc     0x00000000        0x8 c:/program files/microchip/xc32/v4.21/bin/bin/../../lib/gcc/pic32c/8.3.1/../../../../pic32c/lib/thumb/v8-m.base/nofp\libc-musl.a(putc.o)
 __xc_reference_data
                0x00000000        0xc c:/program files/microchip/xc32/v4.21/bin/bin/../../lib/gcc/pic32c/8.3.1/../../../../pic32c/lib/thumb/v8-m.base/nofp\libc-musl.a(putc.o)
 .xc_stack_usage.hdr
                0x00000000        0xe c:/program files/microchip/xc32/v4.21/bin/bin/../../lib/gcc/pic32c/8.3.1/../../../../pic32c/lib/thumb/v8-m.base/nofp\libc-musl.a(putc.o)
 .debug_info    0x00000000      0x4a8 c:/program files/microchip/xc32/v4.21/bin/bin/../../lib/gcc/pic32c/8.3.1/../../../../pic32c/lib/thumb/v8-m.base/nofp\libc-musl.a(putc.o)
 .debug_abbrev  0x00000000      0x106 c:/program files/microchip/xc32/v4.21/bin/bin/../../lib/gcc/pic32c/8.3.1/../../../../pic32c/lib/thumb/v8-m.base/nofp\libc-musl.a(putc.o)
 .debug_loc     0x00000000      0x13b c:/program files/microchip/xc32/v4.21/bin/bin/../../lib/gcc/pic32c/8.3.1/../../../../pic32c/lib/thumb/v8-m.base/nofp\libc-musl.a(putc.o)
 .debug_aranges
                0x00000000       0x30 c:/program files/microchip/xc32/v4.21/bin/bin/../../lib/gcc/pic32c/8.3.1/../../../../pic32c/lib/thumb/v8-m.base/nofp\libc-musl.a(putc.o)
 .debug_ranges  0x00000000       0x20 c:/program files/microchip/xc32/v4.21/bin/bin/../../lib/gcc/pic32c/8.3.1/../../../../pic32c/lib/thumb/v8-m.base/nofp\libc-musl.a(putc.o)
 .debug_line    0x00000000      0x1b1 c:/program files/microchip/xc32/v4.21/bin/bin/../../lib/gcc/pic32c/8.3.1/../../../../pic32c/lib/thumb/v8-m.base/nofp\libc-musl.a(putc.o)
 .debug_str     0x00000000       0x16 c:/program files/microchip/xc32/v4.21/bin/bin/../../lib/gcc/pic32c/8.3.1/../../../../pic32c/lib/thumb/v8-m.base/nofp\libc-musl.a(putc.o)
 .comment       0x00000000       0x2c c:/program files/microchip/xc32/v4.21/bin/bin/../../lib/gcc/pic32c/8.3.1/../../../../pic32c/lib/thumb/v8-m.base/nofp\libc-musl.a(putc.o)
 .note.GNU-stack
                0x00000000        0x0 c:/program files/microchip/xc32/v4.21/bin/bin/../../lib/gcc/pic32c/8.3.1/../../../../pic32c/lib/thumb/v8-m.base/nofp\libc-musl.a(putc.o)
 .debug_frame   0x00000000       0x5c c:/program files/microchip/xc32/v4.21/bin/bin/../../lib/gcc/pic32c/8.3.1/../../../../pic32c/lib/thumb/v8-m.base/nofp\libc-musl.a(putc.o)
 .ARM.attributes
                0x00000000       0x32 c:/program files/microchip/xc32/v4.21/bin/bin/../../lib/gcc/pic32c/8.3.1/../../../../pic32c/lib/thumb/v8-m.base/nofp\libc-musl.a(putc.o)
 .text          0x00000000        0x0 c:/program files/microchip/xc32/v4.21/bin/bin/../../lib/gcc/pic32c/8.3.1/../../../../pic32c/lib/thumb/v8-m.base/nofp\libc-musl.a(writev.o)
 .data          0x00000000        0x0 c:/program files/microchip/xc32/v4.21/bin/bin/../../lib/gcc/pic32c/8.3.1/../../../../pic32c/lib/thumb/v8-m.base/nofp\libc-musl.a(writev.o)
 .bss           0x00000000        0x0 c:/program files/microchip/xc32/v4.21/bin/bin/../../lib/gcc/pic32c/8.3.1/../../../../pic32c/lib/thumb/v8-m.base/nofp\libc-musl.a(writev.o)
 .xc_stack_usage
                0x00000000       0x16 c:/program files/microchip/xc32/v4.21/bin/bin/../../lib/gcc/pic32c/8.3.1/../../../../pic32c/lib/thumb/v8-m.base/nofp\libc-musl.a(writev.o)
 .xc_stack_usage.hdr
                0x00000000        0xe c:/program files/microchip/xc32/v4.21/bin/bin/../../lib/gcc/pic32c/8.3.1/../../../../pic32c/lib/thumb/v8-m.base/nofp\libc-musl.a(writev.o)
 .text          0x00000000        0x0 c:/program files/microchip/xc32/v4.21/bin/bin/../../lib/gcc/pic32c/8.3.1/../../../../pic32c/lib/thumb/v8-m.base/nofp\libc-musl.a(__int_vfprintf.o)
 .data          0x00000000        0x0 c:/program files/microchip/xc32/v4.21/bin/bin/../../lib/gcc/pic32c/8.3.1/../../../../pic32c/lib/thumb/v8-m.base/nofp\libc-musl.a(__int_vfprintf.o)
 .bss           0x00000000        0x0 c:/program files/microchip/xc32/v4.21/bin/bin/../../lib/gcc/pic32c/8.3.1/../../../../pic32c/lib/thumb/v8-m.base/nofp\libc-musl.a(__int_vfprintf.o)
 .xc_stack_usage
                0x00000000       0x18 c:/program files/microchip/xc32/v4.21/bin/bin/../../lib/gcc/pic32c/8.3.1/../../../../pic32c/lib/thumb/v8-m.base/nofp\libc-musl.a(__int_vfprintf.o)
 .xc_stack_usage.hdr
                0x00000000        0xe c:/program files/microchip/xc32/v4.21/bin/bin/../../lib/gcc/pic32c/8.3.1/../../../../pic32c/lib/thumb/v8-m.base/nofp\libc-musl.a(__int_vfprintf.o)
 .text          0x00000000        0x0 c:/program files/microchip/xc32/v4.21/bin/bin/../../lib/gcc/pic32c/8.3.1/../../../../pic32c/lib/thumb/v8-m.base/nofp\libc-musl.a(__overflow.o)
 .data          0x00000000        0x0 c:/program files/microchip/xc32/v4.21/bin/bin/../../lib/gcc/pic32c/8.3.1/../../../../pic32c/lib/thumb/v8-m.base/nofp\libc-musl.a(__overflow.o)
 .bss           0x00000000        0x0 c:/program files/microchip/xc32/v4.21/bin/bin/../../lib/gcc/pic32c/8.3.1/../../../../pic32c/lib/thumb/v8-m.base/nofp\libc-musl.a(__overflow.o)
 .xc_stack_usage
                0x00000000       0x18 c:/program files/microchip/xc32/v4.21/bin/bin/../../lib/gcc/pic32c/8.3.1/../../../../pic32c/lib/thumb/v8-m.base/nofp\libc-musl.a(__overflow.o)
 .text.__overflow
                0x00000000       0x4c c:/program files/microchip/xc32/v4.21/bin/bin/../../lib/gcc/pic32c/8.3.1/../../../../pic32c/lib/thumb/v8-m.base/nofp\libc-musl.a(__overflow.o)
 .xc_stack_usage.hdr
                0x00000000        0xe c:/program files/microchip/xc32/v4.21/bin/bin/../../lib/gcc/pic32c/8.3.1/../../../../pic32c/lib/thumb/v8-m.base/nofp\libc-musl.a(__overflow.o)
 .debug_info    0x00000000      0x628 c:/program files/microchip/xc32/v4.21/bin/bin/../../lib/gcc/pic32c/8.3.1/../../../../pic32c/lib/thumb/v8-m.base/nofp\libc-musl.a(__overflow.o)
 .debug_abbrev  0x00000000      0x125 c:/program files/microchip/xc32/v4.21/bin/bin/../../lib/gcc/pic32c/8.3.1/../../../../pic32c/lib/thumb/v8-m.base/nofp\libc-musl.a(__overflow.o)
 .debug_loc     0x00000000       0xbb c:/program files/microchip/xc32/v4.21/bin/bin/../../lib/gcc/pic32c/8.3.1/../../../../pic32c/lib/thumb/v8-m.base/nofp\libc-musl.a(__overflow.o)
 .debug_aranges
                0x00000000       0x20 c:/program files/microchip/xc32/v4.21/bin/bin/../../lib/gcc/pic32c/8.3.1/../../../../pic32c/lib/thumb/v8-m.base/nofp\libc-musl.a(__overflow.o)
 .debug_ranges  0x00000000       0x10 c:/program files/microchip/xc32/v4.21/bin/bin/../../lib/gcc/pic32c/8.3.1/../../../../pic32c/lib/thumb/v8-m.base/nofp\libc-musl.a(__overflow.o)
 .debug_line    0x00000000      0x210 c:/program files/microchip/xc32/v4.21/bin/bin/../../lib/gcc/pic32c/8.3.1/../../../../pic32c/lib/thumb/v8-m.base/nofp\libc-musl.a(__overflow.o)
 .debug_str     0x00000000        0xa c:/program files/microchip/xc32/v4.21/bin/bin/../../lib/gcc/pic32c/8.3.1/../../../../pic32c/lib/thumb/v8-m.base/nofp\libc-musl.a(__overflow.o)
 .comment       0x00000000       0x2c c:/program files/microchip/xc32/v4.21/bin/bin/../../lib/gcc/pic32c/8.3.1/../../../../pic32c/lib/thumb/v8-m.base/nofp\libc-musl.a(__overflow.o)
 .note.GNU-stack
                0x00000000        0x0 c:/program files/microchip/xc32/v4.21/bin/bin/../../lib/gcc/pic32c/8.3.1/../../../../pic32c/lib/thumb/v8-m.base/nofp\libc-musl.a(__overflow.o)
 .debug_frame   0x00000000       0x30 c:/program files/microchip/xc32/v4.21/bin/bin/../../lib/gcc/pic32c/8.3.1/../../../../pic32c/lib/thumb/v8-m.base/nofp\libc-musl.a(__overflow.o)
 .ARM.attributes
                0x00000000       0x32 c:/program files/microchip/xc32/v4.21/bin/bin/../../lib/gcc/pic32c/8.3.1/../../../../pic32c/lib/thumb/v8-m.base/nofp\libc-musl.a(__overflow.o)
 .text          0x00000000        0x0 c:/program files/microchip/xc32/v4.21/bin/bin/../../lib/gcc/pic32c/8.3.1/../../../../pic32c/lib/thumb/v8-m.base/nofp\libc-musl.a(__fclose.o)
 .data          0x00000000        0x0 c:/program files/microchip/xc32/v4.21/bin/bin/../../lib/gcc/pic32c/8.3.1/../../../../pic32c/lib/thumb/v8-m.base/nofp\libc-musl.a(__fclose.o)
 .bss           0x00000000        0x0 c:/program files/microchip/xc32/v4.21/bin/bin/../../lib/gcc/pic32c/8.3.1/../../../../pic32c/lib/thumb/v8-m.base/nofp\libc-musl.a(__fclose.o)
 .xc_stack_usage
                0x00000000       0x16 c:/program files/microchip/xc32/v4.21/bin/bin/../../lib/gcc/pic32c/8.3.1/../../../../pic32c/lib/thumb/v8-m.base/nofp\libc-musl.a(__fclose.o)
 .text.__fclose
                0x00000000       0x12 c:/program files/microchip/xc32/v4.21/bin/bin/../../lib/gcc/pic32c/8.3.1/../../../../pic32c/lib/thumb/v8-m.base/nofp\libc-musl.a(__fclose.o)
 .xc_stack_usage.hdr
                0x00000000        0xe c:/program files/microchip/xc32/v4.21/bin/bin/../../lib/gcc/pic32c/8.3.1/../../../../pic32c/lib/thumb/v8-m.base/nofp\libc-musl.a(__fclose.o)
 .debug_info    0x00000000      0x42f c:/program files/microchip/xc32/v4.21/bin/bin/../../lib/gcc/pic32c/8.3.1/../../../../pic32c/lib/thumb/v8-m.base/nofp\libc-musl.a(__fclose.o)
 .debug_abbrev  0x00000000       0xc1 c:/program files/microchip/xc32/v4.21/bin/bin/../../lib/gcc/pic32c/8.3.1/../../../../pic32c/lib/thumb/v8-m.base/nofp\libc-musl.a(__fclose.o)
 .debug_loc     0x00000000       0x77 c:/program files/microchip/xc32/v4.21/bin/bin/../../lib/gcc/pic32c/8.3.1/../../../../pic32c/lib/thumb/v8-m.base/nofp\libc-musl.a(__fclose.o)
 .debug_aranges
                0x00000000       0x20 c:/program files/microchip/xc32/v4.21/bin/bin/../../lib/gcc/pic32c/8.3.1/../../../../pic32c/lib/thumb/v8-m.base/nofp\libc-musl.a(__fclose.o)
 .debug_ranges  0x00000000       0x10 c:/program files/microchip/xc32/v4.21/bin/bin/../../lib/gcc/pic32c/8.3.1/../../../../pic32c/lib/thumb/v8-m.base/nofp\libc-musl.a(__fclose.o)
 .debug_line    0x00000000      0x15f c:/program files/microchip/xc32/v4.21/bin/bin/../../lib/gcc/pic32c/8.3.1/../../../../pic32c/lib/thumb/v8-m.base/nofp\libc-musl.a(__fclose.o)
 .debug_str     0x00000000        0x0 c:/program files/microchip/xc32/v4.21/bin/bin/../../lib/gcc/pic32c/8.3.1/../../../../pic32c/lib/thumb/v8-m.base/nofp\libc-musl.a(__fclose.o)
 .comment       0x00000000       0x2c c:/program files/microchip/xc32/v4.21/bin/bin/../../lib/gcc/pic32c/8.3.1/../../../../pic32c/lib/thumb/v8-m.base/nofp\libc-musl.a(__fclose.o)
 .note.GNU-stack
                0x00000000        0x0 c:/program files/microchip/xc32/v4.21/bin/bin/../../lib/gcc/pic32c/8.3.1/../../../../pic32c/lib/thumb/v8-m.base/nofp\libc-musl.a(__fclose.o)
 .debug_frame   0x00000000       0x28 c:/program files/microchip/xc32/v4.21/bin/bin/../../lib/gcc/pic32c/8.3.1/../../../../pic32c/lib/thumb/v8-m.base/nofp\libc-musl.a(__fclose.o)
 .ARM.attributes
                0x00000000       0x32 c:/program files/microchip/xc32/v4.21/bin/bin/../../lib/gcc/pic32c/8.3.1/../../../../pic32c/lib/thumb/v8-m.base/nofp\libc-musl.a(__fclose.o)
 .text          0x00000000        0x0 c:/program files/microchip/xc32/v4.21/bin/bin/../../lib/gcc/pic32c/8.3.1/../../../../pic32c/lib/thumb/v8-m.base/nofp\libc-musl.a(__fopen.o)
 .data          0x00000000        0x0 c:/program files/microchip/xc32/v4.21/bin/bin/../../lib/gcc/pic32c/8.3.1/../../../../pic32c/lib/thumb/v8-m.base/nofp\libc-musl.a(__fopen.o)
 .bss           0x00000000        0x0 c:/program files/microchip/xc32/v4.21/bin/bin/../../lib/gcc/pic32c/8.3.1/../../../../pic32c/lib/thumb/v8-m.base/nofp\libc-musl.a(__fopen.o)
 .xc_stack_usage
                0x00000000       0x43 c:/program files/microchip/xc32/v4.21/bin/bin/../../lib/gcc/pic32c/8.3.1/../../../../pic32c/lib/thumb/v8-m.base/nofp\libc-musl.a(__fopen.o)
 .text.__dummy  0x00000000        0x4 c:/program files/microchip/xc32/v4.21/bin/bin/../../lib/gcc/pic32c/8.3.1/../../../../pic32c/lib/thumb/v8-m.base/nofp\libc-musl.a(__fopen.o)
 .text.__fopen_std
                0x00000000       0x30 c:/program files/microchip/xc32/v4.21/bin/bin/../../lib/gcc/pic32c/8.3.1/../../../../pic32c/lib/thumb/v8-m.base/nofp\libc-musl.a(__fopen.o)
 .text.__fopen  0x00000000        0x8 c:/program files/microchip/xc32/v4.21/bin/bin/../../lib/gcc/pic32c/8.3.1/../../../../pic32c/lib/thumb/v8-m.base/nofp\libc-musl.a(__fopen.o)
 .xc_stack_usage.hdr
                0x00000000        0xe c:/program files/microchip/xc32/v4.21/bin/bin/../../lib/gcc/pic32c/8.3.1/../../../../pic32c/lib/thumb/v8-m.base/nofp\libc-musl.a(__fopen.o)
 .debug_info    0x00000000      0x576 c:/program files/microchip/xc32/v4.21/bin/bin/../../lib/gcc/pic32c/8.3.1/../../../../pic32c/lib/thumb/v8-m.base/nofp\libc-musl.a(__fopen.o)
 .debug_abbrev  0x00000000      0x14f c:/program files/microchip/xc32/v4.21/bin/bin/../../lib/gcc/pic32c/8.3.1/../../../../pic32c/lib/thumb/v8-m.base/nofp\libc-musl.a(__fopen.o)
 .debug_loc     0x00000000       0x94 c:/program files/microchip/xc32/v4.21/bin/bin/../../lib/gcc/pic32c/8.3.1/../../../../pic32c/lib/thumb/v8-m.base/nofp\libc-musl.a(__fopen.o)
 .debug_aranges
                0x00000000       0x30 c:/program files/microchip/xc32/v4.21/bin/bin/../../lib/gcc/pic32c/8.3.1/../../../../pic32c/lib/thumb/v8-m.base/nofp\libc-musl.a(__fopen.o)
 .debug_ranges  0x00000000       0x20 c:/program files/microchip/xc32/v4.21/bin/bin/../../lib/gcc/pic32c/8.3.1/../../../../pic32c/lib/thumb/v8-m.base/nofp\libc-musl.a(__fopen.o)
 .debug_line    0x00000000      0x231 c:/program files/microchip/xc32/v4.21/bin/bin/../../lib/gcc/pic32c/8.3.1/../../../../pic32c/lib/thumb/v8-m.base/nofp\libc-musl.a(__fopen.o)
 .debug_str     0x00000000        0x0 c:/program files/microchip/xc32/v4.21/bin/bin/../../lib/gcc/pic32c/8.3.1/../../../../pic32c/lib/thumb/v8-m.base/nofp\libc-musl.a(__fopen.o)
 .comment       0x00000000       0x2c c:/program files/microchip/xc32/v4.21/bin/bin/../../lib/gcc/pic32c/8.3.1/../../../../pic32c/lib/thumb/v8-m.base/nofp\libc-musl.a(__fopen.o)
 .note.GNU-stack
                0x00000000        0x0 c:/program files/microchip/xc32/v4.21/bin/bin/../../lib/gcc/pic32c/8.3.1/../../../../pic32c/lib/thumb/v8-m.base/nofp\libc-musl.a(__fopen.o)
 .debug_frame   0x00000000       0x50 c:/program files/microchip/xc32/v4.21/bin/bin/../../lib/gcc/pic32c/8.3.1/../../../../pic32c/lib/thumb/v8-m.base/nofp\libc-musl.a(__fopen.o)
 .ARM.attributes
                0x00000000       0x32 c:/program files/microchip/xc32/v4.21/bin/bin/../../lib/gcc/pic32c/8.3.1/../../../../pic32c/lib/thumb/v8-m.base/nofp\libc-musl.a(__fopen.o)
 .text          0x00000000        0x0 c:/program files/microchip/xc32/v4.21/bin/bin/../../lib/gcc/pic32c/8.3.1/../../../../pic32c/lib/thumb/v8-m.base/nofp\libc-musl.a(__fseeko.o)
 .data          0x00000000        0x0 c:/program files/microchip/xc32/v4.21/bin/bin/../../lib/gcc/pic32c/8.3.1/../../../../pic32c/lib/thumb/v8-m.base/nofp\libc-musl.a(__fseeko.o)
 .bss           0x00000000        0x0 c:/program files/microchip/xc32/v4.21/bin/bin/../../lib/gcc/pic32c/8.3.1/../../../../pic32c/lib/thumb/v8-m.base/nofp\libc-musl.a(__fseeko.o)
 .xc_stack_usage
                0x00000000       0x16 c:/program files/microchip/xc32/v4.21/bin/bin/../../lib/gcc/pic32c/8.3.1/../../../../pic32c/lib/thumb/v8-m.base/nofp\libc-musl.a(__fseeko.o)
 .text.__fseeko
                0x00000000        0x8 c:/program files/microchip/xc32/v4.21/bin/bin/../../lib/gcc/pic32c/8.3.1/../../../../pic32c/lib/thumb/v8-m.base/nofp\libc-musl.a(__fseeko.o)
 .xc_stack_usage.hdr
                0x00000000        0xe c:/program files/microchip/xc32/v4.21/bin/bin/../../lib/gcc/pic32c/8.3.1/../../../../pic32c/lib/thumb/v8-m.base/nofp\libc-musl.a(__fseeko.o)
 .debug_info    0x00000000      0x4e8 c:/program files/microchip/xc32/v4.21/bin/bin/../../lib/gcc/pic32c/8.3.1/../../../../pic32c/lib/thumb/v8-m.base/nofp\libc-musl.a(__fseeko.o)
 .debug_abbrev  0x00000000       0xc8 c:/program files/microchip/xc32/v4.21/bin/bin/../../lib/gcc/pic32c/8.3.1/../../../../pic32c/lib/thumb/v8-m.base/nofp\libc-musl.a(__fseeko.o)
 .debug_loc     0x00000000       0x8f c:/program files/microchip/xc32/v4.21/bin/bin/../../lib/gcc/pic32c/8.3.1/../../../../pic32c/lib/thumb/v8-m.base/nofp\libc-musl.a(__fseeko.o)
 .debug_aranges
                0x00000000       0x20 c:/program files/microchip/xc32/v4.21/bin/bin/../../lib/gcc/pic32c/8.3.1/../../../../pic32c/lib/thumb/v8-m.base/nofp\libc-musl.a(__fseeko.o)
 .debug_ranges  0x00000000       0x10 c:/program files/microchip/xc32/v4.21/bin/bin/../../lib/gcc/pic32c/8.3.1/../../../../pic32c/lib/thumb/v8-m.base/nofp\libc-musl.a(__fseeko.o)
 .debug_line    0x00000000      0x14d c:/program files/microchip/xc32/v4.21/bin/bin/../../lib/gcc/pic32c/8.3.1/../../../../pic32c/lib/thumb/v8-m.base/nofp\libc-musl.a(__fseeko.o)
 .debug_str     0x00000000        0x0 c:/program files/microchip/xc32/v4.21/bin/bin/../../lib/gcc/pic32c/8.3.1/../../../../pic32c/lib/thumb/v8-m.base/nofp\libc-musl.a(__fseeko.o)
 .comment       0x00000000       0x2c c:/program files/microchip/xc32/v4.21/bin/bin/../../lib/gcc/pic32c/8.3.1/../../../../pic32c/lib/thumb/v8-m.base/nofp\libc-musl.a(__fseeko.o)
 .note.GNU-stack
                0x00000000        0x0 c:/program files/microchip/xc32/v4.21/bin/bin/../../lib/gcc/pic32c/8.3.1/../../../../pic32c/lib/thumb/v8-m.base/nofp\libc-musl.a(__fseeko.o)
 .debug_frame   0x00000000       0x28 c:/program files/microchip/xc32/v4.21/bin/bin/../../lib/gcc/pic32c/8.3.1/../../../../pic32c/lib/thumb/v8-m.base/nofp\libc-musl.a(__fseeko.o)
 .ARM.attributes
                0x00000000       0x32 c:/program files/microchip/xc32/v4.21/bin/bin/../../lib/gcc/pic32c/8.3.1/../../../../pic32c/lib/thumb/v8-m.base/nofp\libc-musl.a(__fseeko.o)
 .text          0x00000000        0x0 c:/program files/microchip/xc32/v4.21/bin/bin/../../lib/gcc/pic32c/8.3.1/../../../../pic32c/lib/thumb/v8-m.base/nofp\libc-musl.a(__ftello.o)
 .data          0x00000000        0x0 c:/program files/microchip/xc32/v4.21/bin/bin/../../lib/gcc/pic32c/8.3.1/../../../../pic32c/lib/thumb/v8-m.base/nofp\libc-musl.a(__ftello.o)
 .bss           0x00000000        0x0 c:/program files/microchip/xc32/v4.21/bin/bin/../../lib/gcc/pic32c/8.3.1/../../../../pic32c/lib/thumb/v8-m.base/nofp\libc-musl.a(__ftello.o)
 .xc_stack_usage
                0x00000000       0x2f c:/program files/microchip/xc32/v4.21/bin/bin/../../lib/gcc/pic32c/8.3.1/../../../../pic32c/lib/thumb/v8-m.base/nofp\libc-musl.a(__ftello.o)
 .text.__dummy  0x00000000       0x1a c:/program files/microchip/xc32/v4.21/bin/bin/../../lib/gcc/pic32c/8.3.1/../../../../pic32c/lib/thumb/v8-m.base/nofp\libc-musl.a(__ftello.o)
 .text.__ftello_adj
                0x00000000        0x8 c:/program files/microchip/xc32/v4.21/bin/bin/../../lib/gcc/pic32c/8.3.1/../../../../pic32c/lib/thumb/v8-m.base/nofp\libc-musl.a(__ftello.o)
 .xc_stack_usage.hdr
                0x00000000        0xe c:/program files/microchip/xc32/v4.21/bin/bin/../../lib/gcc/pic32c/8.3.1/../../../../pic32c/lib/thumb/v8-m.base/nofp\libc-musl.a(__ftello.o)
 .debug_info    0x00000000      0x51d c:/program files/microchip/xc32/v4.21/bin/bin/../../lib/gcc/pic32c/8.3.1/../../../../pic32c/lib/thumb/v8-m.base/nofp\libc-musl.a(__ftello.o)
 .debug_abbrev  0x00000000       0xe4 c:/program files/microchip/xc32/v4.21/bin/bin/../../lib/gcc/pic32c/8.3.1/../../../../pic32c/lib/thumb/v8-m.base/nofp\libc-musl.a(__ftello.o)
 .debug_loc     0x00000000       0xd4 c:/program files/microchip/xc32/v4.21/bin/bin/../../lib/gcc/pic32c/8.3.1/../../../../pic32c/lib/thumb/v8-m.base/nofp\libc-musl.a(__ftello.o)
 .debug_aranges
                0x00000000       0x28 c:/program files/microchip/xc32/v4.21/bin/bin/../../lib/gcc/pic32c/8.3.1/../../../../pic32c/lib/thumb/v8-m.base/nofp\libc-musl.a(__ftello.o)
 .debug_ranges  0x00000000       0x18 c:/program files/microchip/xc32/v4.21/bin/bin/../../lib/gcc/pic32c/8.3.1/../../../../pic32c/lib/thumb/v8-m.base/nofp\libc-musl.a(__ftello.o)
 .debug_line    0x00000000      0x183 c:/program files/microchip/xc32/v4.21/bin/bin/../../lib/gcc/pic32c/8.3.1/../../../../pic32c/lib/thumb/v8-m.base/nofp\libc-musl.a(__ftello.o)
 .debug_str     0x00000000        0x0 c:/program files/microchip/xc32/v4.21/bin/bin/../../lib/gcc/pic32c/8.3.1/../../../../pic32c/lib/thumb/v8-m.base/nofp\libc-musl.a(__ftello.o)
 .comment       0x00000000       0x2c c:/program files/microchip/xc32/v4.21/bin/bin/../../lib/gcc/pic32c/8.3.1/../../../../pic32c/lib/thumb/v8-m.base/nofp\libc-musl.a(__ftello.o)
 .note.GNU-stack
                0x00000000        0x0 c:/program files/microchip/xc32/v4.21/bin/bin/../../lib/gcc/pic32c/8.3.1/../../../../pic32c/lib/thumb/v8-m.base/nofp\libc-musl.a(__ftello.o)
 .debug_frame   0x00000000       0x40 c:/program files/microchip/xc32/v4.21/bin/bin/../../lib/gcc/pic32c/8.3.1/../../../../pic32c/lib/thumb/v8-m.base/nofp\libc-musl.a(__ftello.o)
 .ARM.attributes
                0x00000000       0x32 c:/program files/microchip/xc32/v4.21/bin/bin/../../lib/gcc/pic32c/8.3.1/../../../../pic32c/lib/thumb/v8-m.base/nofp\libc-musl.a(__ftello.o)
 .text          0x00000000        0x0 c:/program files/microchip/xc32/v4.21/bin/bin/../../lib/gcc/pic32c/8.3.1/../../../../pic32c/lib/thumb/v8-m.base/nofp\libc-musl.a(__fwrite.o)
 .data          0x00000000        0x0 c:/program files/microchip/xc32/v4.21/bin/bin/../../lib/gcc/pic32c/8.3.1/../../../../pic32c/lib/thumb/v8-m.base/nofp\libc-musl.a(__fwrite.o)
 .bss           0x00000000        0x0 c:/program files/microchip/xc32/v4.21/bin/bin/../../lib/gcc/pic32c/8.3.1/../../../../pic32c/lib/thumb/v8-m.base/nofp\libc-musl.a(__fwrite.o)
 .xc_stack_usage
                0x00000000       0x36 c:/program files/microchip/xc32/v4.21/bin/bin/../../lib/gcc/pic32c/8.3.1/../../../../pic32c/lib/thumb/v8-m.base/nofp\libc-musl.a(__fwrite.o)
 .xc_stack_usage.hdr
                0x00000000        0xe c:/program files/microchip/xc32/v4.21/bin/bin/../../lib/gcc/pic32c/8.3.1/../../../../pic32c/lib/thumb/v8-m.base/nofp\libc-musl.a(__fwrite.o)
 .data          0x00000000        0x0 c:/program files/microchip/xc32/v4.21/bin/bin/../../lib/gcc/pic32c/8.3.1/thumb/v8-m.base/nofp\libgcc.a(_lshrdi3.o)
 .bss           0x00000000        0x0 c:/program files/microchip/xc32/v4.21/bin/bin/../../lib/gcc/pic32c/8.3.1/thumb/v8-m.base/nofp\libgcc.a(_lshrdi3.o)
 .xc_stack_usage.hdr
                0x00000000        0xe c:/program files/microchip/xc32/v4.21/bin/bin/../../lib/gcc/pic32c/8.3.1/thumb/v8-m.base/nofp\libgcc.a(_lshrdi3.o)
 .xc_stack_usage
                0x00000000       0x17 c:/program files/microchip/xc32/v4.21/bin/bin/../../lib/gcc/pic32c/8.3.1/thumb/v8-m.base/nofp\libgcc.a(_lshrdi3.o)
 .data          0x00000000        0x0 c:/program files/microchip/xc32/v4.21/bin/bin/../../lib/gcc/pic32c/8.3.1/thumb/v8-m.base/nofp\libgcc.a(_ashldi3.o)
 .bss           0x00000000        0x0 c:/program files/microchip/xc32/v4.21/bin/bin/../../lib/gcc/pic32c/8.3.1/thumb/v8-m.base/nofp\libgcc.a(_ashldi3.o)
 .xc_stack_usage.hdr
                0x00000000        0xe c:/program files/microchip/xc32/v4.21/bin/bin/../../lib/gcc/pic32c/8.3.1/thumb/v8-m.base/nofp\libgcc.a(_ashldi3.o)
 .xc_stack_usage
                0x00000000       0x17 c:/program files/microchip/xc32/v4.21/bin/bin/../../lib/gcc/pic32c/8.3.1/thumb/v8-m.base/nofp\libgcc.a(_ashldi3.o)
 .text          0x00000000       0x48 c:/program files/microchip/xc32/v4.21/bin/bin/../../lib/gcc/pic32c/8.3.1/thumb/v8-m.base/nofp\libgcc.a(_aeabi_ldivmod.o)
 .data          0x00000000        0x0 c:/program files/microchip/xc32/v4.21/bin/bin/../../lib/gcc/pic32c/8.3.1/thumb/v8-m.base/nofp\libgcc.a(_aeabi_ldivmod.o)
 .bss           0x00000000        0x0 c:/program files/microchip/xc32/v4.21/bin/bin/../../lib/gcc/pic32c/8.3.1/thumb/v8-m.base/nofp\libgcc.a(_aeabi_ldivmod.o)
 .xc_stack_usage.hdr
                0x00000000        0xe c:/program files/microchip/xc32/v4.21/bin/bin/../../lib/gcc/pic32c/8.3.1/thumb/v8-m.base/nofp\libgcc.a(_aeabi_ldivmod.o)
 .xc_stack_usage
                0x00000000       0x1d c:/program files/microchip/xc32/v4.21/bin/bin/../../lib/gcc/pic32c/8.3.1/thumb/v8-m.base/nofp\libgcc.a(_aeabi_ldivmod.o)
 .debug_line    0x00000000       0xa3 c:/program files/microchip/xc32/v4.21/bin/bin/../../lib/gcc/pic32c/8.3.1/thumb/v8-m.base/nofp\libgcc.a(_aeabi_ldivmod.o)
 .debug_info    0x00000000       0x26 c:/program files/microchip/xc32/v4.21/bin/bin/../../lib/gcc/pic32c/8.3.1/thumb/v8-m.base/nofp\libgcc.a(_aeabi_ldivmod.o)
 .debug_abbrev  0x00000000       0x14 c:/program files/microchip/xc32/v4.21/bin/bin/../../lib/gcc/pic32c/8.3.1/thumb/v8-m.base/nofp\libgcc.a(_aeabi_ldivmod.o)
 .debug_aranges
                0x00000000       0x20 c:/program files/microchip/xc32/v4.21/bin/bin/../../lib/gcc/pic32c/8.3.1/thumb/v8-m.base/nofp\libgcc.a(_aeabi_ldivmod.o)
 .debug_str     0x00000000       0xee c:/program files/microchip/xc32/v4.21/bin/bin/../../lib/gcc/pic32c/8.3.1/thumb/v8-m.base/nofp\libgcc.a(_aeabi_ldivmod.o)
 .ARM.attributes
                0x00000000       0x22 c:/program files/microchip/xc32/v4.21/bin/bin/../../lib/gcc/pic32c/8.3.1/thumb/v8-m.base/nofp\libgcc.a(_aeabi_ldivmod.o)
 .data          0x00000000        0x0 c:/program files/microchip/xc32/v4.21/bin/bin/../../lib/gcc/pic32c/8.3.1/thumb/v8-m.base/nofp\libgcc.a(_aeabi_uldivmod.o)
 .bss           0x00000000        0x0 c:/program files/microchip/xc32/v4.21/bin/bin/../../lib/gcc/pic32c/8.3.1/thumb/v8-m.base/nofp\libgcc.a(_aeabi_uldivmod.o)
 .xc_stack_usage.hdr
                0x00000000        0xe c:/program files/microchip/xc32/v4.21/bin/bin/../../lib/gcc/pic32c/8.3.1/thumb/v8-m.base/nofp\libgcc.a(_aeabi_uldivmod.o)
 .xc_stack_usage
                0x00000000       0x1e c:/program files/microchip/xc32/v4.21/bin/bin/../../lib/gcc/pic32c/8.3.1/thumb/v8-m.base/nofp\libgcc.a(_aeabi_uldivmod.o)
 .data          0x00000000        0x0 c:/program files/microchip/xc32/v4.21/bin/bin/../../lib/gcc/pic32c/8.3.1/thumb/v8-m.base/nofp\libgcc.a(_muldi3.o)
 .bss           0x00000000        0x0 c:/program files/microchip/xc32/v4.21/bin/bin/../../lib/gcc/pic32c/8.3.1/thumb/v8-m.base/nofp\libgcc.a(_muldi3.o)
 .xc_stack_usage
                0x00000000       0x16 c:/program files/microchip/xc32/v4.21/bin/bin/../../lib/gcc/pic32c/8.3.1/thumb/v8-m.base/nofp\libgcc.a(_muldi3.o)
 .xc_stack_usage.hdr
                0x00000000        0xe c:/program files/microchip/xc32/v4.21/bin/bin/../../lib/gcc/pic32c/8.3.1/thumb/v8-m.base/nofp\libgcc.a(_muldi3.o)
 .data          0x00000000        0x0 c:/program files/microchip/xc32/v4.21/bin/bin/../../lib/gcc/pic32c/8.3.1/thumb/v8-m.base/nofp\libgcc.a(_udivmoddi4.o)
 .bss           0x00000000        0x0 c:/program files/microchip/xc32/v4.21/bin/bin/../../lib/gcc/pic32c/8.3.1/thumb/v8-m.base/nofp\libgcc.a(_udivmoddi4.o)
 .xc_stack_usage
                0x00000000       0x1a c:/program files/microchip/xc32/v4.21/bin/bin/../../lib/gcc/pic32c/8.3.1/thumb/v8-m.base/nofp\libgcc.a(_udivmoddi4.o)
 .ARM.extab     0x00000000        0x0 c:/program files/microchip/xc32/v4.21/bin/bin/../../lib/gcc/pic32c/8.3.1/thumb/v8-m.base/nofp\libgcc.a(_udivmoddi4.o)
 .xc_stack_usage.hdr
                0x00000000        0xe c:/program files/microchip/xc32/v4.21/bin/bin/../../lib/gcc/pic32c/8.3.1/thumb/v8-m.base/nofp\libgcc.a(_udivmoddi4.o)
 .text          0x00000000       0x34 c:/program files/microchip/xc32/v4.21/bin/bin/../../lib/gcc/pic32c/8.3.1/thumb/v8-m.base/nofp\libgcc.a(bpabi.o)
 .data          0x00000000        0x0 c:/program files/microchip/xc32/v4.21/bin/bin/../../lib/gcc/pic32c/8.3.1/thumb/v8-m.base/nofp\libgcc.a(bpabi.o)
 .bss           0x00000000        0x0 c:/program files/microchip/xc32/v4.21/bin/bin/../../lib/gcc/pic32c/8.3.1/thumb/v8-m.base/nofp\libgcc.a(bpabi.o)
 .xc_stack_usage
                0x00000000       0x22 c:/program files/microchip/xc32/v4.21/bin/bin/../../lib/gcc/pic32c/8.3.1/thumb/v8-m.base/nofp\libgcc.a(bpabi.o)
 .xc_stack_usage.hdr
                0x00000000        0xe c:/program files/microchip/xc32/v4.21/bin/bin/../../lib/gcc/pic32c/8.3.1/thumb/v8-m.base/nofp\libgcc.a(bpabi.o)
 .debug_info    0x00000000      0x2e8 c:/program files/microchip/xc32/v4.21/bin/bin/../../lib/gcc/pic32c/8.3.1/thumb/v8-m.base/nofp\libgcc.a(bpabi.o)
 .debug_abbrev  0x00000000       0xaa c:/program files/microchip/xc32/v4.21/bin/bin/../../lib/gcc/pic32c/8.3.1/thumb/v8-m.base/nofp\libgcc.a(bpabi.o)
 .debug_loc     0x00000000       0x9d c:/program files/microchip/xc32/v4.21/bin/bin/../../lib/gcc/pic32c/8.3.1/thumb/v8-m.base/nofp\libgcc.a(bpabi.o)
 .debug_aranges
                0x00000000       0x20 c:/program files/microchip/xc32/v4.21/bin/bin/../../lib/gcc/pic32c/8.3.1/thumb/v8-m.base/nofp\libgcc.a(bpabi.o)
 .debug_line    0x00000000       0xc0 c:/program files/microchip/xc32/v4.21/bin/bin/../../lib/gcc/pic32c/8.3.1/thumb/v8-m.base/nofp\libgcc.a(bpabi.o)
 .debug_str     0x00000000        0x9 c:/program files/microchip/xc32/v4.21/bin/bin/../../lib/gcc/pic32c/8.3.1/thumb/v8-m.base/nofp\libgcc.a(bpabi.o)
 .comment       0x00000000       0x2c c:/program files/microchip/xc32/v4.21/bin/bin/../../lib/gcc/pic32c/8.3.1/thumb/v8-m.base/nofp\libgcc.a(bpabi.o)
 .debug_frame   0x00000000       0x34 c:/program files/microchip/xc32/v4.21/bin/bin/../../lib/gcc/pic32c/8.3.1/thumb/v8-m.base/nofp\libgcc.a(bpabi.o)
 .ARM.attributes
                0x00000000       0x30 c:/program files/microchip/xc32/v4.21/bin/bin/../../lib/gcc/pic32c/8.3.1/thumb/v8-m.base/nofp\libgcc.a(bpabi.o)
 .data          0x00000000        0x0 c:/program files/microchip/xc32/v4.21/bin/bin/../../lib/gcc/pic32c/8.3.1/thumb/v8-m.base/nofp\libgcc.a(_dvmd_tls.o)
 .bss           0x00000000        0x0 c:/program files/microchip/xc32/v4.21/bin/bin/../../lib/gcc/pic32c/8.3.1/thumb/v8-m.base/nofp\libgcc.a(_dvmd_tls.o)
 .xc_stack_usage.hdr
                0x00000000        0xe c:/program files/microchip/xc32/v4.21/bin/bin/../../lib/gcc/pic32c/8.3.1/thumb/v8-m.base/nofp\libgcc.a(_dvmd_tls.o)
 .xc_stack_usage
                0x00000000       0x36 c:/program files/microchip/xc32/v4.21/bin/bin/../../lib/gcc/pic32c/8.3.1/thumb/v8-m.base/nofp\libgcc.a(_dvmd_tls.o)
 .data          0x00000000        0x0 c:/program files/microchip/xc32/v4.21/bin/bin/../../lib/gcc/pic32c/8.3.1/thumb/v8-m.base/nofp\libgcc.a(_clzsi2.o)
 .bss           0x00000000        0x0 c:/program files/microchip/xc32/v4.21/bin/bin/../../lib/gcc/pic32c/8.3.1/thumb/v8-m.base/nofp\libgcc.a(_clzsi2.o)
 .xc_stack_usage.hdr
                0x00000000        0xe c:/program files/microchip/xc32/v4.21/bin/bin/../../lib/gcc/pic32c/8.3.1/thumb/v8-m.base/nofp\libgcc.a(_clzsi2.o)
 .xc_stack_usage
                0x00000000       0x16 c:/program files/microchip/xc32/v4.21/bin/bin/../../lib/gcc/pic32c/8.3.1/thumb/v8-m.base/nofp\libgcc.a(_clzsi2.o)
 .text          0x00000000      0x25a c:/program files/microchip/xc32/v4.21/bin/bin/../../lib/gcc/pic32c/8.3.1/thumb/v8-m.base/nofp\libgcc.a(_divdi3.o)
 .data          0x00000000        0x0 c:/program files/microchip/xc32/v4.21/bin/bin/../../lib/gcc/pic32c/8.3.1/thumb/v8-m.base/nofp\libgcc.a(_divdi3.o)
 .bss           0x00000000        0x0 c:/program files/microchip/xc32/v4.21/bin/bin/../../lib/gcc/pic32c/8.3.1/thumb/v8-m.base/nofp\libgcc.a(_divdi3.o)
 .xc_stack_usage
                0x00000000       0x16 c:/program files/microchip/xc32/v4.21/bin/bin/../../lib/gcc/pic32c/8.3.1/thumb/v8-m.base/nofp\libgcc.a(_divdi3.o)
 .ARM.extab     0x00000000        0x0 c:/program files/microchip/xc32/v4.21/bin/bin/../../lib/gcc/pic32c/8.3.1/thumb/v8-m.base/nofp\libgcc.a(_divdi3.o)
 .ARM.exidx     0x00000000        0x8 c:/program files/microchip/xc32/v4.21/bin/bin/../../lib/gcc/pic32c/8.3.1/thumb/v8-m.base/nofp\libgcc.a(_divdi3.o)
 .xc_stack_usage.hdr
                0x00000000        0xe c:/program files/microchip/xc32/v4.21/bin/bin/../../lib/gcc/pic32c/8.3.1/thumb/v8-m.base/nofp\libgcc.a(_divdi3.o)
 .debug_info    0x00000000      0xa4b c:/program files/microchip/xc32/v4.21/bin/bin/../../lib/gcc/pic32c/8.3.1/thumb/v8-m.base/nofp\libgcc.a(_divdi3.o)
 .debug_abbrev  0x00000000      0x17d c:/program files/microchip/xc32/v4.21/bin/bin/../../lib/gcc/pic32c/8.3.1/thumb/v8-m.base/nofp\libgcc.a(_divdi3.o)
 .debug_loc     0x00000000      0xc29 c:/program files/microchip/xc32/v4.21/bin/bin/../../lib/gcc/pic32c/8.3.1/thumb/v8-m.base/nofp\libgcc.a(_divdi3.o)
 .debug_aranges
                0x00000000       0x20 c:/program files/microchip/xc32/v4.21/bin/bin/../../lib/gcc/pic32c/8.3.1/thumb/v8-m.base/nofp\libgcc.a(_divdi3.o)
 .debug_ranges  0x00000000       0xc8 c:/program files/microchip/xc32/v4.21/bin/bin/../../lib/gcc/pic32c/8.3.1/thumb/v8-m.base/nofp\libgcc.a(_divdi3.o)
 .debug_line    0x00000000      0x362 c:/program files/microchip/xc32/v4.21/bin/bin/../../lib/gcc/pic32c/8.3.1/thumb/v8-m.base/nofp\libgcc.a(_divdi3.o)
 .debug_str     0x00000000        0x0 c:/program files/microchip/xc32/v4.21/bin/bin/../../lib/gcc/pic32c/8.3.1/thumb/v8-m.base/nofp\libgcc.a(_divdi3.o)
 .comment       0x00000000       0x2c c:/program files/microchip/xc32/v4.21/bin/bin/../../lib/gcc/pic32c/8.3.1/thumb/v8-m.base/nofp\libgcc.a(_divdi3.o)
 .debug_frame   0x00000000       0x30 c:/program files/microchip/xc32/v4.21/bin/bin/../../lib/gcc/pic32c/8.3.1/thumb/v8-m.base/nofp\libgcc.a(_divdi3.o)
 .ARM.attributes
                0x00000000       0x30 c:/program files/microchip/xc32/v4.21/bin/bin/../../lib/gcc/pic32c/8.3.1/thumb/v8-m.base/nofp\libgcc.a(_divdi3.o)
 .text          0x00000000        0x0 c:/program files/microchip/xc32/v4.21/bin/bin/../../lib/gcc/pic32c/8.3.1/../../../../pic32c/lib/thumb/v8-m.base/nofp\libpic32c.a(close.o)
 .data          0x00000000        0x0 c:/program files/microchip/xc32/v4.21/bin/bin/../../lib/gcc/pic32c/8.3.1/../../../../pic32c/lib/thumb/v8-m.base/nofp\libpic32c.a(close.o)
 .bss           0x00000000        0x0 c:/program files/microchip/xc32/v4.21/bin/bin/../../lib/gcc/pic32c/8.3.1/../../../../pic32c/lib/thumb/v8-m.base/nofp\libpic32c.a(close.o)
 .xc_stack_usage
                0x00000000       0x13 c:/program files/microchip/xc32/v4.21/bin/bin/../../lib/gcc/pic32c/8.3.1/../../../../pic32c/lib/thumb/v8-m.base/nofp\libpic32c.a(close.o)
 .gnu.warning.closestub
                0x00000000        0x0 c:/program files/microchip/xc32/v4.21/bin/bin/../../lib/gcc/pic32c/8.3.1/../../../../pic32c/lib/thumb/v8-m.base/nofp\libpic32c.a(close.o)
 .xc_stack_usage.hdr
                0x00000000        0xe c:/program files/microchip/xc32/v4.21/bin/bin/../../lib/gcc/pic32c/8.3.1/../../../../pic32c/lib/thumb/v8-m.base/nofp\libpic32c.a(close.o)
 .text          0x00000000        0x0 c:/program files/microchip/xc32/v4.21/bin/bin/../../lib/gcc/pic32c/8.3.1/../../../../pic32c/lib/thumb/v8-m.base/nofp\libpic32c.a(lseek.o)
 .data          0x00000000        0x0 c:/program files/microchip/xc32/v4.21/bin/bin/../../lib/gcc/pic32c/8.3.1/../../../../pic32c/lib/thumb/v8-m.base/nofp\libpic32c.a(lseek.o)
 .bss           0x00000000        0x0 c:/program files/microchip/xc32/v4.21/bin/bin/../../lib/gcc/pic32c/8.3.1/../../../../pic32c/lib/thumb/v8-m.base/nofp\libpic32c.a(lseek.o)
 .xc_stack_usage
                0x00000000       0x13 c:/program files/microchip/xc32/v4.21/bin/bin/../../lib/gcc/pic32c/8.3.1/../../../../pic32c/lib/thumb/v8-m.base/nofp\libpic32c.a(lseek.o)
 .xc_stack_usage.hdr
                0x00000000        0xe c:/program files/microchip/xc32/v4.21/bin/bin/../../lib/gcc/pic32c/8.3.1/../../../../pic32c/lib/thumb/v8-m.base/nofp\libpic32c.a(lseek.o)
 .text          0x00000000        0x0 c:/program files/microchip/xc32/v4.21/bin/bin/../../lib/gcc/pic32c/8.3.1/../../../../pic32c/lib/thumb/v8-m.base/nofp\libpic32c.a(read.o)
 .data          0x00000000        0x0 c:/program files/microchip/xc32/v4.21/bin/bin/../../lib/gcc/pic32c/8.3.1/../../../../pic32c/lib/thumb/v8-m.base/nofp\libpic32c.a(read.o)
 .bss           0x00000000        0x0 c:/program files/microchip/xc32/v4.21/bin/bin/../../lib/gcc/pic32c/8.3.1/../../../../pic32c/lib/thumb/v8-m.base/nofp\libpic32c.a(read.o)
 .xc_stack_usage
                0x00000000       0x12 c:/program files/microchip/xc32/v4.21/bin/bin/../../lib/gcc/pic32c/8.3.1/../../../../pic32c/lib/thumb/v8-m.base/nofp\libpic32c.a(read.o)
 .xc_stack_usage.hdr
                0x00000000        0xe c:/program files/microchip/xc32/v4.21/bin/bin/../../lib/gcc/pic32c/8.3.1/../../../../pic32c/lib/thumb/v8-m.base/nofp\libpic32c.a(read.o)
 .text          0x00000000        0x0 c:/program files/microchip/xc32/v4.21/bin/bin/../../lib/gcc/pic32c/8.3.1/../../../../pic32c/lib/thumb/v8-m.base/nofp\libpic32c.a(sbrk.o)
 .data          0x00000000        0x0 c:/program files/microchip/xc32/v4.21/bin/bin/../../lib/gcc/pic32c/8.3.1/../../../../pic32c/lib/thumb/v8-m.base/nofp\libpic32c.a(sbrk.o)
 .xc_stack_usage
                0x00000000       0x13 c:/program files/microchip/xc32/v4.21/bin/bin/../../lib/gcc/pic32c/8.3.1/../../../../pic32c/lib/thumb/v8-m.base/nofp\libpic32c.a(sbrk.o)
 .xc_stack_usage.hdr
                0x00000000        0xe c:/program files/microchip/xc32/v4.21/bin/bin/../../lib/gcc/pic32c/8.3.1/../../../../pic32c/lib/thumb/v8-m.base/nofp\libpic32c.a(sbrk.o)
 .text          0x00000000        0x0 c:/program files/microchip/xc32/v4.21/bin/bin/../../lib/gcc/pic32c/8.3.1/../../../../pic32c/lib/thumb/v8-m.base/nofp\libpic32c.a(write.o)
 .data          0x00000000        0x0 c:/program files/microchip/xc32/v4.21/bin/bin/../../lib/gcc/pic32c/8.3.1/../../../../pic32c/lib/thumb/v8-m.base/nofp\libpic32c.a(write.o)
 .bss           0x00000000        0x0 c:/program files/microchip/xc32/v4.21/bin/bin/../../lib/gcc/pic32c/8.3.1/../../../../pic32c/lib/thumb/v8-m.base/nofp\libpic32c.a(write.o)
 .xc_stack_usage
                0x00000000       0x13 c:/program files/microchip/xc32/v4.21/bin/bin/../../lib/gcc/pic32c/8.3.1/../../../../pic32c/lib/thumb/v8-m.base/nofp\libpic32c.a(write.o)
 .xc_stack_usage.hdr
                0x00000000        0xe c:/program files/microchip/xc32/v4.21/bin/bin/../../lib/gcc/pic32c/8.3.1/../../../../pic32c/lib/thumb/v8-m.base/nofp\libpic32c.a(write.o)
 .text          0x00000000        0x0 c:/program files/microchip/xc32/v4.21/bin/bin/../../lib/gcc/pic32c/8.3.1/../../../../pic32c/lib/thumb/v8-m.base/nofp\libpic32c.a(_mon_getc.o)
 .data          0x00000000        0x0 c:/program files/microchip/xc32/v4.21/bin/bin/../../lib/gcc/pic32c/8.3.1/../../../../pic32c/lib/thumb/v8-m.base/nofp\libpic32c.a(_mon_getc.o)
 .bss           0x00000000        0x0 c:/program files/microchip/xc32/v4.21/bin/bin/../../lib/gcc/pic32c/8.3.1/../../../../pic32c/lib/thumb/v8-m.base/nofp\libpic32c.a(_mon_getc.o)
 .xc_stack_usage
                0x00000000       0x17 c:/program files/microchip/xc32/v4.21/bin/bin/../../lib/gcc/pic32c/8.3.1/../../../../pic32c/lib/thumb/v8-m.base/nofp\libpic32c.a(_mon_getc.o)
 .gnu.warning._mon_getc
                0x00000000        0x0 c:/program files/microchip/xc32/v4.21/bin/bin/../../lib/gcc/pic32c/8.3.1/../../../../pic32c/lib/thumb/v8-m.base/nofp\libpic32c.a(_mon_getc.o)
 .xc_stack_usage.hdr
                0x00000000        0xe c:/program files/microchip/xc32/v4.21/bin/bin/../../lib/gcc/pic32c/8.3.1/../../../../pic32c/lib/thumb/v8-m.base/nofp\libpic32c.a(_mon_getc.o)
 .text          0x00000000        0x0 c:/program files/microchip/xc32/v4.21/bin/bin/../../lib/gcc/pic32c/8.3.1/../../../../pic32c/lib/thumb/v8-m.base/nofp\libpic32c.a(_mon_putc.o)
 .data          0x00000000        0x0 c:/program files/microchip/xc32/v4.21/bin/bin/../../lib/gcc/pic32c/8.3.1/../../../../pic32c/lib/thumb/v8-m.base/nofp\libpic32c.a(_mon_putc.o)
 .bss           0x00000000        0x0 c:/program files/microchip/xc32/v4.21/bin/bin/../../lib/gcc/pic32c/8.3.1/../../../../pic32c/lib/thumb/v8-m.base/nofp\libpic32c.a(_mon_putc.o)
 .xc_stack_usage
                0x00000000       0x17 c:/program files/microchip/xc32/v4.21/bin/bin/../../lib/gcc/pic32c/8.3.1/../../../../pic32c/lib/thumb/v8-m.base/nofp\libpic32c.a(_mon_putc.o)
 .gnu.warning._mon_putc
                0x00000000        0x0 c:/program files/microchip/xc32/v4.21/bin/bin/../../lib/gcc/pic32c/8.3.1/../../../../pic32c/lib/thumb/v8-m.base/nofp\libpic32c.a(_mon_putc.o)
 .xc_stack_usage.hdr
                0x00000000        0xe c:/program files/microchip/xc32/v4.21/bin/bin/../../lib/gcc/pic32c/8.3.1/../../../../pic32c/lib/thumb/v8-m.base/nofp\libpic32c.a(_mon_putc.o)
 .text          0x00000000        0x0 c:/program files/microchip/xc32/v4.21/bin/bin/../../lib/gcc/pic32c/8.3.1/thumb/v8-m.base/nofp/crtend.o
 .data          0x00000000        0x0 c:/program files/microchip/xc32/v4.21/bin/bin/../../lib/gcc/pic32c/8.3.1/thumb/v8-m.base/nofp/crtend.o
 .bss           0x00000000        0x0 c:/program files/microchip/xc32/v4.21/bin/bin/../../lib/gcc/pic32c/8.3.1/thumb/v8-m.base/nofp/crtend.o
 .eh_frame      0x00000000        0x4 c:/program files/microchip/xc32/v4.21/bin/bin/../../lib/gcc/pic32c/8.3.1/thumb/v8-m.base/nofp/crtend.o
 .xc_stack_usage.hdr
                0x00000000        0xe c:/program files/microchip/xc32/v4.21/bin/bin/../../lib/gcc/pic32c/8.3.1/thumb/v8-m.base/nofp/crtend.o
 .comment       0x00000000       0x2c c:/program files/microchip/xc32/v4.21/bin/bin/../../lib/gcc/pic32c/8.3.1/thumb/v8-m.base/nofp/crtend.o
 .ARM.attributes
                0x00000000       0x30 c:/program files/microchip/xc32/v4.21/bin/bin/../../lib/gcc/pic32c/8.3.1/thumb/v8-m.base/nofp/crtend.o
 .text          0x00000000        0x0 c:/program files/microchip/xc32/v4.21/bin/bin/../../lib/gcc/pic32c/8.3.1/thumb/v8-m.base/nofp/crtn.o
 .data          0x00000000        0x0 c:/program files/microchip/xc32/v4.21/bin/bin/../../lib/gcc/pic32c/8.3.1/thumb/v8-m.base/nofp/crtn.o
 .bss           0x00000000        0x0 c:/program files/microchip/xc32/v4.21/bin/bin/../../lib/gcc/pic32c/8.3.1/thumb/v8-m.base/nofp/crtn.o
 .xc_stack_usage.hdr
                0x00000000        0xe c:/program files/microchip/xc32/v4.21/bin/bin/../../lib/gcc/pic32c/8.3.1/thumb/v8-m.base/nofp/crtn.o

Memory Configuration

Name             Origin             Length             Attributes
rom              0x00040000         0x00040000         xrl
ram              0x20008000         0x00008000         xw !r
config_00804000  0x00804000         0x00000004
config_00804004  0x00804004         0x00000004
config_00804008  0x00804008         0x00000004
config_0080400C  0x0080400c         0x00000004
config_00804010  0x00804010         0x00000004
config_00804014  0x00804014         0x00000004
config_00804018  0x00804018         0x00000004
config_0080401C  0x0080401c         0x00000004
config_00804020  0x00804020         0x00000004
*default*        0x00000000         0xffffffff

Linker script and memory map

LOAD c:/program files/microchip/xc32/v4.21/bin/bin/../../lib/gcc/pic32c/8.3.1/thumb/v8-m.base/nofp/crti.o
LOAD c:/program files/microchip/xc32/v4.21/bin/bin/../../lib/gcc/pic32c/8.3.1/thumb/v8-m.base/nofp/crtbegin.o
LOAD build/Sercom/production/_ext/2090800303/crypto.o
LOAD build/Sercom/production/_ext/302508358/plib_nvic.o
LOAD build/Sercom/production/_ext/302455207/plib_port.o
LOAD build/Sercom/production/_ext/1582435769/plib_tc0.o
LOAD build/Sercom/production/_ext/1582435769/plib_tc2.o
LOAD build/Sercom/production/_ext/302333297/plib_trng.o
LOAD build/Sercom/production/_ext/10618399/sys_int.o
LOAD build/Sercom/production/_ext/2025105575/sys_time.o
LOAD build/Sercom/production/_ext/1491116340/exceptions.o
LOAD build/Sercom/production/_ext/1491116340/libc_syscalls.o
LOAD build/Sercom/production/_ext/1491116340/initialization.o
LOAD build/Sercom/production/_ext/1491116340/startup_xc32.o
LOAD build/Sercom/production/_ext/1491116340/interrupts.o
LOAD build/Sercom/production/_ext/1491116340/tasks.o
LOAD build/Sercom/production/_ext/172253694/crypt_sha256_sam6156.o
LOAD build/Sercom/production/_ext/172253694/crypt_sha1_sam6156.o
LOAD build/Sercom/production/_ext/172253694/crypt_sha1_sam11105.o
LOAD build/Sercom/production/_ext/172253694/crypt_rng_u2242.o
LOAD build/Sercom/production/_ext/172253694/crypt_sha512_sam6156.o
LOAD build/Sercom/production/_ext/172253694/crypt_rng_sam6334.o
LOAD build/Sercom/production/_ext/172253694/crypt_sha256_sam11105.o
LOAD build/Sercom/production/_ext/172253694/crypt_sha224_sam11105.o
LOAD build/Sercom/production/_ext/172253694/pic32mz-crypt.o
LOAD build/Sercom/production/_ext/172253694/crypt_sha384_sam6156.o
LOAD build/Sercom/production/_ext/172253694/crypt_ecc_pukcl.o
LOAD build/Sercom/production/_ext/172253694/crypt_aes_sam6149.o
LOAD build/Sercom/production/_ext/172253694/crypt_wolfcryptcb.o
LOAD build/Sercom/production/_ext/172253694/crypt_pukcl_functions.o
LOAD build/Sercom/production/_ext/172253694/crypt_aes_u2238.o
LOAD build/Sercom/production/_ext/172253694/crypt_tdes_sam6150.o
LOAD build/Sercom/production/_ext/172253694/crypt_sha224_sam6156.o
LOAD build/Sercom/production/_ext/172253694/crypt_ecc_ba414e.o
LOAD build/Sercom/production/_ext/172253694/crypt_sam_u2803.o
LOAD build/Sercom/production/_ext/172253694/crypt_rsa_pukcl.o
LOAD build/Sercom/production/_ext/1664057780/sp_cortexm.o
LOAD build/Sercom/production/_ext/1664057780/fe_operations.o
LOAD build/Sercom/production/_ext/1664057780/sp_c64.o
LOAD build/Sercom/production/_ext/1664057780/ecc.o
LOAD build/Sercom/production/_ext/1664057780/sp_dsp32.o
LOAD build/Sercom/production/_ext/1664057780/cmac.o
LOAD build/Sercom/production/_ext/1664057780/wc_encrypt.o
LOAD build/Sercom/production/_ext/1664057780/wc_pkcs11.o
LOAD build/Sercom/production/_ext/1664057780/random.o
LOAD build/Sercom/production/_ext/1664057780/camellia.o
LOAD build/Sercom/production/_ext/1664057780/pkcs7.o
LOAD build/Sercom/production/_ext/1664057780/ecc_fp.o
LOAD build/Sercom/production/_ext/1664057780/ed448.o
LOAD build/Sercom/production/_ext/1664057780/siphash.o
LOAD build/Sercom/production/_ext/1664057780/hmac.o
LOAD build/Sercom/production/_ext/1664057780/misc.o
LOAD build/Sercom/production/_ext/1664057780/poly1305.o
LOAD build/Sercom/production/_ext/1664057780/cpuid.o
LOAD build/Sercom/production/_ext/1664057780/chacha.o
LOAD build/Sercom/production/_ext/1664057780/error.o
LOAD build/Sercom/production/_ext/1664057780/cryptocb.o
LOAD build/Sercom/production/_ext/1664057780/asm.o
LOAD build/Sercom/production/_ext/1664057780/ripemd.o
LOAD build/Sercom/production/_ext/1664057780/logging.o
LOAD build/Sercom/production/_ext/1664057780/chacha20_poly1305.o
LOAD build/Sercom/production/_ext/1664057780/fe_448.o
LOAD build/Sercom/production/_ext/1664057780/sp_arm32.o
LOAD build/Sercom/production/_ext/1664057780/wolfmath.o
LOAD build/Sercom/production/_ext/1664057780/arc4.o
LOAD build/Sercom/production/_ext/1664057780/blake2s.o
LOAD build/Sercom/production/_ext/1664057780/falcon.o
LOAD build/Sercom/production/_ext/1664057780/ed25519.o
LOAD build/Sercom/production/_ext/1664057780/asn.o
LOAD build/Sercom/production/_ext/1664057780/kdf.o
LOAD build/Sercom/production/_ext/1664057780/rsa.o
LOAD build/Sercom/production/_ext/1664057780/sp_c32.o
LOAD build/Sercom/production/_ext/1664057780/dsa.o
LOAD build/Sercom/production/_ext/1664057780/md2.o
LOAD build/Sercom/production/_ext/1664057780/integer.o
LOAD build/Sercom/production/_ext/1664057780/sp_armthumb.o
LOAD build/Sercom/production/_ext/1664057780/wc_port.o
LOAD build/Sercom/production/_ext/1664057780/sha3.o
LOAD build/Sercom/production/_ext/1664057780/sha512.o
LOAD build/Sercom/production/_ext/1664057780/curve25519.o
LOAD build/Sercom/production/_ext/1664057780/aes.o
LOAD build/Sercom/production/_ext/1664057780/sha256.o
LOAD build/Sercom/production/_ext/1664057780/coding.o
LOAD build/Sercom/production/_ext/1664057780/compress.o
LOAD build/Sercom/production/_ext/1664057780/wolfevent.o
LOAD build/Sercom/production/_ext/1664057780/md5.o
LOAD build/Sercom/production/_ext/1664057780/blake2b.o
LOAD build/Sercom/production/_ext/1664057780/md4.o
LOAD build/Sercom/production/_ext/1664057780/dh.o
LOAD build/Sercom/production/_ext/1664057780/ge_low_mem.o
LOAD build/Sercom/production/_ext/1664057780/pkcs12.o
LOAD build/Sercom/production/_ext/1664057780/rc2.o
LOAD build/Sercom/production/_ext/1664057780/fe_low_mem.o
LOAD build/Sercom/production/_ext/1664057780/sakke.o
LOAD build/Sercom/production/_ext/1664057780/memory.o
LOAD build/Sercom/production/_ext/1664057780/sha.o
LOAD build/Sercom/production/_ext/1664057780/wc_dsp.o
LOAD build/Sercom/production/_ext/1664057780/srp.o
LOAD build/Sercom/production/_ext/1664057780/des3.o
LOAD build/Sercom/production/_ext/1664057780/curve448.o
LOAD build/Sercom/production/_ext/1664057780/signature.o
LOAD build/Sercom/production/_ext/1664057780/hash.o
LOAD build/Sercom/production/_ext/1664057780/sp_x86_64.o
LOAD build/Sercom/production/_ext/1664057780/tfm.o
LOAD build/Sercom/production/_ext/1664057780/evp.o
LOAD build/Sercom/production/_ext/1664057780/sp_arm64.o
LOAD build/Sercom/production/_ext/1664057780/ge_448.o
LOAD build/Sercom/production/_ext/1664057780/pwdbased.o
LOAD build/Sercom/production/_ext/1664057780/sp_int.o
LOAD build/Sercom/production/_ext/1664057780/ge_operations.o
LOAD build/Sercom/production/_ext/1664057780/eccsi.o
LOAD build/Sercom/production/_ext/1360937237/main.o
LOAD build/Sercom/production/_ext/1360937237/app.o
                0x00000001                __MPLAB_BUILD = 0x1
                0x00080000                __rom_end = (ORIGIN (rom) + LENGTH (rom))
                0x20010000                __ram_end = (ORIGIN (ram) + LENGTH (ram))

.config_00804000
 *(.config_00804000)

.config_00804004
 *(.config_00804004)

.config_00804008
 *(.config_00804008)

.config_0080400C
 *(.config_0080400C)

.config_00804010
 *(.config_00804010)

.config_00804014
 *(.config_00804014)

.config_00804018
 *(.config_00804018)

.config_0080401C
 *(.config_0080401C)

.config_00804020
 *(.config_00804020)

.vectors        0x00040000      0x15c
                0x00040000                . = ALIGN (0x4)
                0x00040000                _sfixed = .
 *(.vectors .vectors.* .vectors_default .vectors_default.*)
 .vectors.exception_table
                0x00040000      0x15c build/Sercom/production/_ext/1491116340/interrupts.o
                0x00040000                exception_table
 *(.isr_vector)
 *(.reset*)
 *(.after_vectors)

.text           0x0004015c       0x20
                0x0004015c                . = ALIGN (0x4)
 *(.glue_7t)
 .glue_7t       0x0004015c        0x0 linker stubs
 *(.glue_7)
 .glue_7        0x0004015c        0x0 linker stubs
 *veneer.o(.text.*)
 *nonsecure_entry.o(.text.*)
 *(.gnu.linkonce.r.*)
 *(.ARM.extab* .gnu.linkonce.armextab.*)
                0x0004015c                . = ALIGN (0x4)
 *(.init)
 .init          0x0004015c        0x4 c:/program files/microchip/xc32/v4.21/bin/bin/../../lib/gcc/pic32c/8.3.1/thumb/v8-m.base/nofp/crti.o
                0x0004015c                _init
 .init          0x00040160        0x8 c:/program files/microchip/xc32/v4.21/bin/bin/../../lib/gcc/pic32c/8.3.1/thumb/v8-m.base/nofp/crtn.o
                0x00040168                . = ALIGN (0x4)
                0x00040168                __preinit_array_start = .
 *(.preinit_array)
                0x00040168                __preinit_array_end = .
                0x00040168                . = ALIGN (0x4)
                0x00040168                __init_array_start = .
 *(SORT_BY_NAME(.init_array.*))
 *(.init_array)
 .init_array    0x00040168        0x4 c:/program files/microchip/xc32/v4.21/bin/bin/../../lib/gcc/pic32c/8.3.1/thumb/v8-m.base/nofp/crtbegin.o
                0x0004016c                __init_array_end = .
                0x0004016c                . = ALIGN (0x4)
 *crtbegin.o(.ctors)
 *(EXCLUDE_FILE(*crtend.o) .ctors)
 *(SORT_BY_NAME(.ctors.*))
 *crtend.o(.ctors)
                0x0004016c                . = ALIGN (0x4)
 *(.fini)
 .fini          0x0004016c        0x4 c:/program files/microchip/xc32/v4.21/bin/bin/../../lib/gcc/pic32c/8.3.1/thumb/v8-m.base/nofp/crti.o
                0x0004016c                _fini
 .fini          0x00040170        0x8 c:/program files/microchip/xc32/v4.21/bin/bin/../../lib/gcc/pic32c/8.3.1/thumb/v8-m.base/nofp/crtn.o
                0x00040178                . = ALIGN (0x4)
                0x00040178                __fini_array_start = .
 *(.fini_array)
 .fini_array    0x00040178        0x4 c:/program files/microchip/xc32/v4.21/bin/bin/../../lib/gcc/pic32c/8.3.1/thumb/v8-m.base/nofp/crtbegin.o
 *(SORT_BY_NAME(.fini_array.*))
                0x0004017c                __fini_array_end = .
 *crtbegin.o(.dtors)
 *(EXCLUDE_FILE(*crtend.o) .dtors)
 *(SORT_BY_NAME(.dtors.*))
 *crtend.o(.dtors)
                0x0004017c                . = ALIGN (0x4)
                0x0004017c                _efixed = .
                [!provide]                PROVIDE (__exidx_start = .)

.ARM.exidx      0x0004017c        0x8
 *(.ARM.exidx* .gnu.linkonce.armexidx.*)
 .ARM.exidx     0x0004017c        0x8 c:/program files/microchip/xc32/v4.21/bin/bin/../../lib/gcc/pic32c/8.3.1/thumb/v8-m.base/nofp\libgcc.a(_udivmoddi4.o)
                [!provide]                PROVIDE (__exidx_end = .)
                0x00040184                . = ALIGN (0x4)
                0x00040184                _etext = .

.bss            0x20008000        0x0
                0x20008000                . = ALIGN (0x4)
                0x20008000                __bss_start__ = .
                0x20008000                _sbss = .
                0x20008000                _szero = .
 *(COMMON)
                0x20008000                . = ALIGN (0x4)
                0x20008000                __bss_end__ = .
                0x20008000                _ebss = .
                0x20008000                _ezero = .
                0x20008000                . = ALIGN (0x4)
                0x20008000                _end = .
                0x2000ffff                _ram_end_ = ((ORIGIN (ram) + LENGTH (ram)) - 0x1)
                0x00000200                _min_heap_size = 0x200
LOAD ./Sercom_Secure_sg_veneer.lib
START GROUP
LOAD c:/program files/microchip/xc32/v4.21/bin/bin/../../lib/gcc/pic32c/8.3.1/../../../../pic32c/lib/thumb/v8-m.base/nofp\libpic32c.a
LOAD c:/program files/microchip/xc32/v4.21/bin/bin/../../lib/gcc/pic32c/8.3.1/../../../../pic32c/lib/thumb/v8-m.base/nofp\libm-emfloat.a
LOAD c:/program files/microchip/xc32/v4.21/bin/bin/../../lib/gcc/pic32c/8.3.1/../../../../pic32c/lib/thumb/v8-m.base/nofp\libc-musl.a
LOAD c:/program files/microchip/xc32/v4.21/bin/bin/../../lib/gcc/pic32c/8.3.1/../../../../pic32c/lib/thumb/v8-m.base/nofp\libm-emfloat.a
LOAD c:/program files/microchip/xc32/v4.21/bin/bin/../../lib/gcc/pic32c/8.3.1/thumb/v8-m.base/nofp\libgcc.a
END GROUP
LOAD c:/program files/microchip/xc32/v4.21/bin/bin/../../lib/gcc/pic32c/8.3.1/thumb/v8-m.base/nofp/crtend.o
LOAD c:/program files/microchip/xc32/v4.21/bin/bin/../../lib/gcc/pic32c/8.3.1/thumb/v8-m.base/nofp/crtn.o
OUTPUT(dist/Sercom/production/Sercom_NonSecure.X.production.elf elf32-littlearm)
LOAD stack
LOAD data_init

.ARM.attributes
                0x00000000       0x30
 .ARM.attributes
                0x00000000       0x22 c:/program files/microchip/xc32/v4.21/bin/bin/../../lib/gcc/pic32c/8.3.1/thumb/v8-m.base/nofp/crti.o
 .ARM.attributes
                0x00000022       0x30 c:/program files/microchip/xc32/v4.21/bin/bin/../../lib/gcc/pic32c/8.3.1/thumb/v8-m.base/nofp/crtbegin.o
 .ARM.attributes
                0x00000052       0x30 build/Sercom/production/_ext/302508358/plib_nvic.o
 .ARM.attributes
                0x00000082       0x30 build/Sercom/production/_ext/1582435769/plib_tc0.o
 .ARM.attributes
                0x000000b2       0x30 build/Sercom/production/_ext/1582435769/plib_tc2.o
 .ARM.attributes
                0x000000e2       0x30 build/Sercom/production/_ext/302333297/plib_trng.o
 .ARM.attributes
                0x00000112       0x30 build/Sercom/production/_ext/10618399/sys_int.o
 .ARM.attributes
                0x00000142       0x30 build/Sercom/production/_ext/2025105575/sys_time.o
 .ARM.attributes
                0x00000172       0x30 build/Sercom/production/_ext/1491116340/exceptions.o
 .ARM.attributes
                0x000001a2       0x30 build/Sercom/production/_ext/1491116340/initialization.o
 .ARM.attributes
                0x000001d2       0x30 build/Sercom/production/_ext/1491116340/startup_xc32.o
 .ARM.attributes
                0x00000202       0x30 build/Sercom/production/_ext/1491116340/interrupts.o
 .ARM.attributes
                0x00000232       0x30 build/Sercom/production/_ext/1491116340/tasks.o
 .ARM.attributes
                0x00000262       0x30 build/Sercom/production/_ext/172253694/crypt_wolfcryptcb.o
 .ARM.attributes
                0x00000292       0x30 build/Sercom/production/_ext/1664057780/cryptocb.o
 .ARM.attributes
                0x000002c2       0x30 build/Sercom/production/_ext/1360937237/main.o
 .ARM.attributes
                0x000002f2       0x30 build/Sercom/production/_ext/1360937237/app.o
 .ARM.attributes
                0x00000322       0x30 c:/program files/microchip/xc32/v4.21/bin/bin/../../lib/gcc/pic32c/8.3.1/../../../../pic32c/lib/thumb/v8-m.base/nofp\libpic32c.a(data_init_wrapper.o)
 .ARM.attributes
                0x00000352       0x30 c:/program files/microchip/xc32/v4.21/bin/bin/../../lib/gcc/pic32c/8.3.1/../../../../pic32c/lib/thumb/v8-m.base/nofp\libpic32c.a(data_init_0_1.o)
 .ARM.attributes
                0x00000382       0x32 c:/program files/microchip/xc32/v4.21/bin/bin/../../lib/gcc/pic32c/8.3.1/../../../../pic32c/lib/thumb/v8-m.base/nofp\libc-musl.a(tolower.o)
 .ARM.attributes
                0x000003b4       0x32 c:/program files/microchip/xc32/v4.21/bin/bin/../../lib/gcc/pic32c/8.3.1/../../../../pic32c/lib/thumb/v8-m.base/nofp\libc-musl.a(toupper.o)
 .ARM.attributes
                0x000003e6       0x32 c:/program files/microchip/xc32/v4.21/bin/bin/../../lib/gcc/pic32c/8.3.1/../../../../pic32c/lib/thumb/v8-m.base/nofp\libc-musl.a(__libc_start_main.o)
 .ARM.attributes
                0x00000418       0x32 c:/program files/microchip/xc32/v4.21/bin/bin/../../lib/gcc/pic32c/8.3.1/../../../../pic32c/lib/thumb/v8-m.base/nofp\libc-musl.a(libc.o)
 .ARM.attributes
                0x0000044a       0x32 c:/program files/microchip/xc32/v4.21/bin/bin/../../lib/gcc/pic32c/8.3.1/../../../../pic32c/lib/thumb/v8-m.base/nofp\libc-musl.a(malloc.o)
 .ARM.attributes
                0x0000047c       0x32 c:/program files/microchip/xc32/v4.21/bin/bin/../../lib/gcc/pic32c/8.3.1/../../../../pic32c/lib/thumb/v8-m.base/nofp\libc-musl.a(expand_heap.o)
 .ARM.attributes
                0x000004ae       0x32 c:/program files/microchip/xc32/v4.21/bin/bin/../../lib/gcc/pic32c/8.3.1/../../../../pic32c/lib/thumb/v8-m.base/nofp\libc-musl.a(__sio_sprintf_doux.o)
 .ARM.attributes
                0x000004e0       0x32 c:/program files/microchip/xc32/v4.21/bin/bin/../../lib/gcc/pic32c/8.3.1/../../../../pic32c/lib/thumb/v8-m.base/nofp\libc-musl.a(__fmt_d.o)
 .ARM.attributes
                0x00000512       0x32 c:/program files/microchip/xc32/v4.21/bin/bin/../../lib/gcc/pic32c/8.3.1/../../../../pic32c/lib/thumb/v8-m.base/nofp\libc-musl.a(__fmt_o.o)
 .ARM.attributes
                0x00000544       0x32 c:/program files/microchip/xc32/v4.21/bin/bin/../../lib/gcc/pic32c/8.3.1/../../../../pic32c/lib/thumb/v8-m.base/nofp\libc-musl.a(__fmt_s.o)
 .ARM.attributes
                0x00000576       0x32 c:/program files/microchip/xc32/v4.21/bin/bin/../../lib/gcc/pic32c/8.3.1/../../../../pic32c/lib/thumb/v8-m.base/nofp\libc-musl.a(__fmt_u.o)
 .ARM.attributes
                0x000005a8       0x32 c:/program files/microchip/xc32/v4.21/bin/bin/../../lib/gcc/pic32c/8.3.1/../../../../pic32c/lib/thumb/v8-m.base/nofp\libc-musl.a(__fmt_x.o)
 .ARM.attributes
                0x000005da       0x32 c:/program files/microchip/xc32/v4.21/bin/bin/../../lib/gcc/pic32c/8.3.1/../../../../pic32c/lib/thumb/v8-m.base/nofp\libc-musl.a(__pop_int.o)
 .ARM.attributes
                0x0000060c       0x32 c:/program files/microchip/xc32/v4.21/bin/bin/../../lib/gcc/pic32c/8.3.1/../../../../pic32c/lib/thumb/v8-m.base/nofp\libc-musl.a(__pop_ptr.o)
 .ARM.attributes
                0x0000063e       0x32 c:/program files/microchip/xc32/v4.21/bin/bin/../../lib/gcc/pic32c/8.3.1/../../../../pic32c/lib/thumb/v8-m.base/nofp\libc-musl.a(__printf_core.o)
 .ARM.attributes
                0x00000670       0x32 c:/program files/microchip/xc32/v4.21/bin/bin/../../lib/gcc/pic32c/8.3.1/../../../../pic32c/lib/thumb/v8-m.base/nofp\libc-musl.a(stdin.o)
 .ARM.attributes
                0x000006a2       0x32 c:/program files/microchip/xc32/v4.21/bin/bin/../../lib/gcc/pic32c/8.3.1/../../../../pic32c/lib/thumb/v8-m.base/nofp\libc-musl.a(stdout.o)
 .ARM.attributes
                0x000006d4       0x32 c:/program files/microchip/xc32/v4.21/bin/bin/../../lib/gcc/pic32c/8.3.1/../../../../pic32c/lib/thumb/v8-m.base/nofp\libc-musl.a(setbuf.o)
 .ARM.attributes
                0x00000706       0x32 c:/program files/microchip/xc32/v4.21/bin/bin/../../lib/gcc/pic32c/8.3.1/../../../../pic32c/lib/thumb/v8-m.base/nofp\libc-musl.a(atoi.o)
 .ARM.attributes
                0x00000738       0x32 c:/program files/microchip/xc32/v4.21/bin/bin/../../lib/gcc/pic32c/8.3.1/../../../../pic32c/lib/thumb/v8-m.base/nofp\libc-musl.a(memcpy.o)
 .ARM.attributes
                0x0000076a       0x32 c:/program files/microchip/xc32/v4.21/bin/bin/../../lib/gcc/pic32c/8.3.1/../../../../pic32c/lib/thumb/v8-m.base/nofp\libc-musl.a(memset.o)
 .ARM.attributes
                0x0000079c       0x32 c:/program files/microchip/xc32/v4.21/bin/bin/../../lib/gcc/pic32c/8.3.1/../../../../pic32c/lib/thumb/v8-m.base/nofp\libc-musl.a(strlen.o)
 .ARM.attributes
                0x000007ce       0x32 c:/program files/microchip/xc32/v4.21/bin/bin/../../lib/gcc/pic32c/8.3.1/../../../../pic32c/lib/thumb/v8-m.base/nofp\libc-musl.a(__environ.o)
 .ARM.attributes
                0x00000800       0x32 c:/program files/microchip/xc32/v4.21/bin/bin/../../lib/gcc/pic32c/8.3.1/../../../../pic32c/lib/thumb/v8-m.base/nofp\libc-musl.a(__errno_location.o)
 .ARM.attributes
                0x00000832       0x32 c:/program files/microchip/xc32/v4.21/bin/bin/../../lib/gcc/pic32c/8.3.1/../../../../pic32c/lib/thumb/v8-m.base/nofp\libc-musl.a(__int_vsprintf.o)
 .ARM.attributes
                0x00000864       0x32 c:/program files/microchip/xc32/v4.21/bin/bin/../../lib/gcc/pic32c/8.3.1/../../../../pic32c/lib/thumb/v8-m.base/nofp\libc-musl.a(__pop_float.o)
 .ARM.attributes
                0x00000896       0x32 c:/program files/microchip/xc32/v4.21/bin/bin/../../lib/gcc/pic32c/8.3.1/../../../../pic32c/lib/thumb/v8-m.base/nofp\libc-musl.a(__stdio_read.o)
 .ARM.attributes
                0x000008c8       0x32 c:/program files/microchip/xc32/v4.21/bin/bin/../../lib/gcc/pic32c/8.3.1/../../../../pic32c/lib/thumb/v8-m.base/nofp\libc-musl.a(__towrite_rw.o)
 .ARM.attributes
                0x000008fa       0x32 c:/program files/microchip/xc32/v4.21/bin/bin/../../lib/gcc/pic32c/8.3.1/../../../../pic32c/lib/thumb/v8-m.base/nofp\libc-musl.a(setvbuf.o)
 .ARM.attributes
                0x0000092c       0x32 c:/program files/microchip/xc32/v4.21/bin/bin/../../lib/gcc/pic32c/8.3.1/../../../../pic32c/lib/thumb/v8-m.base/nofp\libc-musl.a(readv.o)
 .ARM.attributes
                0x0000095e       0x32 c:/program files/microchip/xc32/v4.21/bin/bin/../../lib/gcc/pic32c/8.3.1/../../../../pic32c/lib/thumb/v8-m.base/nofp\libc-musl.a(__int_vsnprintf.o)
 .ARM.attributes
                0x00000990       0x32 c:/program files/microchip/xc32/v4.21/bin/bin/../../lib/gcc/pic32c/8.3.1/../../../../pic32c/lib/thumb/v8-m.base/nofp\libc-musl.a(__init_stdio.o)
 .ARM.attributes
                0x000009c2       0x32 c:/program files/microchip/xc32/v4.21/bin/bin/../../lib/gcc/pic32c/8.3.1/../../../../pic32c/lib/thumb/v8-m.base/nofp\libc-musl.a(__out.o)
 .ARM.attributes
                0x000009f4       0x32 c:/program files/microchip/xc32/v4.21/bin/bin/../../lib/gcc/pic32c/8.3.1/../../../../pic32c/lib/thumb/v8-m.base/nofp\libc-musl.a(__stderr.o)
 .ARM.attributes
                0x00000a26       0x32 c:/program files/microchip/xc32/v4.21/bin/bin/../../lib/gcc/pic32c/8.3.1/../../../../pic32c/lib/thumb/v8-m.base/nofp\libc-musl.a(__stdio_close.o)
 .ARM.attributes
                0x00000a58       0x32 c:/program files/microchip/xc32/v4.21/bin/bin/../../lib/gcc/pic32c/8.3.1/../../../../pic32c/lib/thumb/v8-m.base/nofp\libc-musl.a(__stdio_write.o)
 .ARM.attributes
                0x00000a8a       0x32 c:/program files/microchip/xc32/v4.21/bin/bin/../../lib/gcc/pic32c/8.3.1/../../../../pic32c/lib/thumb/v8-m.base/nofp\libc-musl.a(__stdout.o)
 .ARM.attributes
                0x00000abc       0x32 c:/program files/microchip/xc32/v4.21/bin/bin/../../lib/gcc/pic32c/8.3.1/../../../../pic32c/lib/thumb/v8-m.base/nofp\libc-musl.a(__towrite.o)
 .ARM.attributes
                0x00000aee       0x32 c:/program files/microchip/xc32/v4.21/bin/bin/../../lib/gcc/pic32c/8.3.1/../../../../pic32c/lib/thumb/v8-m.base/nofp\libc-musl.a(writev.o)
 .ARM.attributes
                0x00000b20       0x32 c:/program files/microchip/xc32/v4.21/bin/bin/../../lib/gcc/pic32c/8.3.1/../../../../pic32c/lib/thumb/v8-m.base/nofp\libc-musl.a(__int_vfprintf.o)
 .ARM.attributes
                0x00000b52       0x32 c:/program files/microchip/xc32/v4.21/bin/bin/../../lib/gcc/pic32c/8.3.1/../../../../pic32c/lib/thumb/v8-m.base/nofp\libc-musl.a(__fwrite.o)
 .ARM.attributes
                0x00000b84       0x22 c:/program files/microchip/xc32/v4.21/bin/bin/../../lib/gcc/pic32c/8.3.1/thumb/v8-m.base/nofp\libgcc.a(_lshrdi3.o)
 .ARM.attributes
                0x00000ba6       0x22 c:/program files/microchip/xc32/v4.21/bin/bin/../../lib/gcc/pic32c/8.3.1/thumb/v8-m.base/nofp\libgcc.a(_ashldi3.o)
 .ARM.attributes
                0x00000bc8       0x22 c:/program files/microchip/xc32/v4.21/bin/bin/../../lib/gcc/pic32c/8.3.1/thumb/v8-m.base/nofp\libgcc.a(_aeabi_uldivmod.o)
 .ARM.attributes
                0x00000bea       0x30 c:/program files/microchip/xc32/v4.21/bin/bin/../../lib/gcc/pic32c/8.3.1/thumb/v8-m.base/nofp\libgcc.a(_muldi3.o)
 .ARM.attributes
                0x00000c1a       0x30 c:/program files/microchip/xc32/v4.21/bin/bin/../../lib/gcc/pic32c/8.3.1/thumb/v8-m.base/nofp\libgcc.a(_udivmoddi4.o)
 .ARM.attributes
                0x00000c4a       0x22 c:/program files/microchip/xc32/v4.21/bin/bin/../../lib/gcc/pic32c/8.3.1/thumb/v8-m.base/nofp\libgcc.a(_dvmd_tls.o)
 .ARM.attributes
                0x00000c6c       0x22 c:/program files/microchip/xc32/v4.21/bin/bin/../../lib/gcc/pic32c/8.3.1/thumb/v8-m.base/nofp\libgcc.a(_clzsi2.o)
 .ARM.attributes
                0x00000c8e       0x30 c:/program files/microchip/xc32/v4.21/bin/bin/../../lib/gcc/pic32c/8.3.1/../../../../pic32c/lib/thumb/v8-m.base/nofp\libpic32c.a(close.o)
 .ARM.attributes
                0x00000cbe       0x30 c:/program files/microchip/xc32/v4.21/bin/bin/../../lib/gcc/pic32c/8.3.1/../../../../pic32c/lib/thumb/v8-m.base/nofp\libpic32c.a(lseek.o)
 .ARM.attributes
                0x00000cee       0x30 c:/program files/microchip/xc32/v4.21/bin/bin/../../lib/gcc/pic32c/8.3.1/../../../../pic32c/lib/thumb/v8-m.base/nofp\libpic32c.a(read.o)
 .ARM.attributes
                0x00000d1e       0x30 c:/program files/microchip/xc32/v4.21/bin/bin/../../lib/gcc/pic32c/8.3.1/../../../../pic32c/lib/thumb/v8-m.base/nofp\libpic32c.a(sbrk.o)
 .ARM.attributes
                0x00000d4e       0x30 c:/program files/microchip/xc32/v4.21/bin/bin/../../lib/gcc/pic32c/8.3.1/../../../../pic32c/lib/thumb/v8-m.base/nofp\libpic32c.a(write.o)
 .ARM.attributes
                0x00000d7e       0x30 c:/program files/microchip/xc32/v4.21/bin/bin/../../lib/gcc/pic32c/8.3.1/../../../../pic32c/lib/thumb/v8-m.base/nofp\libpic32c.a(_mon_getc.o)
 .ARM.attributes
                0x00000dae       0x30 c:/program files/microchip/xc32/v4.21/bin/bin/../../lib/gcc/pic32c/8.3.1/../../../../pic32c/lib/thumb/v8-m.base/nofp\libpic32c.a(_mon_putc.o)
 .ARM.attributes
                0x00000dde       0x22 c:/program files/microchip/xc32/v4.21/bin/bin/../../lib/gcc/pic32c/8.3.1/thumb/v8-m.base/nofp/crtn.o

.comment        0x00000000       0x2b
 .comment       0x00000000       0x2b c:/program files/microchip/xc32/v4.21/bin/bin/../../lib/gcc/pic32c/8.3.1/thumb/v8-m.base/nofp/crtbegin.o
                                 0x2c (size before relaxing)
 .comment       0x0000002b       0x2c build/Sercom/production/_ext/302508358/plib_nvic.o
 .comment       0x0000002b       0x2c build/Sercom/production/_ext/1582435769/plib_tc0.o
 .comment       0x0000002b       0x2c build/Sercom/production/_ext/1582435769/plib_tc2.o
 .comment       0x0000002b       0x2c build/Sercom/production/_ext/302333297/plib_trng.o
 .comment       0x0000002b       0x2c build/Sercom/production/_ext/10618399/sys_int.o
 .comment       0x0000002b       0x2c build/Sercom/production/_ext/2025105575/sys_time.o
 .comment       0x0000002b       0x2c build/Sercom/production/_ext/1491116340/exceptions.o
 .comment       0x0000002b       0x2c build/Sercom/production/_ext/1491116340/initialization.o
 .comment       0x0000002b       0x2c build/Sercom/production/_ext/1491116340/startup_xc32.o
 .comment       0x0000002b       0x2c build/Sercom/production/_ext/1491116340/interrupts.o
 .comment       0x0000002b       0x2c build/Sercom/production/_ext/1491116340/tasks.o
 .comment       0x0000002b       0x2c build/Sercom/production/_ext/172253694/crypt_wolfcryptcb.o
 .comment       0x0000002b       0x2c build/Sercom/production/_ext/1664057780/cryptocb.o
 .comment       0x0000002b       0x2c build/Sercom/production/_ext/1360937237/main.o
 .comment       0x0000002b       0x2c build/Sercom/production/_ext/1360937237/app.o
 .comment       0x0000002b       0x2c c:/program files/microchip/xc32/v4.21/bin/bin/../../lib/gcc/pic32c/8.3.1/../../../../pic32c/lib/thumb/v8-m.base/nofp\libpic32c.a(data_init_wrapper.o)
 .comment       0x0000002b       0x2c c:/program files/microchip/xc32/v4.21/bin/bin/../../lib/gcc/pic32c/8.3.1/../../../../pic32c/lib/thumb/v8-m.base/nofp\libpic32c.a(data_init_0_1.o)
 .comment       0x0000002b       0x2c c:/program files/microchip/xc32/v4.21/bin/bin/../../lib/gcc/pic32c/8.3.1/../../../../pic32c/lib/thumb/v8-m.base/nofp\libc-musl.a(tolower.o)
 .comment       0x0000002b       0x2c c:/program files/microchip/xc32/v4.21/bin/bin/../../lib/gcc/pic32c/8.3.1/../../../../pic32c/lib/thumb/v8-m.base/nofp\libc-musl.a(toupper.o)
 .comment       0x0000002b       0x2c c:/program files/microchip/xc32/v4.21/bin/bin/../../lib/gcc/pic32c/8.3.1/../../../../pic32c/lib/thumb/v8-m.base/nofp\libc-musl.a(__libc_start_main.o)
 .comment       0x0000002b       0x2c c:/program files/microchip/xc32/v4.21/bin/bin/../../lib/gcc/pic32c/8.3.1/../../../../pic32c/lib/thumb/v8-m.base/nofp\libc-musl.a(libc.o)
 .comment       0x0000002b       0x2c c:/program files/microchip/xc32/v4.21/bin/bin/../../lib/gcc/pic32c/8.3.1/../../../../pic32c/lib/thumb/v8-m.base/nofp\libc-musl.a(malloc.o)
 .comment       0x0000002b       0x2c c:/program files/microchip/xc32/v4.21/bin/bin/../../lib/gcc/pic32c/8.3.1/../../../../pic32c/lib/thumb/v8-m.base/nofp\libc-musl.a(expand_heap.o)
 .comment       0x0000002b       0x2c c:/program files/microchip/xc32/v4.21/bin/bin/../../lib/gcc/pic32c/8.3.1/../../../../pic32c/lib/thumb/v8-m.base/nofp\libc-musl.a(__sio_sprintf_doux.o)
 .comment       0x0000002b       0x2c c:/program files/microchip/xc32/v4.21/bin/bin/../../lib/gcc/pic32c/8.3.1/../../../../pic32c/lib/thumb/v8-m.base/nofp\libc-musl.a(__fmt_d.o)
 .comment       0x0000002b       0x2c c:/program files/microchip/xc32/v4.21/bin/bin/../../lib/gcc/pic32c/8.3.1/../../../../pic32c/lib/thumb/v8-m.base/nofp\libc-musl.a(__fmt_o.o)
 .comment       0x0000002b       0x2c c:/program files/microchip/xc32/v4.21/bin/bin/../../lib/gcc/pic32c/8.3.1/../../../../pic32c/lib/thumb/v8-m.base/nofp\libc-musl.a(__fmt_s.o)
 .comment       0x0000002b       0x2c c:/program files/microchip/xc32/v4.21/bin/bin/../../lib/gcc/pic32c/8.3.1/../../../../pic32c/lib/thumb/v8-m.base/nofp\libc-musl.a(__fmt_u.o)
 .comment       0x0000002b       0x2c c:/program files/microchip/xc32/v4.21/bin/bin/../../lib/gcc/pic32c/8.3.1/../../../../pic32c/lib/thumb/v8-m.base/nofp\libc-musl.a(__fmt_x.o)
 .comment       0x0000002b       0x2c c:/program files/microchip/xc32/v4.21/bin/bin/../../lib/gcc/pic32c/8.3.1/../../../../pic32c/lib/thumb/v8-m.base/nofp\libc-musl.a(__pop_int.o)
 .comment       0x0000002b       0x2c c:/program files/microchip/xc32/v4.21/bin/bin/../../lib/gcc/pic32c/8.3.1/../../../../pic32c/lib/thumb/v8-m.base/nofp\libc-musl.a(__pop_ptr.o)
 .comment       0x0000002b       0x2c c:/program files/microchip/xc32/v4.21/bin/bin/../../lib/gcc/pic32c/8.3.1/../../../../pic32c/lib/thumb/v8-m.base/nofp\libc-musl.a(__printf_core.o)
 .comment       0x0000002b       0x2c c:/program files/microchip/xc32/v4.21/bin/bin/../../lib/gcc/pic32c/8.3.1/../../../../pic32c/lib/thumb/v8-m.base/nofp\libc-musl.a(stdin.o)
 .comment       0x0000002b       0x2c c:/program files/microchip/xc32/v4.21/bin/bin/../../lib/gcc/pic32c/8.3.1/../../../../pic32c/lib/thumb/v8-m.base/nofp\libc-musl.a(stdout.o)
 .comment       0x0000002b       0x2c c:/program files/microchip/xc32/v4.21/bin/bin/../../lib/gcc/pic32c/8.3.1/../../../../pic32c/lib/thumb/v8-m.base/nofp\libc-musl.a(setbuf.o)
 .comment       0x0000002b       0x2c c:/program files/microchip/xc32/v4.21/bin/bin/../../lib/gcc/pic32c/8.3.1/../../../../pic32c/lib/thumb/v8-m.base/nofp\libc-musl.a(atoi.o)
 .comment       0x0000002b       0x2c c:/program files/microchip/xc32/v4.21/bin/bin/../../lib/gcc/pic32c/8.3.1/../../../../pic32c/lib/thumb/v8-m.base/nofp\libc-musl.a(memcpy.o)
 .comment       0x0000002b       0x2c c:/program files/microchip/xc32/v4.21/bin/bin/../../lib/gcc/pic32c/8.3.1/../../../../pic32c/lib/thumb/v8-m.base/nofp\libc-musl.a(memset.o)
 .comment       0x0000002b       0x2c c:/program files/microchip/xc32/v4.21/bin/bin/../../lib/gcc/pic32c/8.3.1/../../../../pic32c/lib/thumb/v8-m.base/nofp\libc-musl.a(strlen.o)
 .comment       0x0000002b       0x2c c:/program files/microchip/xc32/v4.21/bin/bin/../../lib/gcc/pic32c/8.3.1/../../../../pic32c/lib/thumb/v8-m.base/nofp\libc-musl.a(__environ.o)
 .comment       0x0000002b       0x2c c:/program files/microchip/xc32/v4.21/bin/bin/../../lib/gcc/pic32c/8.3.1/../../../../pic32c/lib/thumb/v8-m.base/nofp\libc-musl.a(__errno_location.o)
 .comment       0x0000002b       0x2c c:/program files/microchip/xc32/v4.21/bin/bin/../../lib/gcc/pic32c/8.3.1/../../../../pic32c/lib/thumb/v8-m.base/nofp\libc-musl.a(__int_vsprintf.o)
 .comment       0x0000002b       0x2c c:/program files/microchip/xc32/v4.21/bin/bin/../../lib/gcc/pic32c/8.3.1/../../../../pic32c/lib/thumb/v8-m.base/nofp\libc-musl.a(__pop_float.o)
 .comment       0x0000002b       0x2c c:/program files/microchip/xc32/v4.21/bin/bin/../../lib/gcc/pic32c/8.3.1/../../../../pic32c/lib/thumb/v8-m.base/nofp\libc-musl.a(__stdio_read.o)
 .comment       0x0000002b       0x2c c:/program files/microchip/xc32/v4.21/bin/bin/../../lib/gcc/pic32c/8.3.1/../../../../pic32c/lib/thumb/v8-m.base/nofp\libc-musl.a(__towrite_rw.o)
 .comment       0x0000002b       0x2c c:/program files/microchip/xc32/v4.21/bin/bin/../../lib/gcc/pic32c/8.3.1/../../../../pic32c/lib/thumb/v8-m.base/nofp\libc-musl.a(setvbuf.o)
 .comment       0x0000002b       0x2c c:/program files/microchip/xc32/v4.21/bin/bin/../../lib/gcc/pic32c/8.3.1/../../../../pic32c/lib/thumb/v8-m.base/nofp\libc-musl.a(readv.o)
 .comment       0x0000002b       0x2c c:/program files/microchip/xc32/v4.21/bin/bin/../../lib/gcc/pic32c/8.3.1/../../../../pic32c/lib/thumb/v8-m.base/nofp\libc-musl.a(__int_vsnprintf.o)
 .comment       0x0000002b       0x2c c:/program files/microchip/xc32/v4.21/bin/bin/../../lib/gcc/pic32c/8.3.1/../../../../pic32c/lib/thumb/v8-m.base/nofp\libc-musl.a(__init_stdio.o)
 .comment       0x0000002b       0x2c c:/program files/microchip/xc32/v4.21/bin/bin/../../lib/gcc/pic32c/8.3.1/../../../../pic32c/lib/thumb/v8-m.base/nofp\libc-musl.a(__out.o)
 .comment       0x0000002b       0x2c c:/program files/microchip/xc32/v4.21/bin/bin/../../lib/gcc/pic32c/8.3.1/../../../../pic32c/lib/thumb/v8-m.base/nofp\libc-musl.a(__stderr.o)
 .comment       0x0000002b       0x2c c:/program files/microchip/xc32/v4.21/bin/bin/../../lib/gcc/pic32c/8.3.1/../../../../pic32c/lib/thumb/v8-m.base/nofp\libc-musl.a(__stdio_close.o)
 .comment       0x0000002b       0x2c c:/program files/microchip/xc32/v4.21/bin/bin/../../lib/gcc/pic32c/8.3.1/../../../../pic32c/lib/thumb/v8-m.base/nofp\libc-musl.a(__stdio_write.o)
 .comment       0x0000002b       0x2c c:/program files/microchip/xc32/v4.21/bin/bin/../../lib/gcc/pic32c/8.3.1/../../../../pic32c/lib/thumb/v8-m.base/nofp\libc-musl.a(__stdout.o)
 .comment       0x0000002b       0x2c c:/program files/microchip/xc32/v4.21/bin/bin/../../lib/gcc/pic32c/8.3.1/../../../../pic32c/lib/thumb/v8-m.base/nofp\libc-musl.a(__towrite.o)
 .comment       0x0000002b       0x2c c:/program files/microchip/xc32/v4.21/bin/bin/../../lib/gcc/pic32c/8.3.1/../../../../pic32c/lib/thumb/v8-m.base/nofp\libc-musl.a(writev.o)
 .comment       0x0000002b       0x2c c:/program files/microchip/xc32/v4.21/bin/bin/../../lib/gcc/pic32c/8.3.1/../../../../pic32c/lib/thumb/v8-m.base/nofp\libc-musl.a(__int_vfprintf.o)
 .comment       0x0000002b       0x2c c:/program files/microchip/xc32/v4.21/bin/bin/../../lib/gcc/pic32c/8.3.1/../../../../pic32c/lib/thumb/v8-m.base/nofp\libc-musl.a(__fwrite.o)
 .comment       0x0000002b       0x2c c:/program files/microchip/xc32/v4.21/bin/bin/../../lib/gcc/pic32c/8.3.1/thumb/v8-m.base/nofp\libgcc.a(_muldi3.o)
 .comment       0x0000002b       0x2c c:/program files/microchip/xc32/v4.21/bin/bin/../../lib/gcc/pic32c/8.3.1/thumb/v8-m.base/nofp\libgcc.a(_udivmoddi4.o)
 .comment       0x0000002b       0x2c c:/program files/microchip/xc32/v4.21/bin/bin/../../lib/gcc/pic32c/8.3.1/../../../../pic32c/lib/thumb/v8-m.base/nofp\libpic32c.a(close.o)
 .comment       0x0000002b       0x2c c:/program files/microchip/xc32/v4.21/bin/bin/../../lib/gcc/pic32c/8.3.1/../../../../pic32c/lib/thumb/v8-m.base/nofp\libpic32c.a(lseek.o)
 .comment       0x0000002b       0x2c c:/program files/microchip/xc32/v4.21/bin/bin/../../lib/gcc/pic32c/8.3.1/../../../../pic32c/lib/thumb/v8-m.base/nofp\libpic32c.a(read.o)
 .comment       0x0000002b       0x2c c:/program files/microchip/xc32/v4.21/bin/bin/../../lib/gcc/pic32c/8.3.1/../../../../pic32c/lib/thumb/v8-m.base/nofp\libpic32c.a(sbrk.o)
 .comment       0x0000002b       0x2c c:/program files/microchip/xc32/v4.21/bin/bin/../../lib/gcc/pic32c/8.3.1/../../../../pic32c/lib/thumb/v8-m.base/nofp\libpic32c.a(write.o)
 .comment       0x0000002b       0x2c c:/program files/microchip/xc32/v4.21/bin/bin/../../lib/gcc/pic32c/8.3.1/../../../../pic32c/lib/thumb/v8-m.base/nofp\libpic32c.a(_mon_getc.o)
 .comment       0x0000002b       0x2c c:/program files/microchip/xc32/v4.21/bin/bin/../../lib/gcc/pic32c/8.3.1/../../../../pic32c/lib/thumb/v8-m.base/nofp\libpic32c.a(_mon_putc.o)

.debug_info     0x00000000    0x20284
 .debug_info    0x00000000      0xd7b build/Sercom/production/_ext/302508358/plib_nvic.o
 .debug_info    0x00000d7b      0xb74 build/Sercom/production/_ext/1582435769/plib_tc0.o
 .debug_info    0x000018ef      0xce0 build/Sercom/production/_ext/1582435769/plib_tc2.o
 .debug_info    0x000025cf      0x4bb build/Sercom/production/_ext/302333297/plib_trng.o
 .debug_info    0x00002a8a      0xd35 build/Sercom/production/_ext/10618399/sys_int.o
 .debug_info    0x000037bf     0x2b01 build/Sercom/production/_ext/2025105575/sys_time.o
 .debug_info    0x000062c0      0x353 build/Sercom/production/_ext/1491116340/exceptions.o
 .debug_info    0x00006613      0xdf3 build/Sercom/production/_ext/1491116340/initialization.o
 .debug_info    0x00007406      0x4be build/Sercom/production/_ext/1491116340/startup_xc32.o
 .debug_info    0x000078c4      0xe47 build/Sercom/production/_ext/1491116340/interrupts.o
 .debug_info    0x0000870b      0x338 build/Sercom/production/_ext/1491116340/tasks.o
 .debug_info    0x00008a43     0x25d8 build/Sercom/production/_ext/172253694/crypt_wolfcryptcb.o
 .debug_info    0x0000b01b     0x4f51 build/Sercom/production/_ext/1664057780/cryptocb.o
 .debug_info    0x0000ff6c      0x502 build/Sercom/production/_ext/1360937237/main.o
 .debug_info    0x0001046e      0x3f3 build/Sercom/production/_ext/1360937237/app.o
 .debug_info    0x00010861      0x2a5 c:/program files/microchip/xc32/v4.21/bin/bin/../../lib/gcc/pic32c/8.3.1/../../../../pic32c/lib/thumb/v8-m.base/nofp\libpic32c.a(data_init_wrapper.o)
 .debug_info    0x00010b06      0x2a6 c:/program files/microchip/xc32/v4.21/bin/bin/../../lib/gcc/pic32c/8.3.1/../../../../pic32c/lib/thumb/v8-m.base/nofp\libpic32c.a(data_init_0_1.o)
 .debug_info    0x00010dac      0x35a c:/program files/microchip/xc32/v4.21/bin/bin/../../lib/gcc/pic32c/8.3.1/../../../../pic32c/lib/thumb/v8-m.base/nofp\libc-musl.a(tolower.o)
 .debug_info    0x00011106      0x35a c:/program files/microchip/xc32/v4.21/bin/bin/../../lib/gcc/pic32c/8.3.1/../../../../pic32c/lib/thumb/v8-m.base/nofp\libc-musl.a(toupper.o)
 .debug_info    0x00011460      0x624 c:/program files/microchip/xc32/v4.21/bin/bin/../../lib/gcc/pic32c/8.3.1/../../../../pic32c/lib/thumb/v8-m.base/nofp\libc-musl.a(__libc_start_main.o)
 .debug_info    0x00011a84      0x536 c:/program files/microchip/xc32/v4.21/bin/bin/../../lib/gcc/pic32c/8.3.1/../../../../pic32c/lib/thumb/v8-m.base/nofp\libc-musl.a(libc.o)
 .debug_info    0x00011fba     0x13a2 c:/program files/microchip/xc32/v4.21/bin/bin/../../lib/gcc/pic32c/8.3.1/../../../../pic32c/lib/thumb/v8-m.base/nofp\libc-musl.a(malloc.o)
 .debug_info    0x0001335c      0x37d c:/program files/microchip/xc32/v4.21/bin/bin/../../lib/gcc/pic32c/8.3.1/../../../../pic32c/lib/thumb/v8-m.base/nofp\libc-musl.a(expand_heap.o)
 .debug_info    0x000136d9      0x480 c:/program files/microchip/xc32/v4.21/bin/bin/../../lib/gcc/pic32c/8.3.1/../../../../pic32c/lib/thumb/v8-m.base/nofp\libc-musl.a(__sio_sprintf_doux.o)
 .debug_info    0x00013b59      0x5c3 c:/program files/microchip/xc32/v4.21/bin/bin/../../lib/gcc/pic32c/8.3.1/../../../../pic32c/lib/thumb/v8-m.base/nofp\libc-musl.a(__fmt_d.o)
 .debug_info    0x0001411c      0x594 c:/program files/microchip/xc32/v4.21/bin/bin/../../lib/gcc/pic32c/8.3.1/../../../../pic32c/lib/thumb/v8-m.base/nofp\libc-musl.a(__fmt_o.o)
 .debug_info    0x000146b0      0x57f c:/program files/microchip/xc32/v4.21/bin/bin/../../lib/gcc/pic32c/8.3.1/../../../../pic32c/lib/thumb/v8-m.base/nofp\libc-musl.a(__fmt_s.o)
 .debug_info    0x00014c2f      0x657 c:/program files/microchip/xc32/v4.21/bin/bin/../../lib/gcc/pic32c/8.3.1/../../../../pic32c/lib/thumb/v8-m.base/nofp\libc-musl.a(__fmt_u.o)
 .debug_info    0x00015286      0x5c8 c:/program files/microchip/xc32/v4.21/bin/bin/../../lib/gcc/pic32c/8.3.1/../../../../pic32c/lib/thumb/v8-m.base/nofp\libc-musl.a(__fmt_x.o)
 .debug_info    0x0001584e      0x402 c:/program files/microchip/xc32/v4.21/bin/bin/../../lib/gcc/pic32c/8.3.1/../../../../pic32c/lib/thumb/v8-m.base/nofp\libc-musl.a(__pop_int.o)
 .debug_info    0x00015c50      0x40e c:/program files/microchip/xc32/v4.21/bin/bin/../../lib/gcc/pic32c/8.3.1/../../../../pic32c/lib/thumb/v8-m.base/nofp\libc-musl.a(__pop_ptr.o)
 .debug_info    0x0001605e      0xd45 c:/program files/microchip/xc32/v4.21/bin/bin/../../lib/gcc/pic32c/8.3.1/../../../../pic32c/lib/thumb/v8-m.base/nofp\libc-musl.a(__printf_core.o)
 .debug_info    0x00016da3      0x6c1 c:/program files/microchip/xc32/v4.21/bin/bin/../../lib/gcc/pic32c/8.3.1/../../../../pic32c/lib/thumb/v8-m.base/nofp\libc-musl.a(stdin.o)
 .debug_info    0x00017464      0x484 c:/program files/microchip/xc32/v4.21/bin/bin/../../lib/gcc/pic32c/8.3.1/../../../../pic32c/lib/thumb/v8-m.base/nofp\libc-musl.a(stdout.o)
 .debug_info    0x000178e8      0x2ef c:/program files/microchip/xc32/v4.21/bin/bin/../../lib/gcc/pic32c/8.3.1/../../../../pic32c/lib/thumb/v8-m.base/nofp\libc-musl.a(setbuf.o)
 .debug_info    0x00017bd7      0x2fc c:/program files/microchip/xc32/v4.21/bin/bin/../../lib/gcc/pic32c/8.3.1/../../../../pic32c/lib/thumb/v8-m.base/nofp\libc-musl.a(atoi.o)
 .debug_info    0x00017ed3      0x2f2 c:/program files/microchip/xc32/v4.21/bin/bin/../../lib/gcc/pic32c/8.3.1/../../../../pic32c/lib/thumb/v8-m.base/nofp\libc-musl.a(memcpy.o)
 .debug_info    0x000181c5      0x2b6 c:/program files/microchip/xc32/v4.21/bin/bin/../../lib/gcc/pic32c/8.3.1/../../../../pic32c/lib/thumb/v8-m.base/nofp\libc-musl.a(memset.o)
 .debug_info    0x0001847b      0x2a7 c:/program files/microchip/xc32/v4.21/bin/bin/../../lib/gcc/pic32c/8.3.1/../../../../pic32c/lib/thumb/v8-m.base/nofp\libc-musl.a(strlen.o)
 .debug_info    0x00018722      0x2b0 c:/program files/microchip/xc32/v4.21/bin/bin/../../lib/gcc/pic32c/8.3.1/../../../../pic32c/lib/thumb/v8-m.base/nofp\libc-musl.a(__environ.o)
 .debug_info    0x000189d2      0x274 c:/program files/microchip/xc32/v4.21/bin/bin/../../lib/gcc/pic32c/8.3.1/../../../../pic32c/lib/thumb/v8-m.base/nofp\libc-musl.a(__errno_location.o)
 .debug_info    0x00018c46      0x3a5 c:/program files/microchip/xc32/v4.21/bin/bin/../../lib/gcc/pic32c/8.3.1/../../../../pic32c/lib/thumb/v8-m.base/nofp\libc-musl.a(__int_vsprintf.o)
 .debug_info    0x00018feb      0x3de c:/program files/microchip/xc32/v4.21/bin/bin/../../lib/gcc/pic32c/8.3.1/../../../../pic32c/lib/thumb/v8-m.base/nofp\libc-musl.a(__pop_float.o)
 .debug_info    0x000193c9      0x6ab c:/program files/microchip/xc32/v4.21/bin/bin/../../lib/gcc/pic32c/8.3.1/../../../../pic32c/lib/thumb/v8-m.base/nofp\libc-musl.a(__stdio_read.o)
 .debug_info    0x00019a74      0x5da c:/program files/microchip/xc32/v4.21/bin/bin/../../lib/gcc/pic32c/8.3.1/../../../../pic32c/lib/thumb/v8-m.base/nofp\libc-musl.a(__towrite_rw.o)
 .debug_info    0x0001a04e      0x54e c:/program files/microchip/xc32/v4.21/bin/bin/../../lib/gcc/pic32c/8.3.1/../../../../pic32c/lib/thumb/v8-m.base/nofp\libc-musl.a(setvbuf.o)
 .debug_info    0x0001a59c      0x367 c:/program files/microchip/xc32/v4.21/bin/bin/../../lib/gcc/pic32c/8.3.1/../../../../pic32c/lib/thumb/v8-m.base/nofp\libc-musl.a(readv.o)
 .debug_info    0x0001a903      0x4a7 c:/program files/microchip/xc32/v4.21/bin/bin/../../lib/gcc/pic32c/8.3.1/../../../../pic32c/lib/thumb/v8-m.base/nofp\libc-musl.a(__int_vsnprintf.o)
 .debug_info    0x0001adaa      0x32d c:/program files/microchip/xc32/v4.21/bin/bin/../../lib/gcc/pic32c/8.3.1/../../../../pic32c/lib/thumb/v8-m.base/nofp\libc-musl.a(__init_stdio.o)
 .debug_info    0x0001b0d7      0x541 c:/program files/microchip/xc32/v4.21/bin/bin/../../lib/gcc/pic32c/8.3.1/../../../../pic32c/lib/thumb/v8-m.base/nofp\libc-musl.a(__out.o)
 .debug_info    0x0001b618      0x665 c:/program files/microchip/xc32/v4.21/bin/bin/../../lib/gcc/pic32c/8.3.1/../../../../pic32c/lib/thumb/v8-m.base/nofp\libc-musl.a(__stderr.o)
 .debug_info    0x0001bc7d      0x6c3 c:/program files/microchip/xc32/v4.21/bin/bin/../../lib/gcc/pic32c/8.3.1/../../../../pic32c/lib/thumb/v8-m.base/nofp\libc-musl.a(__stdio_close.o)
 .debug_info    0x0001c340      0x6f8 c:/program files/microchip/xc32/v4.21/bin/bin/../../lib/gcc/pic32c/8.3.1/../../../../pic32c/lib/thumb/v8-m.base/nofp\libc-musl.a(__stdio_write.o)
 .debug_info    0x0001ca38      0x665 c:/program files/microchip/xc32/v4.21/bin/bin/../../lib/gcc/pic32c/8.3.1/../../../../pic32c/lib/thumb/v8-m.base/nofp\libc-musl.a(__stdout.o)
 .debug_info    0x0001d09d      0x4f6 c:/program files/microchip/xc32/v4.21/bin/bin/../../lib/gcc/pic32c/8.3.1/../../../../pic32c/lib/thumb/v8-m.base/nofp\libc-musl.a(__towrite.o)
 .debug_info    0x0001d593      0x36b c:/program files/microchip/xc32/v4.21/bin/bin/../../lib/gcc/pic32c/8.3.1/../../../../pic32c/lib/thumb/v8-m.base/nofp\libc-musl.a(writev.o)
 .debug_info    0x0001d8fe      0x482 c:/program files/microchip/xc32/v4.21/bin/bin/../../lib/gcc/pic32c/8.3.1/../../../../pic32c/lib/thumb/v8-m.base/nofp\libc-musl.a(__int_vfprintf.o)
 .debug_info    0x0001dd80      0x545 c:/program files/microchip/xc32/v4.21/bin/bin/../../lib/gcc/pic32c/8.3.1/../../../../pic32c/lib/thumb/v8-m.base/nofp\libc-musl.a(__fwrite.o)
 .debug_info    0x0001e2c5       0x26 c:/program files/microchip/xc32/v4.21/bin/bin/../../lib/gcc/pic32c/8.3.1/thumb/v8-m.base/nofp\libgcc.a(_lshrdi3.o)
 .debug_info    0x0001e2eb       0x26 c:/program files/microchip/xc32/v4.21/bin/bin/../../lib/gcc/pic32c/8.3.1/thumb/v8-m.base/nofp\libgcc.a(_ashldi3.o)
 .debug_info    0x0001e311       0x26 c:/program files/microchip/xc32/v4.21/bin/bin/../../lib/gcc/pic32c/8.3.1/thumb/v8-m.base/nofp\libgcc.a(_aeabi_uldivmod.o)
 .debug_info    0x0001e337      0x4b6 c:/program files/microchip/xc32/v4.21/bin/bin/../../lib/gcc/pic32c/8.3.1/thumb/v8-m.base/nofp\libgcc.a(_muldi3.o)
 .debug_info    0x0001e7ed      0x8b5 c:/program files/microchip/xc32/v4.21/bin/bin/../../lib/gcc/pic32c/8.3.1/thumb/v8-m.base/nofp\libgcc.a(_udivmoddi4.o)
 .debug_info    0x0001f0a2       0x26 c:/program files/microchip/xc32/v4.21/bin/bin/../../lib/gcc/pic32c/8.3.1/thumb/v8-m.base/nofp\libgcc.a(_dvmd_tls.o)
 .debug_info    0x0001f0c8       0x26 c:/program files/microchip/xc32/v4.21/bin/bin/../../lib/gcc/pic32c/8.3.1/thumb/v8-m.base/nofp\libgcc.a(_clzsi2.o)
 .debug_info    0x0001f0ee      0x281 c:/program files/microchip/xc32/v4.21/bin/bin/../../lib/gcc/pic32c/8.3.1/../../../../pic32c/lib/thumb/v8-m.base/nofp\libpic32c.a(close.o)
 .debug_info    0x0001f36f      0x281 c:/program files/microchip/xc32/v4.21/bin/bin/../../lib/gcc/pic32c/8.3.1/../../../../pic32c/lib/thumb/v8-m.base/nofp\libpic32c.a(lseek.o)
 .debug_info    0x0001f5f0      0x280 c:/program files/microchip/xc32/v4.21/bin/bin/../../lib/gcc/pic32c/8.3.1/../../../../pic32c/lib/thumb/v8-m.base/nofp\libpic32c.a(read.o)
 .debug_info    0x0001f870      0x280 c:/program files/microchip/xc32/v4.21/bin/bin/../../lib/gcc/pic32c/8.3.1/../../../../pic32c/lib/thumb/v8-m.base/nofp\libpic32c.a(sbrk.o)
 .debug_info    0x0001faf0      0x282 c:/program files/microchip/xc32/v4.21/bin/bin/../../lib/gcc/pic32c/8.3.1/../../../../pic32c/lib/thumb/v8-m.base/nofp\libpic32c.a(write.o)
 .debug_info    0x0001fd72      0x289 c:/program files/microchip/xc32/v4.21/bin/bin/../../lib/gcc/pic32c/8.3.1/../../../../pic32c/lib/thumb/v8-m.base/nofp\libpic32c.a(_mon_getc.o)
 .debug_info    0x0001fffb      0x289 c:/program files/microchip/xc32/v4.21/bin/bin/../../lib/gcc/pic32c/8.3.1/../../../../pic32c/lib/thumb/v8-m.base/nofp\libpic32c.a(_mon_putc.o)

.debug_abbrev   0x00000000     0x49eb
 .debug_abbrev  0x00000000      0x1d0 build/Sercom/production/_ext/302508358/plib_nvic.o
 .debug_abbrev  0x000001d0      0x173 build/Sercom/production/_ext/1582435769/plib_tc0.o
 .debug_abbrev  0x00000343      0x1e9 build/Sercom/production/_ext/1582435769/plib_tc2.o
 .debug_abbrev  0x0000052c       0xb5 build/Sercom/production/_ext/302333297/plib_trng.o
 .debug_abbrev  0x000005e1      0x23c build/Sercom/production/_ext/10618399/sys_int.o
 .debug_abbrev  0x0000081d      0x56e build/Sercom/production/_ext/2025105575/sys_time.o
 .debug_abbrev  0x00000d8b       0x3e build/Sercom/production/_ext/1491116340/exceptions.o
 .debug_abbrev  0x00000dc9      0x203 build/Sercom/production/_ext/1491116340/initialization.o
 .debug_abbrev  0x00000fcc      0x110 build/Sercom/production/_ext/1491116340/startup_xc32.o
 .debug_abbrev  0x000010dc       0xb5 build/Sercom/production/_ext/1491116340/interrupts.o
 .debug_abbrev  0x00001191       0x5c build/Sercom/production/_ext/1491116340/tasks.o
 .debug_abbrev  0x000011ed      0x25e build/Sercom/production/_ext/172253694/crypt_wolfcryptcb.o
 .debug_abbrev  0x0000144b      0x46a build/Sercom/production/_ext/1664057780/cryptocb.o
 .debug_abbrev  0x000018b5       0xd9 build/Sercom/production/_ext/1360937237/main.o
 .debug_abbrev  0x0000198e       0xd2 build/Sercom/production/_ext/1360937237/app.o
 .debug_abbrev  0x00001a60       0x2e c:/program files/microchip/xc32/v4.21/bin/bin/../../lib/gcc/pic32c/8.3.1/../../../../pic32c/lib/thumb/v8-m.base/nofp\libpic32c.a(data_init_wrapper.o)
 .debug_abbrev  0x00001a8e       0x2e c:/program files/microchip/xc32/v4.21/bin/bin/../../lib/gcc/pic32c/8.3.1/../../../../pic32c/lib/thumb/v8-m.base/nofp\libpic32c.a(data_init_0_1.o)
 .debug_abbrev  0x00001abc       0xe9 c:/program files/microchip/xc32/v4.21/bin/bin/../../lib/gcc/pic32c/8.3.1/../../../../pic32c/lib/thumb/v8-m.base/nofp\libc-musl.a(tolower.o)
 .debug_abbrev  0x00001ba5       0xe9 c:/program files/microchip/xc32/v4.21/bin/bin/../../lib/gcc/pic32c/8.3.1/../../../../pic32c/lib/thumb/v8-m.base/nofp\libc-musl.a(toupper.o)
 .debug_abbrev  0x00001c8e      0x117 c:/program files/microchip/xc32/v4.21/bin/bin/../../lib/gcc/pic32c/8.3.1/../../../../pic32c/lib/thumb/v8-m.base/nofp\libc-musl.a(__libc_start_main.o)
 .debug_abbrev  0x00001da5       0xb8 c:/program files/microchip/xc32/v4.21/bin/bin/../../lib/gcc/pic32c/8.3.1/../../../../pic32c/lib/thumb/v8-m.base/nofp\libc-musl.a(libc.o)
 .debug_abbrev  0x00001e5d      0x3fa c:/program files/microchip/xc32/v4.21/bin/bin/../../lib/gcc/pic32c/8.3.1/../../../../pic32c/lib/thumb/v8-m.base/nofp\libc-musl.a(malloc.o)
 .debug_abbrev  0x00002257       0xa5 c:/program files/microchip/xc32/v4.21/bin/bin/../../lib/gcc/pic32c/8.3.1/../../../../pic32c/lib/thumb/v8-m.base/nofp\libc-musl.a(expand_heap.o)
 .debug_abbrev  0x000022fc      0x120 c:/program files/microchip/xc32/v4.21/bin/bin/../../lib/gcc/pic32c/8.3.1/../../../../pic32c/lib/thumb/v8-m.base/nofp\libc-musl.a(__sio_sprintf_doux.o)
 .debug_abbrev  0x0000241c      0x120 c:/program files/microchip/xc32/v4.21/bin/bin/../../lib/gcc/pic32c/8.3.1/../../../../pic32c/lib/thumb/v8-m.base/nofp\libc-musl.a(__fmt_d.o)
 .debug_abbrev  0x0000253c      0x120 c:/program files/microchip/xc32/v4.21/bin/bin/../../lib/gcc/pic32c/8.3.1/../../../../pic32c/lib/thumb/v8-m.base/nofp\libc-musl.a(__fmt_o.o)
 .debug_abbrev  0x0000265c      0x11d c:/program files/microchip/xc32/v4.21/bin/bin/../../lib/gcc/pic32c/8.3.1/../../../../pic32c/lib/thumb/v8-m.base/nofp\libc-musl.a(__fmt_s.o)
 .debug_abbrev  0x00002779      0x174 c:/program files/microchip/xc32/v4.21/bin/bin/../../lib/gcc/pic32c/8.3.1/../../../../pic32c/lib/thumb/v8-m.base/nofp\libc-musl.a(__fmt_u.o)
 .debug_abbrev  0x000028ed      0x10f c:/program files/microchip/xc32/v4.21/bin/bin/../../lib/gcc/pic32c/8.3.1/../../../../pic32c/lib/thumb/v8-m.base/nofp\libc-musl.a(__fmt_x.o)
 .debug_abbrev  0x000029fc       0xbd c:/program files/microchip/xc32/v4.21/bin/bin/../../lib/gcc/pic32c/8.3.1/../../../../pic32c/lib/thumb/v8-m.base/nofp\libc-musl.a(__pop_int.o)
 .debug_abbrev  0x00002ab9       0xbd c:/program files/microchip/xc32/v4.21/bin/bin/../../lib/gcc/pic32c/8.3.1/../../../../pic32c/lib/thumb/v8-m.base/nofp\libc-musl.a(__pop_ptr.o)
 .debug_abbrev  0x00002b76      0x2be c:/program files/microchip/xc32/v4.21/bin/bin/../../lib/gcc/pic32c/8.3.1/../../../../pic32c/lib/thumb/v8-m.base/nofp\libc-musl.a(__printf_core.o)
 .debug_abbrev  0x00002e34      0x175 c:/program files/microchip/xc32/v4.21/bin/bin/../../lib/gcc/pic32c/8.3.1/../../../../pic32c/lib/thumb/v8-m.base/nofp\libc-musl.a(stdin.o)
 .debug_abbrev  0x00002fa9      0x118 c:/program files/microchip/xc32/v4.21/bin/bin/../../lib/gcc/pic32c/8.3.1/../../../../pic32c/lib/thumb/v8-m.base/nofp\libc-musl.a(stdout.o)
 .debug_abbrev  0x000030c1       0x9d c:/program files/microchip/xc32/v4.21/bin/bin/../../lib/gcc/pic32c/8.3.1/../../../../pic32c/lib/thumb/v8-m.base/nofp\libc-musl.a(setbuf.o)
 .debug_abbrev  0x0000315e       0xbb c:/program files/microchip/xc32/v4.21/bin/bin/../../lib/gcc/pic32c/8.3.1/../../../../pic32c/lib/thumb/v8-m.base/nofp\libc-musl.a(atoi.o)
 .debug_abbrev  0x00003219       0x9c c:/program files/microchip/xc32/v4.21/bin/bin/../../lib/gcc/pic32c/8.3.1/../../../../pic32c/lib/thumb/v8-m.base/nofp\libc-musl.a(memcpy.o)
 .debug_abbrev  0x000032b5       0x97 c:/program files/microchip/xc32/v4.21/bin/bin/../../lib/gcc/pic32c/8.3.1/../../../../pic32c/lib/thumb/v8-m.base/nofp\libc-musl.a(memset.o)
 .debug_abbrev  0x0000334c       0x86 c:/program files/microchip/xc32/v4.21/bin/bin/../../lib/gcc/pic32c/8.3.1/../../../../pic32c/lib/thumb/v8-m.base/nofp\libc-musl.a(strlen.o)
 .debug_abbrev  0x000033d2       0x57 c:/program files/microchip/xc32/v4.21/bin/bin/../../lib/gcc/pic32c/8.3.1/../../../../pic32c/lib/thumb/v8-m.base/nofp\libc-musl.a(__environ.o)
 .debug_abbrev  0x00003429       0x2e c:/program files/microchip/xc32/v4.21/bin/bin/../../lib/gcc/pic32c/8.3.1/../../../../pic32c/lib/thumb/v8-m.base/nofp\libc-musl.a(__errno_location.o)
 .debug_abbrev  0x00003457       0xc0 c:/program files/microchip/xc32/v4.21/bin/bin/../../lib/gcc/pic32c/8.3.1/../../../../pic32c/lib/thumb/v8-m.base/nofp\libc-musl.a(__int_vsprintf.o)
 .debug_abbrev  0x00003517       0xbd c:/program files/microchip/xc32/v4.21/bin/bin/../../lib/gcc/pic32c/8.3.1/../../../../pic32c/lib/thumb/v8-m.base/nofp\libc-musl.a(__pop_float.o)
 .debug_abbrev  0x000035d4      0x150 c:/program files/microchip/xc32/v4.21/bin/bin/../../lib/gcc/pic32c/8.3.1/../../../../pic32c/lib/thumb/v8-m.base/nofp\libc-musl.a(__stdio_read.o)
 .debug_abbrev  0x00003724       0xdc c:/program files/microchip/xc32/v4.21/bin/bin/../../lib/gcc/pic32c/8.3.1/../../../../pic32c/lib/thumb/v8-m.base/nofp\libc-musl.a(__towrite_rw.o)
 .debug_abbrev  0x00003800      0x119 c:/program files/microchip/xc32/v4.21/bin/bin/../../lib/gcc/pic32c/8.3.1/../../../../pic32c/lib/thumb/v8-m.base/nofp\libc-musl.a(setvbuf.o)
 .debug_abbrev  0x00003919       0xd8 c:/program files/microchip/xc32/v4.21/bin/bin/../../lib/gcc/pic32c/8.3.1/../../../../pic32c/lib/thumb/v8-m.base/nofp\libc-musl.a(readv.o)
 .debug_abbrev  0x000039f1      0x127 c:/program files/microchip/xc32/v4.21/bin/bin/../../lib/gcc/pic32c/8.3.1/../../../../pic32c/lib/thumb/v8-m.base/nofp\libc-musl.a(__int_vsnprintf.o)
 .debug_abbrev  0x00003b18       0x5a c:/program files/microchip/xc32/v4.21/bin/bin/../../lib/gcc/pic32c/8.3.1/../../../../pic32c/lib/thumb/v8-m.base/nofp\libc-musl.a(__init_stdio.o)
 .debug_abbrev  0x00003b72      0x15b c:/program files/microchip/xc32/v4.21/bin/bin/../../lib/gcc/pic32c/8.3.1/../../../../pic32c/lib/thumb/v8-m.base/nofp\libc-musl.a(__out.o)
 .debug_abbrev  0x00003ccd      0x151 c:/program files/microchip/xc32/v4.21/bin/bin/../../lib/gcc/pic32c/8.3.1/../../../../pic32c/lib/thumb/v8-m.base/nofp\libc-musl.a(__stderr.o)
 .debug_abbrev  0x00003e1e      0x11f c:/program files/microchip/xc32/v4.21/bin/bin/../../lib/gcc/pic32c/8.3.1/../../../../pic32c/lib/thumb/v8-m.base/nofp\libc-musl.a(__stdio_close.o)
 .debug_abbrev  0x00003f3d      0x1a1 c:/program files/microchip/xc32/v4.21/bin/bin/../../lib/gcc/pic32c/8.3.1/../../../../pic32c/lib/thumb/v8-m.base/nofp\libc-musl.a(__stdio_write.o)
 .debug_abbrev  0x000040de      0x151 c:/program files/microchip/xc32/v4.21/bin/bin/../../lib/gcc/pic32c/8.3.1/../../../../pic32c/lib/thumb/v8-m.base/nofp\libc-musl.a(__stdout.o)
 .debug_abbrev  0x0000422f       0xf8 c:/program files/microchip/xc32/v4.21/bin/bin/../../lib/gcc/pic32c/8.3.1/../../../../pic32c/lib/thumb/v8-m.base/nofp\libc-musl.a(__towrite.o)
 .debug_abbrev  0x00004327       0xd8 c:/program files/microchip/xc32/v4.21/bin/bin/../../lib/gcc/pic32c/8.3.1/../../../../pic32c/lib/thumb/v8-m.base/nofp\libc-musl.a(writev.o)
 .debug_abbrev  0x000043ff      0x116 c:/program files/microchip/xc32/v4.21/bin/bin/../../lib/gcc/pic32c/8.3.1/../../../../pic32c/lib/thumb/v8-m.base/nofp\libc-musl.a(__int_vfprintf.o)
 .debug_abbrev  0x00004515      0x119 c:/program files/microchip/xc32/v4.21/bin/bin/../../lib/gcc/pic32c/8.3.1/../../../../pic32c/lib/thumb/v8-m.base/nofp\libc-musl.a(__fwrite.o)
 .debug_abbrev  0x0000462e       0x14 c:/program files/microchip/xc32/v4.21/bin/bin/../../lib/gcc/pic32c/8.3.1/thumb/v8-m.base/nofp\libgcc.a(_lshrdi3.o)
 .debug_abbrev  0x00004642       0x14 c:/program files/microchip/xc32/v4.21/bin/bin/../../lib/gcc/pic32c/8.3.1/thumb/v8-m.base/nofp\libgcc.a(_ashldi3.o)
 .debug_abbrev  0x00004656       0x14 c:/program files/microchip/xc32/v4.21/bin/bin/../../lib/gcc/pic32c/8.3.1/thumb/v8-m.base/nofp\libgcc.a(_aeabi_uldivmod.o)
 .debug_abbrev  0x0000466a       0xef c:/program files/microchip/xc32/v4.21/bin/bin/../../lib/gcc/pic32c/8.3.1/thumb/v8-m.base/nofp\libgcc.a(_muldi3.o)
 .debug_abbrev  0x00004759      0x128 c:/program files/microchip/xc32/v4.21/bin/bin/../../lib/gcc/pic32c/8.3.1/thumb/v8-m.base/nofp\libgcc.a(_udivmoddi4.o)
 .debug_abbrev  0x00004881       0x14 c:/program files/microchip/xc32/v4.21/bin/bin/../../lib/gcc/pic32c/8.3.1/thumb/v8-m.base/nofp\libgcc.a(_dvmd_tls.o)
 .debug_abbrev  0x00004895       0x14 c:/program files/microchip/xc32/v4.21/bin/bin/../../lib/gcc/pic32c/8.3.1/thumb/v8-m.base/nofp\libgcc.a(_clzsi2.o)
 .debug_abbrev  0x000048a9       0x2e c:/program files/microchip/xc32/v4.21/bin/bin/../../lib/gcc/pic32c/8.3.1/../../../../pic32c/lib/thumb/v8-m.base/nofp\libpic32c.a(close.o)
 .debug_abbrev  0x000048d7       0x2e c:/program files/microchip/xc32/v4.21/bin/bin/../../lib/gcc/pic32c/8.3.1/../../../../pic32c/lib/thumb/v8-m.base/nofp\libpic32c.a(lseek.o)
 .debug_abbrev  0x00004905       0x2e c:/program files/microchip/xc32/v4.21/bin/bin/../../lib/gcc/pic32c/8.3.1/../../../../pic32c/lib/thumb/v8-m.base/nofp\libpic32c.a(read.o)
 .debug_abbrev  0x00004933       0x2e c:/program files/microchip/xc32/v4.21/bin/bin/../../lib/gcc/pic32c/8.3.1/../../../../pic32c/lib/thumb/v8-m.base/nofp\libpic32c.a(sbrk.o)
 .debug_abbrev  0x00004961       0x2e c:/program files/microchip/xc32/v4.21/bin/bin/../../lib/gcc/pic32c/8.3.1/../../../../pic32c/lib/thumb/v8-m.base/nofp\libpic32c.a(write.o)
 .debug_abbrev  0x0000498f       0x2e c:/program files/microchip/xc32/v4.21/bin/bin/../../lib/gcc/pic32c/8.3.1/../../../../pic32c/lib/thumb/v8-m.base/nofp\libpic32c.a(_mon_getc.o)
 .debug_abbrev  0x000049bd       0x2e c:/program files/microchip/xc32/v4.21/bin/bin/../../lib/gcc/pic32c/8.3.1/../../../../pic32c/lib/thumb/v8-m.base/nofp\libpic32c.a(_mon_putc.o)

.debug_loc      0x00000000     0xaa7a
 .debug_loc     0x00000000       0x72 build/Sercom/production/_ext/302508358/plib_nvic.o
 .debug_loc     0x00000072       0x48 build/Sercom/production/_ext/1582435769/plib_tc0.o
 .debug_loc     0x000000ba       0x74 build/Sercom/production/_ext/1582435769/plib_tc2.o
 .debug_loc     0x0000012e      0x18d build/Sercom/production/_ext/10618399/sys_int.o
 .debug_loc     0x000002bb     0x24de build/Sercom/production/_ext/2025105575/sys_time.o
 .debug_loc     0x00002799       0x45 build/Sercom/production/_ext/1491116340/initialization.o
 .debug_loc     0x000027de       0x20 build/Sercom/production/_ext/1491116340/startup_xc32.o
 .debug_loc     0x000027fe       0x20 build/Sercom/production/_ext/1491116340/tasks.o
 .debug_loc     0x0000281e       0x45 build/Sercom/production/_ext/172253694/crypt_wolfcryptcb.o
 .debug_loc     0x00002863     0x35da build/Sercom/production/_ext/1664057780/cryptocb.o
 .debug_loc     0x00005e3d       0x97 build/Sercom/production/_ext/1360937237/main.o
 .debug_loc     0x00005ed4       0x16 build/Sercom/production/_ext/1360937237/app.o
 .debug_loc     0x00005eea       0x14 c:/program files/microchip/xc32/v4.21/bin/bin/../../lib/gcc/pic32c/8.3.1/../../../../pic32c/lib/thumb/v8-m.base/nofp\libpic32c.a(data_init_wrapper.o)
 .debug_loc     0x00005efe       0x14 c:/program files/microchip/xc32/v4.21/bin/bin/../../lib/gcc/pic32c/8.3.1/../../../../pic32c/lib/thumb/v8-m.base/nofp\libpic32c.a(data_init_0_1.o)
 .debug_loc     0x00005f12       0x8f c:/program files/microchip/xc32/v4.21/bin/bin/../../lib/gcc/pic32c/8.3.1/../../../../pic32c/lib/thumb/v8-m.base/nofp\libc-musl.a(tolower.o)
 .debug_loc     0x00005fa1       0x8f c:/program files/microchip/xc32/v4.21/bin/bin/../../lib/gcc/pic32c/8.3.1/../../../../pic32c/lib/thumb/v8-m.base/nofp\libc-musl.a(toupper.o)
 .debug_loc     0x00006030       0x5e c:/program files/microchip/xc32/v4.21/bin/bin/../../lib/gcc/pic32c/8.3.1/../../../../pic32c/lib/thumb/v8-m.base/nofp\libc-musl.a(__libc_start_main.o)
 .debug_loc     0x0000608e      0xd36 c:/program files/microchip/xc32/v4.21/bin/bin/../../lib/gcc/pic32c/8.3.1/../../../../pic32c/lib/thumb/v8-m.base/nofp\libc-musl.a(malloc.o)
 .debug_loc     0x00006dc4       0x7c c:/program files/microchip/xc32/v4.21/bin/bin/../../lib/gcc/pic32c/8.3.1/../../../../pic32c/lib/thumb/v8-m.base/nofp\libc-musl.a(expand_heap.o)
 .debug_loc     0x00006e40       0x86 c:/program files/microchip/xc32/v4.21/bin/bin/../../lib/gcc/pic32c/8.3.1/../../../../pic32c/lib/thumb/v8-m.base/nofp\libc-musl.a(__sio_sprintf_doux.o)
 .debug_loc     0x00006ec6      0x2a6 c:/program files/microchip/xc32/v4.21/bin/bin/../../lib/gcc/pic32c/8.3.1/../../../../pic32c/lib/thumb/v8-m.base/nofp\libc-musl.a(__fmt_d.o)
 .debug_loc     0x0000716c      0x12d c:/program files/microchip/xc32/v4.21/bin/bin/../../lib/gcc/pic32c/8.3.1/../../../../pic32c/lib/thumb/v8-m.base/nofp\libc-musl.a(__fmt_o.o)
 .debug_loc     0x00007299      0x144 c:/program files/microchip/xc32/v4.21/bin/bin/../../lib/gcc/pic32c/8.3.1/../../../../pic32c/lib/thumb/v8-m.base/nofp\libc-musl.a(__fmt_s.o)
 .debug_loc     0x000073dd      0x2e3 c:/program files/microchip/xc32/v4.21/bin/bin/../../lib/gcc/pic32c/8.3.1/../../../../pic32c/lib/thumb/v8-m.base/nofp\libc-musl.a(__fmt_u.o)
 .debug_loc     0x000076c0      0x3be c:/program files/microchip/xc32/v4.21/bin/bin/../../lib/gcc/pic32c/8.3.1/../../../../pic32c/lib/thumb/v8-m.base/nofp\libc-musl.a(__fmt_x.o)
 .debug_loc     0x00007a7e      0x34c c:/program files/microchip/xc32/v4.21/bin/bin/../../lib/gcc/pic32c/8.3.1/../../../../pic32c/lib/thumb/v8-m.base/nofp\libc-musl.a(__pop_int.o)
 .debug_loc     0x00007dca      0x1fe c:/program files/microchip/xc32/v4.21/bin/bin/../../lib/gcc/pic32c/8.3.1/../../../../pic32c/lib/thumb/v8-m.base/nofp\libc-musl.a(__pop_ptr.o)
 .debug_loc     0x00007fc8      0x6ae c:/program files/microchip/xc32/v4.21/bin/bin/../../lib/gcc/pic32c/8.3.1/../../../../pic32c/lib/thumb/v8-m.base/nofp\libc-musl.a(__printf_core.o)
 .debug_loc     0x00008676       0x45 c:/program files/microchip/xc32/v4.21/bin/bin/../../lib/gcc/pic32c/8.3.1/../../../../pic32c/lib/thumb/v8-m.base/nofp\libc-musl.a(stdin.o)
 .debug_loc     0x000086bb       0x40 c:/program files/microchip/xc32/v4.21/bin/bin/../../lib/gcc/pic32c/8.3.1/../../../../pic32c/lib/thumb/v8-m.base/nofp\libc-musl.a(stdout.o)
 .debug_loc     0x000086fb       0x6a c:/program files/microchip/xc32/v4.21/bin/bin/../../lib/gcc/pic32c/8.3.1/../../../../pic32c/lib/thumb/v8-m.base/nofp\libc-musl.a(setbuf.o)
 .debug_loc     0x00008765       0xdc c:/program files/microchip/xc32/v4.21/bin/bin/../../lib/gcc/pic32c/8.3.1/../../../../pic32c/lib/thumb/v8-m.base/nofp\libc-musl.a(atoi.o)
 .debug_loc     0x00008841      0x109 c:/program files/microchip/xc32/v4.21/bin/bin/../../lib/gcc/pic32c/8.3.1/../../../../pic32c/lib/thumb/v8-m.base/nofp\libc-musl.a(memcpy.o)
 .debug_loc     0x0000894a       0x80 c:/program files/microchip/xc32/v4.21/bin/bin/../../lib/gcc/pic32c/8.3.1/../../../../pic32c/lib/thumb/v8-m.base/nofp\libc-musl.a(memset.o)
 .debug_loc     0x000089ca       0x54 c:/program files/microchip/xc32/v4.21/bin/bin/../../lib/gcc/pic32c/8.3.1/../../../../pic32c/lib/thumb/v8-m.base/nofp\libc-musl.a(strlen.o)
 .debug_loc     0x00008a1e       0x8c c:/program files/microchip/xc32/v4.21/bin/bin/../../lib/gcc/pic32c/8.3.1/../../../../pic32c/lib/thumb/v8-m.base/nofp\libc-musl.a(__int_vsprintf.o)
 .debug_loc     0x00008aaa       0x6f c:/program files/microchip/xc32/v4.21/bin/bin/../../lib/gcc/pic32c/8.3.1/../../../../pic32c/lib/thumb/v8-m.base/nofp\libc-musl.a(__pop_float.o)
 .debug_loc     0x00008b19      0x107 c:/program files/microchip/xc32/v4.21/bin/bin/../../lib/gcc/pic32c/8.3.1/../../../../pic32c/lib/thumb/v8-m.base/nofp\libc-musl.a(__stdio_read.o)
 .debug_loc     0x00008c20       0x42 c:/program files/microchip/xc32/v4.21/bin/bin/../../lib/gcc/pic32c/8.3.1/../../../../pic32c/lib/thumb/v8-m.base/nofp\libc-musl.a(__towrite_rw.o)
 .debug_loc     0x00008c62       0xf8 c:/program files/microchip/xc32/v4.21/bin/bin/../../lib/gcc/pic32c/8.3.1/../../../../pic32c/lib/thumb/v8-m.base/nofp\libc-musl.a(setvbuf.o)
 .debug_loc     0x00008d5a      0x130 c:/program files/microchip/xc32/v4.21/bin/bin/../../lib/gcc/pic32c/8.3.1/../../../../pic32c/lib/thumb/v8-m.base/nofp\libc-musl.a(readv.o)
 .debug_loc     0x00008e8a      0x102 c:/program files/microchip/xc32/v4.21/bin/bin/../../lib/gcc/pic32c/8.3.1/../../../../pic32c/lib/thumb/v8-m.base/nofp\libc-musl.a(__int_vsnprintf.o)
 .debug_loc     0x00008f8c       0x20 c:/program files/microchip/xc32/v4.21/bin/bin/../../lib/gcc/pic32c/8.3.1/../../../../pic32c/lib/thumb/v8-m.base/nofp\libc-musl.a(__init_stdio.o)
 .debug_loc     0x00008fac      0x1e6 c:/program files/microchip/xc32/v4.21/bin/bin/../../lib/gcc/pic32c/8.3.1/../../../../pic32c/lib/thumb/v8-m.base/nofp\libc-musl.a(__out.o)
 .debug_loc     0x00009192       0x45 c:/program files/microchip/xc32/v4.21/bin/bin/../../lib/gcc/pic32c/8.3.1/../../../../pic32c/lib/thumb/v8-m.base/nofp\libc-musl.a(__stderr.o)
 .debug_loc     0x000091d7      0x1d8 c:/program files/microchip/xc32/v4.21/bin/bin/../../lib/gcc/pic32c/8.3.1/../../../../pic32c/lib/thumb/v8-m.base/nofp\libc-musl.a(__stdio_close.o)
 .debug_loc     0x000093af      0x364 c:/program files/microchip/xc32/v4.21/bin/bin/../../lib/gcc/pic32c/8.3.1/../../../../pic32c/lib/thumb/v8-m.base/nofp\libc-musl.a(__stdio_write.o)
 .debug_loc     0x00009713       0x45 c:/program files/microchip/xc32/v4.21/bin/bin/../../lib/gcc/pic32c/8.3.1/../../../../pic32c/lib/thumb/v8-m.base/nofp\libc-musl.a(__stdout.o)
 .debug_loc     0x00009758       0x8c c:/program files/microchip/xc32/v4.21/bin/bin/../../lib/gcc/pic32c/8.3.1/../../../../pic32c/lib/thumb/v8-m.base/nofp\libc-musl.a(__towrite.o)
 .debug_loc     0x000097e4      0x130 c:/program files/microchip/xc32/v4.21/bin/bin/../../lib/gcc/pic32c/8.3.1/../../../../pic32c/lib/thumb/v8-m.base/nofp\libc-musl.a(writev.o)
 .debug_loc     0x00009914       0xb0 c:/program files/microchip/xc32/v4.21/bin/bin/../../lib/gcc/pic32c/8.3.1/../../../../pic32c/lib/thumb/v8-m.base/nofp\libc-musl.a(__int_vfprintf.o)
 .debug_loc     0x000099c4      0x106 c:/program files/microchip/xc32/v4.21/bin/bin/../../lib/gcc/pic32c/8.3.1/../../../../pic32c/lib/thumb/v8-m.base/nofp\libc-musl.a(__fwrite.o)
 .debug_loc     0x00009aca      0x177 c:/program files/microchip/xc32/v4.21/bin/bin/../../lib/gcc/pic32c/8.3.1/thumb/v8-m.base/nofp\libgcc.a(_muldi3.o)
 .debug_loc     0x00009c41      0xe11 c:/program files/microchip/xc32/v4.21/bin/bin/../../lib/gcc/pic32c/8.3.1/thumb/v8-m.base/nofp\libgcc.a(_udivmoddi4.o)
 .debug_loc     0x0000aa52       0x14 c:/program files/microchip/xc32/v4.21/bin/bin/../../lib/gcc/pic32c/8.3.1/../../../../pic32c/lib/thumb/v8-m.base/nofp\libpic32c.a(read.o)
 .debug_loc     0x0000aa66       0x14 c:/program files/microchip/xc32/v4.21/bin/bin/../../lib/gcc/pic32c/8.3.1/../../../../pic32c/lib/thumb/v8-m.base/nofp\libpic32c.a(write.o)

.debug_aranges  0x00000000      0xcf0
 .debug_aranges
                0x00000000       0x38 build/Sercom/production/_ext/302508358/plib_nvic.o
 .debug_aranges
                0x00000038       0x68 build/Sercom/production/_ext/1582435769/plib_tc0.o
 .debug_aranges
                0x000000a0       0x78 build/Sercom/production/_ext/1582435769/plib_tc2.o
 .debug_aranges
                0x00000118       0x28 build/Sercom/production/_ext/302333297/plib_trng.o
 .debug_aranges
                0x00000140       0x40 build/Sercom/production/_ext/10618399/sys_int.o
 .debug_aranges
                0x00000180      0x128 build/Sercom/production/_ext/2025105575/sys_time.o
 .debug_aranges
                0x000002a8       0x28 build/Sercom/production/_ext/1491116340/exceptions.o
 .debug_aranges
                0x000002d0       0x20 build/Sercom/production/_ext/1491116340/initialization.o
 .debug_aranges
                0x000002f0       0x28 build/Sercom/production/_ext/1491116340/startup_xc32.o
 .debug_aranges
                0x00000318       0x20 build/Sercom/production/_ext/1491116340/interrupts.o
 .debug_aranges
                0x00000338       0x20 build/Sercom/production/_ext/1491116340/tasks.o
 .debug_aranges
                0x00000358       0x28 build/Sercom/production/_ext/172253694/crypt_wolfcryptcb.o
 .debug_aranges
                0x00000380      0x108 build/Sercom/production/_ext/1664057780/cryptocb.o
 .debug_aranges
                0x00000488       0x20 build/Sercom/production/_ext/1360937237/main.o
 .debug_aranges
                0x000004a8       0x28 build/Sercom/production/_ext/1360937237/app.o
 .debug_aranges
                0x000004d0       0x20 c:/program files/microchip/xc32/v4.21/bin/bin/../../lib/gcc/pic32c/8.3.1/../../../../pic32c/lib/thumb/v8-m.base/nofp\libpic32c.a(data_init_wrapper.o)
 .debug_aranges
                0x000004f0       0x20 c:/program files/microchip/xc32/v4.21/bin/bin/../../lib/gcc/pic32c/8.3.1/../../../../pic32c/lib/thumb/v8-m.base/nofp\libpic32c.a(data_init_0_1.o)
 .debug_aranges
                0x00000510       0x28 c:/program files/microchip/xc32/v4.21/bin/bin/../../lib/gcc/pic32c/8.3.1/../../../../pic32c/lib/thumb/v8-m.base/nofp\libc-musl.a(tolower.o)
 .debug_aranges
                0x00000538       0x28 c:/program files/microchip/xc32/v4.21/bin/bin/../../lib/gcc/pic32c/8.3.1/../../../../pic32c/lib/thumb/v8-m.base/nofp\libc-musl.a(toupper.o)
 .debug_aranges
                0x00000560       0x28 c:/program files/microchip/xc32/v4.21/bin/bin/../../lib/gcc/pic32c/8.3.1/../../../../pic32c/lib/thumb/v8-m.base/nofp\libc-musl.a(__libc_start_main.o)
 .debug_aranges
                0x00000588       0x18 c:/program files/microchip/xc32/v4.21/bin/bin/../../lib/gcc/pic32c/8.3.1/../../../../pic32c/lib/thumb/v8-m.base/nofp\libc-musl.a(libc.o)
 .debug_aranges
                0x000005a0       0x70 c:/program files/microchip/xc32/v4.21/bin/bin/../../lib/gcc/pic32c/8.3.1/../../../../pic32c/lib/thumb/v8-m.base/nofp\libc-musl.a(malloc.o)
 .debug_aranges
                0x00000610       0x20 c:/program files/microchip/xc32/v4.21/bin/bin/../../lib/gcc/pic32c/8.3.1/../../../../pic32c/lib/thumb/v8-m.base/nofp\libc-musl.a(expand_heap.o)
 .debug_aranges
                0x00000630       0x28 c:/program files/microchip/xc32/v4.21/bin/bin/../../lib/gcc/pic32c/8.3.1/../../../../pic32c/lib/thumb/v8-m.base/nofp\libc-musl.a(__sio_sprintf_doux.o)
 .debug_aranges
                0x00000658       0x20 c:/program files/microchip/xc32/v4.21/bin/bin/../../lib/gcc/pic32c/8.3.1/../../../../pic32c/lib/thumb/v8-m.base/nofp\libc-musl.a(__fmt_d.o)
 .debug_aranges
                0x00000678       0x20 c:/program files/microchip/xc32/v4.21/bin/bin/../../lib/gcc/pic32c/8.3.1/../../../../pic32c/lib/thumb/v8-m.base/nofp\libc-musl.a(__fmt_o.o)
 .debug_aranges
                0x00000698       0x20 c:/program files/microchip/xc32/v4.21/bin/bin/../../lib/gcc/pic32c/8.3.1/../../../../pic32c/lib/thumb/v8-m.base/nofp\libc-musl.a(__fmt_s.o)
 .debug_aranges
                0x000006b8       0x28 c:/program files/microchip/xc32/v4.21/bin/bin/../../lib/gcc/pic32c/8.3.1/../../../../pic32c/lib/thumb/v8-m.base/nofp\libc-musl.a(__fmt_u.o)
 .debug_aranges
                0x000006e0       0x20 c:/program files/microchip/xc32/v4.21/bin/bin/../../lib/gcc/pic32c/8.3.1/../../../../pic32c/lib/thumb/v8-m.base/nofp\libc-musl.a(__fmt_x.o)
 .debug_aranges
                0x00000700       0x20 c:/program files/microchip/xc32/v4.21/bin/bin/../../lib/gcc/pic32c/8.3.1/../../../../pic32c/lib/thumb/v8-m.base/nofp\libc-musl.a(__pop_int.o)
 .debug_aranges
                0x00000720       0x20 c:/program files/microchip/xc32/v4.21/bin/bin/../../lib/gcc/pic32c/8.3.1/../../../../pic32c/lib/thumb/v8-m.base/nofp\libc-musl.a(__pop_ptr.o)
 .debug_aranges
                0x00000740       0x50 c:/program files/microchip/xc32/v4.21/bin/bin/../../lib/gcc/pic32c/8.3.1/../../../../pic32c/lib/thumb/v8-m.base/nofp\libc-musl.a(__printf_core.o)
 .debug_aranges
                0x00000790       0x28 c:/program files/microchip/xc32/v4.21/bin/bin/../../lib/gcc/pic32c/8.3.1/../../../../pic32c/lib/thumb/v8-m.base/nofp\libc-musl.a(stdin.o)
 .debug_aranges
                0x000007b8       0x30 c:/program files/microchip/xc32/v4.21/bin/bin/../../lib/gcc/pic32c/8.3.1/../../../../pic32c/lib/thumb/v8-m.base/nofp\libc-musl.a(stdout.o)
 .debug_aranges
                0x000007e8       0x20 c:/program files/microchip/xc32/v4.21/bin/bin/../../lib/gcc/pic32c/8.3.1/../../../../pic32c/lib/thumb/v8-m.base/nofp\libc-musl.a(setbuf.o)
 .debug_aranges
                0x00000808       0x20 c:/program files/microchip/xc32/v4.21/bin/bin/../../lib/gcc/pic32c/8.3.1/../../../../pic32c/lib/thumb/v8-m.base/nofp\libc-musl.a(atoi.o)
 .debug_aranges
                0x00000828       0x20 c:/program files/microchip/xc32/v4.21/bin/bin/../../lib/gcc/pic32c/8.3.1/../../../../pic32c/lib/thumb/v8-m.base/nofp\libc-musl.a(memcpy.o)
 .debug_aranges
                0x00000848       0x20 c:/program files/microchip/xc32/v4.21/bin/bin/../../lib/gcc/pic32c/8.3.1/../../../../pic32c/lib/thumb/v8-m.base/nofp\libc-musl.a(memset.o)
 .debug_aranges
                0x00000868       0x20 c:/program files/microchip/xc32/v4.21/bin/bin/../../lib/gcc/pic32c/8.3.1/../../../../pic32c/lib/thumb/v8-m.base/nofp\libc-musl.a(strlen.o)
 .debug_aranges
                0x00000888       0x18 c:/program files/microchip/xc32/v4.21/bin/bin/../../lib/gcc/pic32c/8.3.1/../../../../pic32c/lib/thumb/v8-m.base/nofp\libc-musl.a(__environ.o)
 .debug_aranges
                0x000008a0       0x18 c:/program files/microchip/xc32/v4.21/bin/bin/../../lib/gcc/pic32c/8.3.1/../../../../pic32c/lib/thumb/v8-m.base/nofp\libc-musl.a(__errno_location.o)
 .debug_aranges
                0x000008b8       0x20 c:/program files/microchip/xc32/v4.21/bin/bin/../../lib/gcc/pic32c/8.3.1/../../../../pic32c/lib/thumb/v8-m.base/nofp\libc-musl.a(__int_vsprintf.o)
 .debug_aranges
                0x000008d8       0x20 c:/program files/microchip/xc32/v4.21/bin/bin/../../lib/gcc/pic32c/8.3.1/../../../../pic32c/lib/thumb/v8-m.base/nofp\libc-musl.a(__pop_float.o)
 .debug_aranges
                0x000008f8       0x20 c:/program files/microchip/xc32/v4.21/bin/bin/../../lib/gcc/pic32c/8.3.1/../../../../pic32c/lib/thumb/v8-m.base/nofp\libc-musl.a(__stdio_read.o)
 .debug_aranges
                0x00000918       0x20 c:/program files/microchip/xc32/v4.21/bin/bin/../../lib/gcc/pic32c/8.3.1/../../../../pic32c/lib/thumb/v8-m.base/nofp\libc-musl.a(__towrite_rw.o)
 .debug_aranges
                0x00000938       0x28 c:/program files/microchip/xc32/v4.21/bin/bin/../../lib/gcc/pic32c/8.3.1/../../../../pic32c/lib/thumb/v8-m.base/nofp\libc-musl.a(setvbuf.o)
 .debug_aranges
                0x00000960       0x20 c:/program files/microchip/xc32/v4.21/bin/bin/../../lib/gcc/pic32c/8.3.1/../../../../pic32c/lib/thumb/v8-m.base/nofp\libc-musl.a(readv.o)
 .debug_aranges
                0x00000980       0x20 c:/program files/microchip/xc32/v4.21/bin/bin/../../lib/gcc/pic32c/8.3.1/../../../../pic32c/lib/thumb/v8-m.base/nofp\libc-musl.a(__int_vsnprintf.o)
 .debug_aranges
                0x000009a0       0x28 c:/program files/microchip/xc32/v4.21/bin/bin/../../lib/gcc/pic32c/8.3.1/../../../../pic32c/lib/thumb/v8-m.base/nofp\libc-musl.a(__init_stdio.o)
 .debug_aranges
                0x000009c8       0x28 c:/program files/microchip/xc32/v4.21/bin/bin/../../lib/gcc/pic32c/8.3.1/../../../../pic32c/lib/thumb/v8-m.base/nofp\libc-musl.a(__out.o)
 .debug_aranges
                0x000009f0       0x30 c:/program files/microchip/xc32/v4.21/bin/bin/../../lib/gcc/pic32c/8.3.1/../../../../pic32c/lib/thumb/v8-m.base/nofp\libc-musl.a(__stderr.o)
 .debug_aranges
                0x00000a20       0x28 c:/program files/microchip/xc32/v4.21/bin/bin/../../lib/gcc/pic32c/8.3.1/../../../../pic32c/lib/thumb/v8-m.base/nofp\libc-musl.a(__stdio_close.o)
 .debug_aranges
                0x00000a48       0x28 c:/program files/microchip/xc32/v4.21/bin/bin/../../lib/gcc/pic32c/8.3.1/../../../../pic32c/lib/thumb/v8-m.base/nofp\libc-musl.a(__stdio_write.o)
 .debug_aranges
                0x00000a70       0x30 c:/program files/microchip/xc32/v4.21/bin/bin/../../lib/gcc/pic32c/8.3.1/../../../../pic32c/lib/thumb/v8-m.base/nofp\libc-musl.a(__stdout.o)
 .debug_aranges
                0x00000aa0       0x28 c:/program files/microchip/xc32/v4.21/bin/bin/../../lib/gcc/pic32c/8.3.1/../../../../pic32c/lib/thumb/v8-m.base/nofp\libc-musl.a(__towrite.o)
 .debug_aranges
                0x00000ac8       0x20 c:/program files/microchip/xc32/v4.21/bin/bin/../../lib/gcc/pic32c/8.3.1/../../../../pic32c/lib/thumb/v8-m.base/nofp\libc-musl.a(writev.o)
 .debug_aranges
                0x00000ae8       0x20 c:/program files/microchip/xc32/v4.21/bin/bin/../../lib/gcc/pic32c/8.3.1/../../../../pic32c/lib/thumb/v8-m.base/nofp\libc-musl.a(__int_vfprintf.o)
 .debug_aranges
                0x00000b08       0x28 c:/program files/microchip/xc32/v4.21/bin/bin/../../lib/gcc/pic32c/8.3.1/../../../../pic32c/lib/thumb/v8-m.base/nofp\libc-musl.a(__fwrite.o)
 .debug_aranges
                0x00000b30       0x20 c:/program files/microchip/xc32/v4.21/bin/bin/../../lib/gcc/pic32c/8.3.1/thumb/v8-m.base/nofp\libgcc.a(_lshrdi3.o)
 .debug_aranges
                0x00000b50       0x20 c:/program files/microchip/xc32/v4.21/bin/bin/../../lib/gcc/pic32c/8.3.1/thumb/v8-m.base/nofp\libgcc.a(_ashldi3.o)
 .debug_aranges
                0x00000b70       0x20 c:/program files/microchip/xc32/v4.21/bin/bin/../../lib/gcc/pic32c/8.3.1/thumb/v8-m.base/nofp\libgcc.a(_aeabi_uldivmod.o)
 .debug_aranges
                0x00000b90       0x20 c:/program files/microchip/xc32/v4.21/bin/bin/../../lib/gcc/pic32c/8.3.1/thumb/v8-m.base/nofp\libgcc.a(_muldi3.o)
 .debug_aranges
                0x00000bb0       0x20 c:/program files/microchip/xc32/v4.21/bin/bin/../../lib/gcc/pic32c/8.3.1/thumb/v8-m.base/nofp\libgcc.a(_udivmoddi4.o)
 .debug_aranges
                0x00000bd0       0x20 c:/program files/microchip/xc32/v4.21/bin/bin/../../lib/gcc/pic32c/8.3.1/thumb/v8-m.base/nofp\libgcc.a(_dvmd_tls.o)
 .debug_aranges
                0x00000bf0       0x20 c:/program files/microchip/xc32/v4.21/bin/bin/../../lib/gcc/pic32c/8.3.1/thumb/v8-m.base/nofp\libgcc.a(_clzsi2.o)
 .debug_aranges
                0x00000c10       0x20 c:/program files/microchip/xc32/v4.21/bin/bin/../../lib/gcc/pic32c/8.3.1/../../../../pic32c/lib/thumb/v8-m.base/nofp\libpic32c.a(close.o)
 .debug_aranges
                0x00000c30       0x20 c:/program files/microchip/xc32/v4.21/bin/bin/../../lib/gcc/pic32c/8.3.1/../../../../pic32c/lib/thumb/v8-m.base/nofp\libpic32c.a(lseek.o)
 .debug_aranges
                0x00000c50       0x20 c:/program files/microchip/xc32/v4.21/bin/bin/../../lib/gcc/pic32c/8.3.1/../../../../pic32c/lib/thumb/v8-m.base/nofp\libpic32c.a(read.o)
 .debug_aranges
                0x00000c70       0x20 c:/program files/microchip/xc32/v4.21/bin/bin/../../lib/gcc/pic32c/8.3.1/../../../../pic32c/lib/thumb/v8-m.base/nofp\libpic32c.a(sbrk.o)
 .debug_aranges
                0x00000c90       0x20 c:/program files/microchip/xc32/v4.21/bin/bin/../../lib/gcc/pic32c/8.3.1/../../../../pic32c/lib/thumb/v8-m.base/nofp\libpic32c.a(write.o)
 .debug_aranges
                0x00000cb0       0x20 c:/program files/microchip/xc32/v4.21/bin/bin/../../lib/gcc/pic32c/8.3.1/../../../../pic32c/lib/thumb/v8-m.base/nofp\libpic32c.a(_mon_getc.o)
 .debug_aranges
                0x00000cd0       0x20 c:/program files/microchip/xc32/v4.21/bin/bin/../../lib/gcc/pic32c/8.3.1/../../../../pic32c/lib/thumb/v8-m.base/nofp\libpic32c.a(_mon_putc.o)

.debug_ranges   0x00000000      0xdb8
 .debug_ranges  0x00000000       0x28 build/Sercom/production/_ext/302508358/plib_nvic.o
 .debug_ranges  0x00000028       0x58 build/Sercom/production/_ext/1582435769/plib_tc0.o
 .debug_ranges  0x00000080       0x68 build/Sercom/production/_ext/1582435769/plib_tc2.o
 .debug_ranges  0x000000e8       0x18 build/Sercom/production/_ext/302333297/plib_trng.o
 .debug_ranges  0x00000100       0x48 build/Sercom/production/_ext/10618399/sys_int.o
 .debug_ranges  0x00000148      0x1a0 build/Sercom/production/_ext/2025105575/sys_time.o
 .debug_ranges  0x000002e8       0x18 build/Sercom/production/_ext/1491116340/exceptions.o
 .debug_ranges  0x00000300       0x10 build/Sercom/production/_ext/1491116340/initialization.o
 .debug_ranges  0x00000310       0x18 build/Sercom/production/_ext/1491116340/startup_xc32.o
 .debug_ranges  0x00000328       0x10 build/Sercom/production/_ext/1491116340/interrupts.o
 .debug_ranges  0x00000338       0x10 build/Sercom/production/_ext/1491116340/tasks.o
 .debug_ranges  0x00000348       0x18 build/Sercom/production/_ext/172253694/crypt_wolfcryptcb.o
 .debug_ranges  0x00000360      0x398 build/Sercom/production/_ext/1664057780/cryptocb.o
 .debug_ranges  0x000006f8       0x28 build/Sercom/production/_ext/1360937237/main.o
 .debug_ranges  0x00000720       0x18 build/Sercom/production/_ext/1360937237/app.o
 .debug_ranges  0x00000738       0x10 c:/program files/microchip/xc32/v4.21/bin/bin/../../lib/gcc/pic32c/8.3.1/../../../../pic32c/lib/thumb/v8-m.base/nofp\libpic32c.a(data_init_wrapper.o)
 .debug_ranges  0x00000748       0x10 c:/program files/microchip/xc32/v4.21/bin/bin/../../lib/gcc/pic32c/8.3.1/../../../../pic32c/lib/thumb/v8-m.base/nofp\libpic32c.a(data_init_0_1.o)
 .debug_ranges  0x00000758       0x18 c:/program files/microchip/xc32/v4.21/bin/bin/../../lib/gcc/pic32c/8.3.1/../../../../pic32c/lib/thumb/v8-m.base/nofp\libc-musl.a(tolower.o)
 .debug_ranges  0x00000770       0x18 c:/program files/microchip/xc32/v4.21/bin/bin/../../lib/gcc/pic32c/8.3.1/../../../../pic32c/lib/thumb/v8-m.base/nofp\libc-musl.a(toupper.o)
 .debug_ranges  0x00000788       0x38 c:/program files/microchip/xc32/v4.21/bin/bin/../../lib/gcc/pic32c/8.3.1/../../../../pic32c/lib/thumb/v8-m.base/nofp\libc-musl.a(__libc_start_main.o)
 .debug_ranges  0x000007c0      0x1b0 c:/program files/microchip/xc32/v4.21/bin/bin/../../lib/gcc/pic32c/8.3.1/../../../../pic32c/lib/thumb/v8-m.base/nofp\libc-musl.a(malloc.o)
 .debug_ranges  0x00000970       0x10 c:/program files/microchip/xc32/v4.21/bin/bin/../../lib/gcc/pic32c/8.3.1/../../../../pic32c/lib/thumb/v8-m.base/nofp\libc-musl.a(expand_heap.o)
 .debug_ranges  0x00000980       0x18 c:/program files/microchip/xc32/v4.21/bin/bin/../../lib/gcc/pic32c/8.3.1/../../../../pic32c/lib/thumb/v8-m.base/nofp\libc-musl.a(__sio_sprintf_doux.o)
 .debug_ranges  0x00000998       0x10 c:/program files/microchip/xc32/v4.21/bin/bin/../../lib/gcc/pic32c/8.3.1/../../../../pic32c/lib/thumb/v8-m.base/nofp\libc-musl.a(__fmt_d.o)
 .debug_ranges  0x000009a8       0x10 c:/program files/microchip/xc32/v4.21/bin/bin/../../lib/gcc/pic32c/8.3.1/../../../../pic32c/lib/thumb/v8-m.base/nofp\libc-musl.a(__fmt_o.o)
 .debug_ranges  0x000009b8       0x10 c:/program files/microchip/xc32/v4.21/bin/bin/../../lib/gcc/pic32c/8.3.1/../../../../pic32c/lib/thumb/v8-m.base/nofp\libc-musl.a(__fmt_s.o)
 .debug_ranges  0x000009c8       0x18 c:/program files/microchip/xc32/v4.21/bin/bin/../../lib/gcc/pic32c/8.3.1/../../../../pic32c/lib/thumb/v8-m.base/nofp\libc-musl.a(__fmt_u.o)
 .debug_ranges  0x000009e0       0x10 c:/program files/microchip/xc32/v4.21/bin/bin/../../lib/gcc/pic32c/8.3.1/../../../../pic32c/lib/thumb/v8-m.base/nofp\libc-musl.a(__fmt_x.o)
 .debug_ranges  0x000009f0       0x10 c:/program files/microchip/xc32/v4.21/bin/bin/../../lib/gcc/pic32c/8.3.1/../../../../pic32c/lib/thumb/v8-m.base/nofp\libc-musl.a(__pop_int.o)
 .debug_ranges  0x00000a00       0x10 c:/program files/microchip/xc32/v4.21/bin/bin/../../lib/gcc/pic32c/8.3.1/../../../../pic32c/lib/thumb/v8-m.base/nofp\libc-musl.a(__pop_ptr.o)
 .debug_ranges  0x00000a10       0x58 c:/program files/microchip/xc32/v4.21/bin/bin/../../lib/gcc/pic32c/8.3.1/../../../../pic32c/lib/thumb/v8-m.base/nofp\libc-musl.a(__printf_core.o)
 .debug_ranges  0x00000a68       0x18 c:/program files/microchip/xc32/v4.21/bin/bin/../../lib/gcc/pic32c/8.3.1/../../../../pic32c/lib/thumb/v8-m.base/nofp\libc-musl.a(stdin.o)
 .debug_ranges  0x00000a80       0x20 c:/program files/microchip/xc32/v4.21/bin/bin/../../lib/gcc/pic32c/8.3.1/../../../../pic32c/lib/thumb/v8-m.base/nofp\libc-musl.a(stdout.o)
 .debug_ranges  0x00000aa0       0x10 c:/program files/microchip/xc32/v4.21/bin/bin/../../lib/gcc/pic32c/8.3.1/../../../../pic32c/lib/thumb/v8-m.base/nofp\libc-musl.a(setbuf.o)
 .debug_ranges  0x00000ab0       0x10 c:/program files/microchip/xc32/v4.21/bin/bin/../../lib/gcc/pic32c/8.3.1/../../../../pic32c/lib/thumb/v8-m.base/nofp\libc-musl.a(atoi.o)
 .debug_ranges  0x00000ac0       0x10 c:/program files/microchip/xc32/v4.21/bin/bin/../../lib/gcc/pic32c/8.3.1/../../../../pic32c/lib/thumb/v8-m.base/nofp\libc-musl.a(memcpy.o)
 .debug_ranges  0x00000ad0       0x10 c:/program files/microchip/xc32/v4.21/bin/bin/../../lib/gcc/pic32c/8.3.1/../../../../pic32c/lib/thumb/v8-m.base/nofp\libc-musl.a(memset.o)
 .debug_ranges  0x00000ae0       0x10 c:/program files/microchip/xc32/v4.21/bin/bin/../../lib/gcc/pic32c/8.3.1/../../../../pic32c/lib/thumb/v8-m.base/nofp\libc-musl.a(strlen.o)
 .debug_ranges  0x00000af0       0x10 c:/program files/microchip/xc32/v4.21/bin/bin/../../lib/gcc/pic32c/8.3.1/../../../../pic32c/lib/thumb/v8-m.base/nofp\libc-musl.a(__int_vsprintf.o)
 .debug_ranges  0x00000b00       0x10 c:/program files/microchip/xc32/v4.21/bin/bin/../../lib/gcc/pic32c/8.3.1/../../../../pic32c/lib/thumb/v8-m.base/nofp\libc-musl.a(__pop_float.o)
 .debug_ranges  0x00000b10       0x10 c:/program files/microchip/xc32/v4.21/bin/bin/../../lib/gcc/pic32c/8.3.1/../../../../pic32c/lib/thumb/v8-m.base/nofp\libc-musl.a(__stdio_read.o)
 .debug_ranges  0x00000b20       0x10 c:/program files/microchip/xc32/v4.21/bin/bin/../../lib/gcc/pic32c/8.3.1/../../../../pic32c/lib/thumb/v8-m.base/nofp\libc-musl.a(__towrite_rw.o)
 .debug_ranges  0x00000b30       0x18 c:/program files/microchip/xc32/v4.21/bin/bin/../../lib/gcc/pic32c/8.3.1/../../../../pic32c/lib/thumb/v8-m.base/nofp\libc-musl.a(setvbuf.o)
 .debug_ranges  0x00000b48       0x10 c:/program files/microchip/xc32/v4.21/bin/bin/../../lib/gcc/pic32c/8.3.1/../../../../pic32c/lib/thumb/v8-m.base/nofp\libc-musl.a(readv.o)
 .debug_ranges  0x00000b58       0x10 c:/program files/microchip/xc32/v4.21/bin/bin/../../lib/gcc/pic32c/8.3.1/../../../../pic32c/lib/thumb/v8-m.base/nofp\libc-musl.a(__int_vsnprintf.o)
 .debug_ranges  0x00000b68       0x18 c:/program files/microchip/xc32/v4.21/bin/bin/../../lib/gcc/pic32c/8.3.1/../../../../pic32c/lib/thumb/v8-m.base/nofp\libc-musl.a(__init_stdio.o)
 .debug_ranges  0x00000b80       0x18 c:/program files/microchip/xc32/v4.21/bin/bin/../../lib/gcc/pic32c/8.3.1/../../../../pic32c/lib/thumb/v8-m.base/nofp\libc-musl.a(__out.o)
 .debug_ranges  0x00000b98       0x20 c:/program files/microchip/xc32/v4.21/bin/bin/../../lib/gcc/pic32c/8.3.1/../../../../pic32c/lib/thumb/v8-m.base/nofp\libc-musl.a(__stderr.o)
 .debug_ranges  0x00000bb8       0x18 c:/program files/microchip/xc32/v4.21/bin/bin/../../lib/gcc/pic32c/8.3.1/../../../../pic32c/lib/thumb/v8-m.base/nofp\libc-musl.a(__stdio_close.o)
 .debug_ranges  0x00000bd0       0x30 c:/program files/microchip/xc32/v4.21/bin/bin/../../lib/gcc/pic32c/8.3.1/../../../../pic32c/lib/thumb/v8-m.base/nofp\libc-musl.a(__stdio_write.o)
 .debug_ranges  0x00000c00       0x20 c:/program files/microchip/xc32/v4.21/bin/bin/../../lib/gcc/pic32c/8.3.1/../../../../pic32c/lib/thumb/v8-m.base/nofp\libc-musl.a(__stdout.o)
 .debug_ranges  0x00000c20       0x18 c:/program files/microchip/xc32/v4.21/bin/bin/../../lib/gcc/pic32c/8.3.1/../../../../pic32c/lib/thumb/v8-m.base/nofp\libc-musl.a(__towrite.o)
 .debug_ranges  0x00000c38       0x10 c:/program files/microchip/xc32/v4.21/bin/bin/../../lib/gcc/pic32c/8.3.1/../../../../pic32c/lib/thumb/v8-m.base/nofp\libc-musl.a(writev.o)
 .debug_ranges  0x00000c48       0x10 c:/program files/microchip/xc32/v4.21/bin/bin/../../lib/gcc/pic32c/8.3.1/../../../../pic32c/lib/thumb/v8-m.base/nofp\libc-musl.a(__int_vfprintf.o)
 .debug_ranges  0x00000c58       0x18 c:/program files/microchip/xc32/v4.21/bin/bin/../../lib/gcc/pic32c/8.3.1/../../../../pic32c/lib/thumb/v8-m.base/nofp\libc-musl.a(__fwrite.o)
 .debug_ranges  0x00000c70       0x28 c:/program files/microchip/xc32/v4.21/bin/bin/../../lib/gcc/pic32c/8.3.1/thumb/v8-m.base/nofp\libgcc.a(_muldi3.o)
 .debug_ranges  0x00000c98       0xb0 c:/program files/microchip/xc32/v4.21/bin/bin/../../lib/gcc/pic32c/8.3.1/thumb/v8-m.base/nofp\libgcc.a(_udivmoddi4.o)
 .debug_ranges  0x00000d48       0x10 c:/program files/microchip/xc32/v4.21/bin/bin/../../lib/gcc/pic32c/8.3.1/../../../../pic32c/lib/thumb/v8-m.base/nofp\libpic32c.a(close.o)
 .debug_ranges  0x00000d58       0x10 c:/program files/microchip/xc32/v4.21/bin/bin/../../lib/gcc/pic32c/8.3.1/../../../../pic32c/lib/thumb/v8-m.base/nofp\libpic32c.a(lseek.o)
 .debug_ranges  0x00000d68       0x10 c:/program files/microchip/xc32/v4.21/bin/bin/../../lib/gcc/pic32c/8.3.1/../../../../pic32c/lib/thumb/v8-m.base/nofp\libpic32c.a(read.o)
 .debug_ranges  0x00000d78       0x10 c:/program files/microchip/xc32/v4.21/bin/bin/../../lib/gcc/pic32c/8.3.1/../../../../pic32c/lib/thumb/v8-m.base/nofp\libpic32c.a(sbrk.o)
 .debug_ranges  0x00000d88       0x10 c:/program files/microchip/xc32/v4.21/bin/bin/../../lib/gcc/pic32c/8.3.1/../../../../pic32c/lib/thumb/v8-m.base/nofp\libpic32c.a(write.o)
 .debug_ranges  0x00000d98       0x10 c:/program files/microchip/xc32/v4.21/bin/bin/../../lib/gcc/pic32c/8.3.1/../../../../pic32c/lib/thumb/v8-m.base/nofp\libpic32c.a(_mon_getc.o)
 .debug_ranges  0x00000da8       0x10 c:/program files/microchip/xc32/v4.21/bin/bin/../../lib/gcc/pic32c/8.3.1/../../../../pic32c/lib/thumb/v8-m.base/nofp\libpic32c.a(_mon_putc.o)

.debug_line     0x00000000     0x9e5b
 .debug_line    0x00000000      0x280 build/Sercom/production/_ext/302508358/plib_nvic.o
 .debug_line    0x00000280      0x2ef build/Sercom/production/_ext/1582435769/plib_tc0.o
 .debug_line    0x0000056f      0x37a build/Sercom/production/_ext/1582435769/plib_tc2.o
 .debug_line    0x000008e9      0x12f build/Sercom/production/_ext/302333297/plib_trng.o
 .debug_line    0x00000a18      0x2d4 build/Sercom/production/_ext/10618399/sys_int.o
 .debug_line    0x00000cec     0x1220 build/Sercom/production/_ext/2025105575/sys_time.o
 .debug_line    0x00001f0c       0x6d build/Sercom/production/_ext/1491116340/exceptions.o
 .debug_line    0x00001f79      0x311 build/Sercom/production/_ext/1491116340/initialization.o
 .debug_line    0x0000228a      0x156 build/Sercom/production/_ext/1491116340/startup_xc32.o
 .debug_line    0x000023e0       0xb9 build/Sercom/production/_ext/1491116340/interrupts.o
 .debug_line    0x00002499       0x68 build/Sercom/production/_ext/1491116340/tasks.o
 .debug_line    0x00002501      0x15f build/Sercom/production/_ext/172253694/crypt_wolfcryptcb.o
 .debug_line    0x00002660     0x1366 build/Sercom/production/_ext/1664057780/cryptocb.o
 .debug_line    0x000039c6      0x17b build/Sercom/production/_ext/1360937237/main.o
 .debug_line    0x00003b41       0x80 build/Sercom/production/_ext/1360937237/app.o
 .debug_line    0x00003bc1       0xac c:/program files/microchip/xc32/v4.21/bin/bin/../../lib/gcc/pic32c/8.3.1/../../../../pic32c/lib/thumb/v8-m.base/nofp\libpic32c.a(data_init_wrapper.o)
 .debug_line    0x00003c6d      0x119 c:/program files/microchip/xc32/v4.21/bin/bin/../../lib/gcc/pic32c/8.3.1/../../../../pic32c/lib/thumb/v8-m.base/nofp\libpic32c.a(data_init_0_1.o)
 .debug_line    0x00003d86      0x16a c:/program files/microchip/xc32/v4.21/bin/bin/../../lib/gcc/pic32c/8.3.1/../../../../pic32c/lib/thumb/v8-m.base/nofp\libc-musl.a(tolower.o)
 .debug_line    0x00003ef0      0x16a c:/program files/microchip/xc32/v4.21/bin/bin/../../lib/gcc/pic32c/8.3.1/../../../../pic32c/lib/thumb/v8-m.base/nofp\libc-musl.a(toupper.o)
 .debug_line    0x0000405a      0x1cd c:/program files/microchip/xc32/v4.21/bin/bin/../../lib/gcc/pic32c/8.3.1/../../../../pic32c/lib/thumb/v8-m.base/nofp\libc-musl.a(__libc_start_main.o)
 .debug_line    0x00004227       0xbc c:/program files/microchip/xc32/v4.21/bin/bin/../../lib/gcc/pic32c/8.3.1/../../../../pic32c/lib/thumb/v8-m.base/nofp\libc-musl.a(libc.o)
 .debug_line    0x000042e3      0xb16 c:/program files/microchip/xc32/v4.21/bin/bin/../../lib/gcc/pic32c/8.3.1/../../../../pic32c/lib/thumb/v8-m.base/nofp\libc-musl.a(malloc.o)
 .debug_line    0x00004df9       0xf3 c:/program files/microchip/xc32/v4.21/bin/bin/../../lib/gcc/pic32c/8.3.1/../../../../pic32c/lib/thumb/v8-m.base/nofp\libc-musl.a(expand_heap.o)
 .debug_line    0x00004eec      0x1b8 c:/program files/microchip/xc32/v4.21/bin/bin/../../lib/gcc/pic32c/8.3.1/../../../../pic32c/lib/thumb/v8-m.base/nofp\libc-musl.a(__sio_sprintf_doux.o)
 .debug_line    0x000050a4      0x20f c:/program files/microchip/xc32/v4.21/bin/bin/../../lib/gcc/pic32c/8.3.1/../../../../pic32c/lib/thumb/v8-m.base/nofp\libc-musl.a(__fmt_d.o)
 .debug_line    0x000052b3      0x1c4 c:/program files/microchip/xc32/v4.21/bin/bin/../../lib/gcc/pic32c/8.3.1/../../../../pic32c/lib/thumb/v8-m.base/nofp\libc-musl.a(__fmt_o.o)
 .debug_line    0x00005477      0x219 c:/program files/microchip/xc32/v4.21/bin/bin/../../lib/gcc/pic32c/8.3.1/../../../../pic32c/lib/thumb/v8-m.base/nofp\libc-musl.a(__fmt_s.o)
 .debug_line    0x00005690      0x241 c:/program files/microchip/xc32/v4.21/bin/bin/../../lib/gcc/pic32c/8.3.1/../../../../pic32c/lib/thumb/v8-m.base/nofp\libc-musl.a(__fmt_u.o)
 .debug_line    0x000058d1      0x301 c:/program files/microchip/xc32/v4.21/bin/bin/../../lib/gcc/pic32c/8.3.1/../../../../pic32c/lib/thumb/v8-m.base/nofp\libc-musl.a(__fmt_x.o)
 .debug_line    0x00005bd2      0x21f c:/program files/microchip/xc32/v4.21/bin/bin/../../lib/gcc/pic32c/8.3.1/../../../../pic32c/lib/thumb/v8-m.base/nofp\libc-musl.a(__pop_int.o)
 .debug_line    0x00005df1      0x1d6 c:/program files/microchip/xc32/v4.21/bin/bin/../../lib/gcc/pic32c/8.3.1/../../../../pic32c/lib/thumb/v8-m.base/nofp\libc-musl.a(__pop_ptr.o)
 .debug_line    0x00005fc7      0x6e7 c:/program files/microchip/xc32/v4.21/bin/bin/../../lib/gcc/pic32c/8.3.1/../../../../pic32c/lib/thumb/v8-m.base/nofp\libc-musl.a(__printf_core.o)
 .debug_line    0x000066ae      0x1e4 c:/program files/microchip/xc32/v4.21/bin/bin/../../lib/gcc/pic32c/8.3.1/../../../../pic32c/lib/thumb/v8-m.base/nofp\libc-musl.a(stdin.o)
 .debug_line    0x00006892      0x19f c:/program files/microchip/xc32/v4.21/bin/bin/../../lib/gcc/pic32c/8.3.1/../../../../pic32c/lib/thumb/v8-m.base/nofp\libc-musl.a(stdout.o)
 .debug_line    0x00006a31      0x141 c:/program files/microchip/xc32/v4.21/bin/bin/../../lib/gcc/pic32c/8.3.1/../../../../pic32c/lib/thumb/v8-m.base/nofp\libc-musl.a(setbuf.o)
 .debug_line    0x00006b72      0x181 c:/program files/microchip/xc32/v4.21/bin/bin/../../lib/gcc/pic32c/8.3.1/../../../../pic32c/lib/thumb/v8-m.base/nofp\libc-musl.a(atoi.o)
 .debug_line    0x00006cf3       0xf4 c:/program files/microchip/xc32/v4.21/bin/bin/../../lib/gcc/pic32c/8.3.1/../../../../pic32c/lib/thumb/v8-m.base/nofp\libc-musl.a(memcpy.o)
 .debug_line    0x00006de7       0xe8 c:/program files/microchip/xc32/v4.21/bin/bin/../../lib/gcc/pic32c/8.3.1/../../../../pic32c/lib/thumb/v8-m.base/nofp\libc-musl.a(memset.o)
 .debug_line    0x00006ecf       0xef c:/program files/microchip/xc32/v4.21/bin/bin/../../lib/gcc/pic32c/8.3.1/../../../../pic32c/lib/thumb/v8-m.base/nofp\libc-musl.a(strlen.o)
 .debug_line    0x00006fbe      0x109 c:/program files/microchip/xc32/v4.21/bin/bin/../../lib/gcc/pic32c/8.3.1/../../../../pic32c/lib/thumb/v8-m.base/nofp\libc-musl.a(__environ.o)
 .debug_line    0x000070c7       0xa1 c:/program files/microchip/xc32/v4.21/bin/bin/../../lib/gcc/pic32c/8.3.1/../../../../pic32c/lib/thumb/v8-m.base/nofp\libc-musl.a(__errno_location.o)
 .debug_line    0x00007168      0x161 c:/program files/microchip/xc32/v4.21/bin/bin/../../lib/gcc/pic32c/8.3.1/../../../../pic32c/lib/thumb/v8-m.base/nofp\libc-musl.a(__int_vsprintf.o)
 .debug_line    0x000072c9      0x174 c:/program files/microchip/xc32/v4.21/bin/bin/../../lib/gcc/pic32c/8.3.1/../../../../pic32c/lib/thumb/v8-m.base/nofp\libc-musl.a(__pop_float.o)
 .debug_line    0x0000743d      0x255 c:/program files/microchip/xc32/v4.21/bin/bin/../../lib/gcc/pic32c/8.3.1/../../../../pic32c/lib/thumb/v8-m.base/nofp\libc-musl.a(__stdio_read.o)
 .debug_line    0x00007692      0x200 c:/program files/microchip/xc32/v4.21/bin/bin/../../lib/gcc/pic32c/8.3.1/../../../../pic32c/lib/thumb/v8-m.base/nofp\libc-musl.a(__towrite_rw.o)
 .debug_line    0x00007892      0x237 c:/program files/microchip/xc32/v4.21/bin/bin/../../lib/gcc/pic32c/8.3.1/../../../../pic32c/lib/thumb/v8-m.base/nofp\libc-musl.a(setvbuf.o)
 .debug_line    0x00007ac9      0x166 c:/program files/microchip/xc32/v4.21/bin/bin/../../lib/gcc/pic32c/8.3.1/../../../../pic32c/lib/thumb/v8-m.base/nofp\libc-musl.a(readv.o)
 .debug_line    0x00007c2f      0x1d2 c:/program files/microchip/xc32/v4.21/bin/bin/../../lib/gcc/pic32c/8.3.1/../../../../pic32c/lib/thumb/v8-m.base/nofp\libc-musl.a(__int_vsnprintf.o)
 .debug_line    0x00007e01       0xd7 c:/program files/microchip/xc32/v4.21/bin/bin/../../lib/gcc/pic32c/8.3.1/../../../../pic32c/lib/thumb/v8-m.base/nofp\libc-musl.a(__init_stdio.o)
 .debug_line    0x00007ed8      0x23b c:/program files/microchip/xc32/v4.21/bin/bin/../../lib/gcc/pic32c/8.3.1/../../../../pic32c/lib/thumb/v8-m.base/nofp\libc-musl.a(__out.o)
 .debug_line    0x00008113      0x1ef c:/program files/microchip/xc32/v4.21/bin/bin/../../lib/gcc/pic32c/8.3.1/../../../../pic32c/lib/thumb/v8-m.base/nofp\libc-musl.a(__stderr.o)
 .debug_line    0x00008302      0x2f6 c:/program files/microchip/xc32/v4.21/bin/bin/../../lib/gcc/pic32c/8.3.1/../../../../pic32c/lib/thumb/v8-m.base/nofp\libc-musl.a(__stdio_close.o)
 .debug_line    0x000085f8      0x34e c:/program files/microchip/xc32/v4.21/bin/bin/../../lib/gcc/pic32c/8.3.1/../../../../pic32c/lib/thumb/v8-m.base/nofp\libc-musl.a(__stdio_write.o)
 .debug_line    0x00008946      0x1ef c:/program files/microchip/xc32/v4.21/bin/bin/../../lib/gcc/pic32c/8.3.1/../../../../pic32c/lib/thumb/v8-m.base/nofp\libc-musl.a(__stdout.o)
 .debug_line    0x00008b35      0x18e c:/program files/microchip/xc32/v4.21/bin/bin/../../lib/gcc/pic32c/8.3.1/../../../../pic32c/lib/thumb/v8-m.base/nofp\libc-musl.a(__towrite.o)
 .debug_line    0x00008cc3      0x167 c:/program files/microchip/xc32/v4.21/bin/bin/../../lib/gcc/pic32c/8.3.1/../../../../pic32c/lib/thumb/v8-m.base/nofp\libc-musl.a(writev.o)
 .debug_line    0x00008e2a      0x180 c:/program files/microchip/xc32/v4.21/bin/bin/../../lib/gcc/pic32c/8.3.1/../../../../pic32c/lib/thumb/v8-m.base/nofp\libc-musl.a(__int_vfprintf.o)
 .debug_line    0x00008faa      0x1f5 c:/program files/microchip/xc32/v4.21/bin/bin/../../lib/gcc/pic32c/8.3.1/../../../../pic32c/lib/thumb/v8-m.base/nofp\libc-musl.a(__fwrite.o)
 .debug_line    0x0000919f       0xa3 c:/program files/microchip/xc32/v4.21/bin/bin/../../lib/gcc/pic32c/8.3.1/thumb/v8-m.base/nofp\libgcc.a(_lshrdi3.o)
 .debug_line    0x00009242       0xa3 c:/program files/microchip/xc32/v4.21/bin/bin/../../lib/gcc/pic32c/8.3.1/thumb/v8-m.base/nofp\libgcc.a(_ashldi3.o)
 .debug_line    0x000092e5       0xa3 c:/program files/microchip/xc32/v4.21/bin/bin/../../lib/gcc/pic32c/8.3.1/thumb/v8-m.base/nofp\libgcc.a(_aeabi_uldivmod.o)
 .debug_line    0x00009388       0xee c:/program files/microchip/xc32/v4.21/bin/bin/../../lib/gcc/pic32c/8.3.1/thumb/v8-m.base/nofp\libgcc.a(_muldi3.o)
 .debug_line    0x00009476      0x3e4 c:/program files/microchip/xc32/v4.21/bin/bin/../../lib/gcc/pic32c/8.3.1/thumb/v8-m.base/nofp\libgcc.a(_udivmoddi4.o)
 .debug_line    0x0000985a       0x98 c:/program files/microchip/xc32/v4.21/bin/bin/../../lib/gcc/pic32c/8.3.1/thumb/v8-m.base/nofp\libgcc.a(_dvmd_tls.o)
 .debug_line    0x000098f2       0xac c:/program files/microchip/xc32/v4.21/bin/bin/../../lib/gcc/pic32c/8.3.1/thumb/v8-m.base/nofp\libgcc.a(_clzsi2.o)
 .debug_line    0x0000999e       0xa0 c:/program files/microchip/xc32/v4.21/bin/bin/../../lib/gcc/pic32c/8.3.1/../../../../pic32c/lib/thumb/v8-m.base/nofp\libpic32c.a(close.o)
 .debug_line    0x00009a3e       0x9d c:/program files/microchip/xc32/v4.21/bin/bin/../../lib/gcc/pic32c/8.3.1/../../../../pic32c/lib/thumb/v8-m.base/nofp\libpic32c.a(lseek.o)
 .debug_line    0x00009adb       0xbe c:/program files/microchip/xc32/v4.21/bin/bin/../../lib/gcc/pic32c/8.3.1/../../../../pic32c/lib/thumb/v8-m.base/nofp\libpic32c.a(read.o)
 .debug_line    0x00009b99       0xbc c:/program files/microchip/xc32/v4.21/bin/bin/../../lib/gcc/pic32c/8.3.1/../../../../pic32c/lib/thumb/v8-m.base/nofp\libpic32c.a(sbrk.o)
 .debug_line    0x00009c55       0xc8 c:/program files/microchip/xc32/v4.21/bin/bin/../../lib/gcc/pic32c/8.3.1/../../../../pic32c/lib/thumb/v8-m.base/nofp\libpic32c.a(write.o)
 .debug_line    0x00009d1d       0x9f c:/program files/microchip/xc32/v4.21/bin/bin/../../lib/gcc/pic32c/8.3.1/../../../../pic32c/lib/thumb/v8-m.base/nofp\libpic32c.a(_mon_getc.o)
 .debug_line    0x00009dbc       0x9f c:/program files/microchip/xc32/v4.21/bin/bin/../../lib/gcc/pic32c/8.3.1/../../../../pic32c/lib/thumb/v8-m.base/nofp\libpic32c.a(_mon_putc.o)

.debug_str      0x00000000      0xbfa
 .debug_str     0x00000000        0x0 build/Sercom/production/_ext/302508358/plib_nvic.o
 .debug_str     0x00000000       0xc3 build/Sercom/production/_ext/1582435769/plib_tc0.o
 .debug_str     0x000000c3       0xd4 build/Sercom/production/_ext/1582435769/plib_tc2.o
 .debug_str     0x00000197        0x0 build/Sercom/production/_ext/302333297/plib_trng.o
 .debug_str     0x00000197       0x32 build/Sercom/production/_ext/10618399/sys_int.o
 .debug_str     0x000001c9      0x14c build/Sercom/production/_ext/2025105575/sys_time.o
 .debug_str     0x00000315        0x0 build/Sercom/production/_ext/1491116340/exceptions.o
 .debug_str     0x00000315       0x81 build/Sercom/production/_ext/1491116340/initialization.o
 .debug_str     0x00000396       0x2f build/Sercom/production/_ext/1491116340/startup_xc32.o
 .debug_str     0x000003c5        0x0 build/Sercom/production/_ext/1491116340/interrupts.o
 .debug_str     0x000003c5        0xa build/Sercom/production/_ext/1491116340/tasks.o
 .debug_str     0x000003cf       0xbb build/Sercom/production/_ext/172253694/crypt_wolfcryptcb.o
 .debug_str     0x0000048a       0xf7 build/Sercom/production/_ext/1664057780/cryptocb.o
 .debug_str     0x00000581       0x91 build/Sercom/production/_ext/1360937237/main.o
 .debug_str     0x00000612        0x0 build/Sercom/production/_ext/1360937237/app.o
 .debug_str     0x00000612        0x0 c:/program files/microchip/xc32/v4.21/bin/bin/../../lib/gcc/pic32c/8.3.1/../../../../pic32c/lib/thumb/v8-m.base/nofp\libpic32c.a(data_init_wrapper.o)
 .debug_str     0x00000612        0x0 c:/program files/microchip/xc32/v4.21/bin/bin/../../lib/gcc/pic32c/8.3.1/../../../../pic32c/lib/thumb/v8-m.base/nofp\libpic32c.a(data_init_0_1.o)
 .debug_str     0x00000612        0x0 c:/program files/microchip/xc32/v4.21/bin/bin/../../lib/gcc/pic32c/8.3.1/../../../../pic32c/lib/thumb/v8-m.base/nofp\libc-musl.a(tolower.o)
 .debug_str     0x00000612        0x0 c:/program files/microchip/xc32/v4.21/bin/bin/../../lib/gcc/pic32c/8.3.1/../../../../pic32c/lib/thumb/v8-m.base/nofp\libc-musl.a(toupper.o)
 .debug_str     0x00000612        0x0 c:/program files/microchip/xc32/v4.21/bin/bin/../../lib/gcc/pic32c/8.3.1/../../../../pic32c/lib/thumb/v8-m.base/nofp\libc-musl.a(__libc_start_main.o)
 .debug_str     0x00000612        0x0 c:/program files/microchip/xc32/v4.21/bin/bin/../../lib/gcc/pic32c/8.3.1/../../../../pic32c/lib/thumb/v8-m.base/nofp\libc-musl.a(libc.o)
 .debug_str     0x00000612       0x13 c:/program files/microchip/xc32/v4.21/bin/bin/../../lib/gcc/pic32c/8.3.1/../../../../pic32c/lib/thumb/v8-m.base/nofp\libc-musl.a(malloc.o)
 .debug_str     0x00000625        0x0 c:/program files/microchip/xc32/v4.21/bin/bin/../../lib/gcc/pic32c/8.3.1/../../../../pic32c/lib/thumb/v8-m.base/nofp\libc-musl.a(expand_heap.o)
 .debug_str     0x00000625       0x78 c:/program files/microchip/xc32/v4.21/bin/bin/../../lib/gcc/pic32c/8.3.1/../../../../pic32c/lib/thumb/v8-m.base/nofp\libc-musl.a(__sio_sprintf_doux.o)
 .debug_str     0x0000069d        0x0 c:/program files/microchip/xc32/v4.21/bin/bin/../../lib/gcc/pic32c/8.3.1/../../../../pic32c/lib/thumb/v8-m.base/nofp\libc-musl.a(__fmt_d.o)
 .debug_str     0x0000069d        0x0 c:/program files/microchip/xc32/v4.21/bin/bin/../../lib/gcc/pic32c/8.3.1/../../../../pic32c/lib/thumb/v8-m.base/nofp\libc-musl.a(__fmt_o.o)
 .debug_str     0x0000069d        0x0 c:/program files/microchip/xc32/v4.21/bin/bin/../../lib/gcc/pic32c/8.3.1/../../../../pic32c/lib/thumb/v8-m.base/nofp\libc-musl.a(__fmt_s.o)
 .debug_str     0x0000069d        0x6 c:/program files/microchip/xc32/v4.21/bin/bin/../../lib/gcc/pic32c/8.3.1/../../../../pic32c/lib/thumb/v8-m.base/nofp\libc-musl.a(__fmt_u.o)
 .debug_str     0x000006a3        0x0 c:/program files/microchip/xc32/v4.21/bin/bin/../../lib/gcc/pic32c/8.3.1/../../../../pic32c/lib/thumb/v8-m.base/nofp\libc-musl.a(__fmt_x.o)
 .debug_str     0x000006a3        0x0 c:/program files/microchip/xc32/v4.21/bin/bin/../../lib/gcc/pic32c/8.3.1/../../../../pic32c/lib/thumb/v8-m.base/nofp\libc-musl.a(__pop_int.o)
 .debug_str     0x000006a3        0x0 c:/program files/microchip/xc32/v4.21/bin/bin/../../lib/gcc/pic32c/8.3.1/../../../../pic32c/lib/thumb/v8-m.base/nofp\libc-musl.a(__pop_ptr.o)
 .debug_str     0x000006a3       0x20 c:/program files/microchip/xc32/v4.21/bin/bin/../../lib/gcc/pic32c/8.3.1/../../../../pic32c/lib/thumb/v8-m.base/nofp\libc-musl.a(__printf_core.o)
 .debug_str     0x000006c3        0xf c:/program files/microchip/xc32/v4.21/bin/bin/../../lib/gcc/pic32c/8.3.1/../../../../pic32c/lib/thumb/v8-m.base/nofp\libc-musl.a(stdin.o)
 .debug_str     0x000006d2       0x11 c:/program files/microchip/xc32/v4.21/bin/bin/../../lib/gcc/pic32c/8.3.1/../../../../pic32c/lib/thumb/v8-m.base/nofp\libc-musl.a(stdout.o)
 .debug_str     0x000006e3        0x0 c:/program files/microchip/xc32/v4.21/bin/bin/../../lib/gcc/pic32c/8.3.1/../../../../pic32c/lib/thumb/v8-m.base/nofp\libc-musl.a(setbuf.o)
 .debug_str     0x000006e3        0x0 c:/program files/microchip/xc32/v4.21/bin/bin/../../lib/gcc/pic32c/8.3.1/../../../../pic32c/lib/thumb/v8-m.base/nofp\libc-musl.a(atoi.o)
 .debug_str     0x000006e3        0x0 c:/program files/microchip/xc32/v4.21/bin/bin/../../lib/gcc/pic32c/8.3.1/../../../../pic32c/lib/thumb/v8-m.base/nofp\libc-musl.a(memcpy.o)
 .debug_str     0x000006e3        0x0 c:/program files/microchip/xc32/v4.21/bin/bin/../../lib/gcc/pic32c/8.3.1/../../../../pic32c/lib/thumb/v8-m.base/nofp\libc-musl.a(memset.o)
 .debug_str     0x000006e3        0x0 c:/program files/microchip/xc32/v4.21/bin/bin/../../lib/gcc/pic32c/8.3.1/../../../../pic32c/lib/thumb/v8-m.base/nofp\libc-musl.a(strlen.o)
 .debug_str     0x000006e3        0x0 c:/program files/microchip/xc32/v4.21/bin/bin/../../lib/gcc/pic32c/8.3.1/../../../../pic32c/lib/thumb/v8-m.base/nofp\libc-musl.a(__environ.o)
 .debug_str     0x000006e3        0x0 c:/program files/microchip/xc32/v4.21/bin/bin/../../lib/gcc/pic32c/8.3.1/../../../../pic32c/lib/thumb/v8-m.base/nofp\libc-musl.a(__errno_location.o)
 .debug_str     0x000006e3        0xc c:/program files/microchip/xc32/v4.21/bin/bin/../../lib/gcc/pic32c/8.3.1/../../../../pic32c/lib/thumb/v8-m.base/nofp\libc-musl.a(__int_vsprintf.o)
 .debug_str     0x000006ef        0x0 c:/program files/microchip/xc32/v4.21/bin/bin/../../lib/gcc/pic32c/8.3.1/../../../../pic32c/lib/thumb/v8-m.base/nofp\libc-musl.a(__pop_float.o)
 .debug_str     0x000006ef        0x0 c:/program files/microchip/xc32/v4.21/bin/bin/../../lib/gcc/pic32c/8.3.1/../../../../pic32c/lib/thumb/v8-m.base/nofp\libc-musl.a(__stdio_read.o)
 .debug_str     0x000006ef        0x0 c:/program files/microchip/xc32/v4.21/bin/bin/../../lib/gcc/pic32c/8.3.1/../../../../pic32c/lib/thumb/v8-m.base/nofp\libc-musl.a(__towrite_rw.o)
 .debug_str     0x000006ef       0x10 c:/program files/microchip/xc32/v4.21/bin/bin/../../lib/gcc/pic32c/8.3.1/../../../../pic32c/lib/thumb/v8-m.base/nofp\libc-musl.a(setvbuf.o)
 .debug_str     0x000006ff        0x0 c:/program files/microchip/xc32/v4.21/bin/bin/../../lib/gcc/pic32c/8.3.1/../../../../pic32c/lib/thumb/v8-m.base/nofp\libc-musl.a(readv.o)
 .debug_str     0x000006ff        0xb c:/program files/microchip/xc32/v4.21/bin/bin/../../lib/gcc/pic32c/8.3.1/../../../../pic32c/lib/thumb/v8-m.base/nofp\libc-musl.a(__int_vsnprintf.o)
 .debug_str     0x0000070a        0x0 c:/program files/microchip/xc32/v4.21/bin/bin/../../lib/gcc/pic32c/8.3.1/../../../../pic32c/lib/thumb/v8-m.base/nofp\libc-musl.a(__init_stdio.o)
 .debug_str     0x0000070a        0x0 c:/program files/microchip/xc32/v4.21/bin/bin/../../lib/gcc/pic32c/8.3.1/../../../../pic32c/lib/thumb/v8-m.base/nofp\libc-musl.a(__out.o)
 .debug_str     0x0000070a       0x11 c:/program files/microchip/xc32/v4.21/bin/bin/../../lib/gcc/pic32c/8.3.1/../../../../pic32c/lib/thumb/v8-m.base/nofp\libc-musl.a(__stderr.o)
 .debug_str     0x0000071b        0x0 c:/program files/microchip/xc32/v4.21/bin/bin/../../lib/gcc/pic32c/8.3.1/../../../../pic32c/lib/thumb/v8-m.base/nofp\libc-musl.a(__stdio_close.o)
 .debug_str     0x0000071b        0xa c:/program files/microchip/xc32/v4.21/bin/bin/../../lib/gcc/pic32c/8.3.1/../../../../pic32c/lib/thumb/v8-m.base/nofp\libc-musl.a(__stdio_write.o)
 .debug_str     0x00000725       0x11 c:/program files/microchip/xc32/v4.21/bin/bin/../../lib/gcc/pic32c/8.3.1/../../../../pic32c/lib/thumb/v8-m.base/nofp\libc-musl.a(__stdout.o)
 .debug_str     0x00000736        0x0 c:/program files/microchip/xc32/v4.21/bin/bin/../../lib/gcc/pic32c/8.3.1/../../../../pic32c/lib/thumb/v8-m.base/nofp\libc-musl.a(__towrite.o)
 .debug_str     0x00000736        0x0 c:/program files/microchip/xc32/v4.21/bin/bin/../../lib/gcc/pic32c/8.3.1/../../../../pic32c/lib/thumb/v8-m.base/nofp\libc-musl.a(writev.o)
 .debug_str     0x00000736        0xe c:/program files/microchip/xc32/v4.21/bin/bin/../../lib/gcc/pic32c/8.3.1/../../../../pic32c/lib/thumb/v8-m.base/nofp\libc-musl.a(__int_vfprintf.o)
 .debug_str     0x00000744       0x10 c:/program files/microchip/xc32/v4.21/bin/bin/../../lib/gcc/pic32c/8.3.1/../../../../pic32c/lib/thumb/v8-m.base/nofp\libc-musl.a(__fwrite.o)
 .debug_str     0x00000754       0xee c:/program files/microchip/xc32/v4.21/bin/bin/../../lib/gcc/pic32c/8.3.1/thumb/v8-m.base/nofp\libgcc.a(_lshrdi3.o)
 .debug_str     0x00000842       0xee c:/program files/microchip/xc32/v4.21/bin/bin/../../lib/gcc/pic32c/8.3.1/thumb/v8-m.base/nofp\libgcc.a(_ashldi3.o)
 .debug_str     0x00000930       0xee c:/program files/microchip/xc32/v4.21/bin/bin/../../lib/gcc/pic32c/8.3.1/thumb/v8-m.base/nofp\libgcc.a(_aeabi_uldivmod.o)
 .debug_str     0x00000a1e        0x0 c:/program files/microchip/xc32/v4.21/bin/bin/../../lib/gcc/pic32c/8.3.1/thumb/v8-m.base/nofp\libgcc.a(_muldi3.o)
 .debug_str     0x00000a1e        0x0 c:/program files/microchip/xc32/v4.21/bin/bin/../../lib/gcc/pic32c/8.3.1/thumb/v8-m.base/nofp\libgcc.a(_udivmoddi4.o)
 .debug_str     0x00000a1e       0xee c:/program files/microchip/xc32/v4.21/bin/bin/../../lib/gcc/pic32c/8.3.1/thumb/v8-m.base/nofp\libgcc.a(_dvmd_tls.o)
 .debug_str     0x00000b0c       0xee c:/program files/microchip/xc32/v4.21/bin/bin/../../lib/gcc/pic32c/8.3.1/thumb/v8-m.base/nofp\libgcc.a(_clzsi2.o)
 .debug_str     0x00000bfa        0x0 c:/program files/microchip/xc32/v4.21/bin/bin/../../lib/gcc/pic32c/8.3.1/../../../../pic32c/lib/thumb/v8-m.base/nofp\libpic32c.a(close.o)
 .debug_str     0x00000bfa        0x0 c:/program files/microchip/xc32/v4.21/bin/bin/../../lib/gcc/pic32c/8.3.1/../../../../pic32c/lib/thumb/v8-m.base/nofp\libpic32c.a(lseek.o)
 .debug_str     0x00000bfa        0x0 c:/program files/microchip/xc32/v4.21/bin/bin/../../lib/gcc/pic32c/8.3.1/../../../../pic32c/lib/thumb/v8-m.base/nofp\libpic32c.a(read.o)
 .debug_str     0x00000bfa        0x0 c:/program files/microchip/xc32/v4.21/bin/bin/../../lib/gcc/pic32c/8.3.1/../../../../pic32c/lib/thumb/v8-m.base/nofp\libpic32c.a(sbrk.o)
 .debug_str     0x00000bfa        0x0 c:/program files/microchip/xc32/v4.21/bin/bin/../../lib/gcc/pic32c/8.3.1/../../../../pic32c/lib/thumb/v8-m.base/nofp\libpic32c.a(write.o)
 .debug_str     0x00000bfa        0x0 c:/program files/microchip/xc32/v4.21/bin/bin/../../lib/gcc/pic32c/8.3.1/../../../../pic32c/lib/thumb/v8-m.base/nofp\libpic32c.a(_mon_getc.o)
 .debug_str     0x00000bfa        0x0 c:/program files/microchip/xc32/v4.21/bin/bin/../../lib/gcc/pic32c/8.3.1/../../../../pic32c/lib/thumb/v8-m.base/nofp\libpic32c.a(_mon_putc.o)

.debug_frame    0x00000000     0x1658
 .debug_frame   0x00000000       0x50 build/Sercom/production/_ext/302508358/plib_nvic.o
 .debug_frame   0x00000050       0xb0 build/Sercom/production/_ext/1582435769/plib_tc0.o
 .debug_frame   0x00000100       0xd8 build/Sercom/production/_ext/1582435769/plib_tc2.o
 .debug_frame   0x000001d8       0x30 build/Sercom/production/_ext/302333297/plib_trng.o
 .debug_frame   0x00000208       0x84 build/Sercom/production/_ext/10618399/sys_int.o
 .debug_frame   0x0000028c      0x3a4 build/Sercom/production/_ext/2025105575/sys_time.o
 .debug_frame   0x00000630       0x30 build/Sercom/production/_ext/1491116340/exceptions.o
 .debug_frame   0x00000660       0x28 build/Sercom/production/_ext/1491116340/initialization.o
 .debug_frame   0x00000688       0x38 build/Sercom/production/_ext/1491116340/startup_xc32.o
 .debug_frame   0x000006c0       0x20 build/Sercom/production/_ext/1491116340/interrupts.o
 .debug_frame   0x000006e0       0x28 build/Sercom/production/_ext/1491116340/tasks.o
 .debug_frame   0x00000708       0x38 build/Sercom/production/_ext/172253694/crypt_wolfcryptcb.o
 .debug_frame   0x00000740      0x394 build/Sercom/production/_ext/1664057780/cryptocb.o
 .debug_frame   0x00000ad4       0x30 build/Sercom/production/_ext/1360937237/main.o
 .debug_frame   0x00000b04       0x30 build/Sercom/production/_ext/1360937237/app.o
 .debug_frame   0x00000b34       0x28 c:/program files/microchip/xc32/v4.21/bin/bin/../../lib/gcc/pic32c/8.3.1/../../../../pic32c/lib/thumb/v8-m.base/nofp\libpic32c.a(data_init_wrapper.o)
 .debug_frame   0x00000b5c       0x30 c:/program files/microchip/xc32/v4.21/bin/bin/../../lib/gcc/pic32c/8.3.1/../../../../pic32c/lib/thumb/v8-m.base/nofp\libpic32c.a(data_init_0_1.o)
 .debug_frame   0x00000b8c       0x38 c:/program files/microchip/xc32/v4.21/bin/bin/../../lib/gcc/pic32c/8.3.1/../../../../pic32c/lib/thumb/v8-m.base/nofp\libc-musl.a(tolower.o)
 .debug_frame   0x00000bc4       0x38 c:/program files/microchip/xc32/v4.21/bin/bin/../../lib/gcc/pic32c/8.3.1/../../../../pic32c/lib/thumb/v8-m.base/nofp\libc-musl.a(toupper.o)
 .debug_frame   0x00000bfc       0x38 c:/program files/microchip/xc32/v4.21/bin/bin/../../lib/gcc/pic32c/8.3.1/../../../../pic32c/lib/thumb/v8-m.base/nofp\libc-musl.a(__libc_start_main.o)
 .debug_frame   0x00000c34      0x140 c:/program files/microchip/xc32/v4.21/bin/bin/../../lib/gcc/pic32c/8.3.1/../../../../pic32c/lib/thumb/v8-m.base/nofp\libc-musl.a(malloc.o)
 .debug_frame   0x00000d74       0x28 c:/program files/microchip/xc32/v4.21/bin/bin/../../lib/gcc/pic32c/8.3.1/../../../../pic32c/lib/thumb/v8-m.base/nofp\libc-musl.a(expand_heap.o)
 .debug_frame   0x00000d9c       0x44 c:/program files/microchip/xc32/v4.21/bin/bin/../../lib/gcc/pic32c/8.3.1/../../../../pic32c/lib/thumb/v8-m.base/nofp\libc-musl.a(__sio_sprintf_doux.o)
 .debug_frame   0x00000de0       0x30 c:/program files/microchip/xc32/v4.21/bin/bin/../../lib/gcc/pic32c/8.3.1/../../../../pic32c/lib/thumb/v8-m.base/nofp\libc-musl.a(__fmt_d.o)
 .debug_frame   0x00000e10       0x30 c:/program files/microchip/xc32/v4.21/bin/bin/../../lib/gcc/pic32c/8.3.1/../../../../pic32c/lib/thumb/v8-m.base/nofp\libc-musl.a(__fmt_o.o)
 .debug_frame   0x00000e40       0x30 c:/program files/microchip/xc32/v4.21/bin/bin/../../lib/gcc/pic32c/8.3.1/../../../../pic32c/lib/thumb/v8-m.base/nofp\libc-musl.a(__fmt_s.o)
 .debug_frame   0x00000e70       0x50 c:/program files/microchip/xc32/v4.21/bin/bin/../../lib/gcc/pic32c/8.3.1/../../../../pic32c/lib/thumb/v8-m.base/nofp\libc-musl.a(__fmt_u.o)
 .debug_frame   0x00000ec0       0x30 c:/program files/microchip/xc32/v4.21/bin/bin/../../lib/gcc/pic32c/8.3.1/../../../../pic32c/lib/thumb/v8-m.base/nofp\libc-musl.a(__fmt_x.o)
 .debug_frame   0x00000ef0       0x28 c:/program files/microchip/xc32/v4.21/bin/bin/../../lib/gcc/pic32c/8.3.1/../../../../pic32c/lib/thumb/v8-m.base/nofp\libc-musl.a(__pop_int.o)
 .debug_frame   0x00000f18       0x28 c:/program files/microchip/xc32/v4.21/bin/bin/../../lib/gcc/pic32c/8.3.1/../../../../pic32c/lib/thumb/v8-m.base/nofp\libc-musl.a(__pop_ptr.o)
 .debug_frame   0x00000f40       0xc0 c:/program files/microchip/xc32/v4.21/bin/bin/../../lib/gcc/pic32c/8.3.1/../../../../pic32c/lib/thumb/v8-m.base/nofp\libc-musl.a(__printf_core.o)
 .debug_frame   0x00001000       0x38 c:/program files/microchip/xc32/v4.21/bin/bin/../../lib/gcc/pic32c/8.3.1/../../../../pic32c/lib/thumb/v8-m.base/nofp\libc-musl.a(stdin.o)
 .debug_frame   0x00001038       0x50 c:/program files/microchip/xc32/v4.21/bin/bin/../../lib/gcc/pic32c/8.3.1/../../../../pic32c/lib/thumb/v8-m.base/nofp\libc-musl.a(stdout.o)
 .debug_frame   0x00001088       0x28 c:/program files/microchip/xc32/v4.21/bin/bin/../../lib/gcc/pic32c/8.3.1/../../../../pic32c/lib/thumb/v8-m.base/nofp\libc-musl.a(setbuf.o)
 .debug_frame   0x000010b0       0x28 c:/program files/microchip/xc32/v4.21/bin/bin/../../lib/gcc/pic32c/8.3.1/../../../../pic32c/lib/thumb/v8-m.base/nofp\libc-musl.a(atoi.o)
 .debug_frame   0x000010d8       0x28 c:/program files/microchip/xc32/v4.21/bin/bin/../../lib/gcc/pic32c/8.3.1/../../../../pic32c/lib/thumb/v8-m.base/nofp\libc-musl.a(memcpy.o)
 .debug_frame   0x00001100       0x20 c:/program files/microchip/xc32/v4.21/bin/bin/../../lib/gcc/pic32c/8.3.1/../../../../pic32c/lib/thumb/v8-m.base/nofp\libc-musl.a(memset.o)
 .debug_frame   0x00001120       0x20 c:/program files/microchip/xc32/v4.21/bin/bin/../../lib/gcc/pic32c/8.3.1/../../../../pic32c/lib/thumb/v8-m.base/nofp\libc-musl.a(strlen.o)
 .debug_frame   0x00001140       0x28 c:/program files/microchip/xc32/v4.21/bin/bin/../../lib/gcc/pic32c/8.3.1/../../../../pic32c/lib/thumb/v8-m.base/nofp\libc-musl.a(__int_vsprintf.o)
 .debug_frame   0x00001168       0x20 c:/program files/microchip/xc32/v4.21/bin/bin/../../lib/gcc/pic32c/8.3.1/../../../../pic32c/lib/thumb/v8-m.base/nofp\libc-musl.a(__pop_float.o)
 .debug_frame   0x00001188       0x34 c:/program files/microchip/xc32/v4.21/bin/bin/../../lib/gcc/pic32c/8.3.1/../../../../pic32c/lib/thumb/v8-m.base/nofp\libc-musl.a(__stdio_read.o)
 .debug_frame   0x000011bc       0x20 c:/program files/microchip/xc32/v4.21/bin/bin/../../lib/gcc/pic32c/8.3.1/../../../../pic32c/lib/thumb/v8-m.base/nofp\libc-musl.a(__towrite_rw.o)
 .debug_frame   0x000011dc       0x44 c:/program files/microchip/xc32/v4.21/bin/bin/../../lib/gcc/pic32c/8.3.1/../../../../pic32c/lib/thumb/v8-m.base/nofp\libc-musl.a(setvbuf.o)
 .debug_frame   0x00001220       0x34 c:/program files/microchip/xc32/v4.21/bin/bin/../../lib/gcc/pic32c/8.3.1/../../../../pic32c/lib/thumb/v8-m.base/nofp\libc-musl.a(readv.o)
 .debug_frame   0x00001254       0x2c c:/program files/microchip/xc32/v4.21/bin/bin/../../lib/gcc/pic32c/8.3.1/../../../../pic32c/lib/thumb/v8-m.base/nofp\libc-musl.a(__int_vsnprintf.o)
 .debug_frame   0x00001280       0x38 c:/program files/microchip/xc32/v4.21/bin/bin/../../lib/gcc/pic32c/8.3.1/../../../../pic32c/lib/thumb/v8-m.base/nofp\libc-musl.a(__init_stdio.o)
 .debug_frame   0x000012b8       0x44 c:/program files/microchip/xc32/v4.21/bin/bin/../../lib/gcc/pic32c/8.3.1/../../../../pic32c/lib/thumb/v8-m.base/nofp\libc-musl.a(__out.o)
 .debug_frame   0x000012fc       0x48 c:/program files/microchip/xc32/v4.21/bin/bin/../../lib/gcc/pic32c/8.3.1/../../../../pic32c/lib/thumb/v8-m.base/nofp\libc-musl.a(__stderr.o)
 .debug_frame   0x00001344       0x48 c:/program files/microchip/xc32/v4.21/bin/bin/../../lib/gcc/pic32c/8.3.1/../../../../pic32c/lib/thumb/v8-m.base/nofp\libc-musl.a(__stdio_close.o)
 .debug_frame   0x0000138c       0x50 c:/program files/microchip/xc32/v4.21/bin/bin/../../lib/gcc/pic32c/8.3.1/../../../../pic32c/lib/thumb/v8-m.base/nofp\libc-musl.a(__stdio_write.o)
 .debug_frame   0x000013dc       0x48 c:/program files/microchip/xc32/v4.21/bin/bin/../../lib/gcc/pic32c/8.3.1/../../../../pic32c/lib/thumb/v8-m.base/nofp\libc-musl.a(__stdout.o)
 .debug_frame   0x00001424       0x38 c:/program files/microchip/xc32/v4.21/bin/bin/../../lib/gcc/pic32c/8.3.1/../../../../pic32c/lib/thumb/v8-m.base/nofp\libc-musl.a(__towrite.o)
 .debug_frame   0x0000145c       0x34 c:/program files/microchip/xc32/v4.21/bin/bin/../../lib/gcc/pic32c/8.3.1/../../../../pic32c/lib/thumb/v8-m.base/nofp\libc-musl.a(writev.o)
 .debug_frame   0x00001490       0x2c c:/program files/microchip/xc32/v4.21/bin/bin/../../lib/gcc/pic32c/8.3.1/../../../../pic32c/lib/thumb/v8-m.base/nofp\libc-musl.a(__int_vfprintf.o)
 .debug_frame   0x000014bc       0x40 c:/program files/microchip/xc32/v4.21/bin/bin/../../lib/gcc/pic32c/8.3.1/../../../../pic32c/lib/thumb/v8-m.base/nofp\libc-musl.a(__fwrite.o)
 .debug_frame   0x000014fc       0x34 c:/program files/microchip/xc32/v4.21/bin/bin/../../lib/gcc/pic32c/8.3.1/thumb/v8-m.base/nofp\libgcc.a(_muldi3.o)
 .debug_frame   0x00001530       0x30 c:/program files/microchip/xc32/v4.21/bin/bin/../../lib/gcc/pic32c/8.3.1/thumb/v8-m.base/nofp\libgcc.a(_udivmoddi4.o)
 .debug_frame   0x00001560       0x20 c:/program files/microchip/xc32/v4.21/bin/bin/../../lib/gcc/pic32c/8.3.1/../../../../pic32c/lib/thumb/v8-m.base/nofp\libpic32c.a(close.o)
 .debug_frame   0x00001580       0x20 c:/program files/microchip/xc32/v4.21/bin/bin/../../lib/gcc/pic32c/8.3.1/../../../../pic32c/lib/thumb/v8-m.base/nofp\libpic32c.a(lseek.o)
 .debug_frame   0x000015a0       0x2c c:/program files/microchip/xc32/v4.21/bin/bin/../../lib/gcc/pic32c/8.3.1/../../../../pic32c/lib/thumb/v8-m.base/nofp\libpic32c.a(read.o)
 .debug_frame   0x000015cc       0x20 c:/program files/microchip/xc32/v4.21/bin/bin/../../lib/gcc/pic32c/8.3.1/../../../../pic32c/lib/thumb/v8-m.base/nofp\libpic32c.a(sbrk.o)
 .debug_frame   0x000015ec       0x2c c:/program files/microchip/xc32/v4.21/bin/bin/../../lib/gcc/pic32c/8.3.1/../../../../pic32c/lib/thumb/v8-m.base/nofp\libpic32c.a(write.o)
 .debug_frame   0x00001618       0x20 c:/program files/microchip/xc32/v4.21/bin/bin/../../lib/gcc/pic32c/8.3.1/../../../../pic32c/lib/thumb/v8-m.base/nofp\libpic32c.a(_mon_getc.o)
 .debug_frame   0x00001638       0x20 c:/program files/microchip/xc32/v4.21/bin/bin/../../lib/gcc/pic32c/8.3.1/../../../../pic32c/lib/thumb/v8-m.base/nofp\libpic32c.a(_mon_putc.o)

.note.GNU-stack
                0x00000000        0x0
 .note.GNU-stack
                0x00000000        0x0 c:/program files/microchip/xc32/v4.21/bin/bin/../../lib/gcc/pic32c/8.3.1/../../../../pic32c/lib/thumb/v8-m.base/nofp\libc-musl.a(tolower.o)
 .note.GNU-stack
                0x00000000        0x0 c:/program files/microchip/xc32/v4.21/bin/bin/../../lib/gcc/pic32c/8.3.1/../../../../pic32c/lib/thumb/v8-m.base/nofp\libc-musl.a(toupper.o)
 .note.GNU-stack
                0x00000000        0x0 c:/program files/microchip/xc32/v4.21/bin/bin/../../lib/gcc/pic32c/8.3.1/../../../../pic32c/lib/thumb/v8-m.base/nofp\libc-musl.a(__libc_start_main.o)
 .note.GNU-stack
                0x00000000        0x0 c:/program files/microchip/xc32/v4.21/bin/bin/../../lib/gcc/pic32c/8.3.1/../../../../pic32c/lib/thumb/v8-m.base/nofp\libc-musl.a(libc.o)
 .note.GNU-stack
                0x00000000        0x0 c:/program files/microchip/xc32/v4.21/bin/bin/../../lib/gcc/pic32c/8.3.1/../../../../pic32c/lib/thumb/v8-m.base/nofp\libc-musl.a(malloc.o)
 .note.GNU-stack
                0x00000000        0x0 c:/program files/microchip/xc32/v4.21/bin/bin/../../lib/gcc/pic32c/8.3.1/../../../../pic32c/lib/thumb/v8-m.base/nofp\libc-musl.a(expand_heap.o)
 .note.GNU-stack
                0x00000000        0x0 c:/program files/microchip/xc32/v4.21/bin/bin/../../lib/gcc/pic32c/8.3.1/../../../../pic32c/lib/thumb/v8-m.base/nofp\libc-musl.a(__sio_sprintf_doux.o)
 .note.GNU-stack
                0x00000000        0x0 c:/program files/microchip/xc32/v4.21/bin/bin/../../lib/gcc/pic32c/8.3.1/../../../../pic32c/lib/thumb/v8-m.base/nofp\libc-musl.a(__fmt_d.o)
 .note.GNU-stack
                0x00000000        0x0 c:/program files/microchip/xc32/v4.21/bin/bin/../../lib/gcc/pic32c/8.3.1/../../../../pic32c/lib/thumb/v8-m.base/nofp\libc-musl.a(__fmt_o.o)
 .note.GNU-stack
                0x00000000        0x0 c:/program files/microchip/xc32/v4.21/bin/bin/../../lib/gcc/pic32c/8.3.1/../../../../pic32c/lib/thumb/v8-m.base/nofp\libc-musl.a(__fmt_s.o)
 .note.GNU-stack
                0x00000000        0x0 c:/program files/microchip/xc32/v4.21/bin/bin/../../lib/gcc/pic32c/8.3.1/../../../../pic32c/lib/thumb/v8-m.base/nofp\libc-musl.a(__fmt_u.o)
 .note.GNU-stack
                0x00000000        0x0 c:/program files/microchip/xc32/v4.21/bin/bin/../../lib/gcc/pic32c/8.3.1/../../../../pic32c/lib/thumb/v8-m.base/nofp\libc-musl.a(__fmt_x.o)
 .note.GNU-stack
                0x00000000        0x0 c:/program files/microchip/xc32/v4.21/bin/bin/../../lib/gcc/pic32c/8.3.1/../../../../pic32c/lib/thumb/v8-m.base/nofp\libc-musl.a(__pop_int.o)
 .note.GNU-stack
                0x00000000        0x0 c:/program files/microchip/xc32/v4.21/bin/bin/../../lib/gcc/pic32c/8.3.1/../../../../pic32c/lib/thumb/v8-m.base/nofp\libc-musl.a(__pop_ptr.o)
 .note.GNU-stack
                0x00000000        0x0 c:/program files/microchip/xc32/v4.21/bin/bin/../../lib/gcc/pic32c/8.3.1/../../../../pic32c/lib/thumb/v8-m.base/nofp\libc-musl.a(__printf_core.o)
 .note.GNU-stack
                0x00000000        0x0 c:/program files/microchip/xc32/v4.21/bin/bin/../../lib/gcc/pic32c/8.3.1/../../../../pic32c/lib/thumb/v8-m.base/nofp\libc-musl.a(stdin.o)
 .note.GNU-stack
                0x00000000        0x0 c:/program files/microchip/xc32/v4.21/bin/bin/../../lib/gcc/pic32c/8.3.1/../../../../pic32c/lib/thumb/v8-m.base/nofp\libc-musl.a(stdout.o)
 .note.GNU-stack
                0x00000000        0x0 c:/program files/microchip/xc32/v4.21/bin/bin/../../lib/gcc/pic32c/8.3.1/../../../../pic32c/lib/thumb/v8-m.base/nofp\libc-musl.a(setbuf.o)
 .note.GNU-stack
                0x00000000        0x0 c:/program files/microchip/xc32/v4.21/bin/bin/../../lib/gcc/pic32c/8.3.1/../../../../pic32c/lib/thumb/v8-m.base/nofp\libc-musl.a(atoi.o)
 .note.GNU-stack
                0x00000000        0x0 c:/program files/microchip/xc32/v4.21/bin/bin/../../lib/gcc/pic32c/8.3.1/../../../../pic32c/lib/thumb/v8-m.base/nofp\libc-musl.a(memcpy.o)
 .note.GNU-stack
                0x00000000        0x0 c:/program files/microchip/xc32/v4.21/bin/bin/../../lib/gcc/pic32c/8.3.1/../../../../pic32c/lib/thumb/v8-m.base/nofp\libc-musl.a(memset.o)
 .note.GNU-stack
                0x00000000        0x0 c:/program files/microchip/xc32/v4.21/bin/bin/../../lib/gcc/pic32c/8.3.1/../../../../pic32c/lib/thumb/v8-m.base/nofp\libc-musl.a(strlen.o)
 .note.GNU-stack
                0x00000000        0x0 c:/program files/microchip/xc32/v4.21/bin/bin/../../lib/gcc/pic32c/8.3.1/../../../../pic32c/lib/thumb/v8-m.base/nofp\libc-musl.a(__environ.o)
 .note.GNU-stack
                0x00000000        0x0 c:/program files/microchip/xc32/v4.21/bin/bin/../../lib/gcc/pic32c/8.3.1/../../../../pic32c/lib/thumb/v8-m.base/nofp\libc-musl.a(__errno_location.o)
 .note.GNU-stack
                0x00000000        0x0 c:/program files/microchip/xc32/v4.21/bin/bin/../../lib/gcc/pic32c/8.3.1/../../../../pic32c/lib/thumb/v8-m.base/nofp\libc-musl.a(__int_vsprintf.o)
 .note.GNU-stack
                0x00000000        0x0 c:/program files/microchip/xc32/v4.21/bin/bin/../../lib/gcc/pic32c/8.3.1/../../../../pic32c/lib/thumb/v8-m.base/nofp\libc-musl.a(__pop_float.o)
 .note.GNU-stack
                0x00000000        0x0 c:/program files/microchip/xc32/v4.21/bin/bin/../../lib/gcc/pic32c/8.3.1/../../../../pic32c/lib/thumb/v8-m.base/nofp\libc-musl.a(__stdio_read.o)
 .note.GNU-stack
                0x00000000        0x0 c:/program files/microchip/xc32/v4.21/bin/bin/../../lib/gcc/pic32c/8.3.1/../../../../pic32c/lib/thumb/v8-m.base/nofp\libc-musl.a(__towrite_rw.o)
 .note.GNU-stack
                0x00000000        0x0 c:/program files/microchip/xc32/v4.21/bin/bin/../../lib/gcc/pic32c/8.3.1/../../../../pic32c/lib/thumb/v8-m.base/nofp\libc-musl.a(setvbuf.o)
 .note.GNU-stack
                0x00000000        0x0 c:/program files/microchip/xc32/v4.21/bin/bin/../../lib/gcc/pic32c/8.3.1/../../../../pic32c/lib/thumb/v8-m.base/nofp\libc-musl.a(readv.o)
 .note.GNU-stack
                0x00000000        0x0 c:/program files/microchip/xc32/v4.21/bin/bin/../../lib/gcc/pic32c/8.3.1/../../../../pic32c/lib/thumb/v8-m.base/nofp\libc-musl.a(__int_vsnprintf.o)
 .note.GNU-stack
                0x00000000        0x0 c:/program files/microchip/xc32/v4.21/bin/bin/../../lib/gcc/pic32c/8.3.1/../../../../pic32c/lib/thumb/v8-m.base/nofp\libc-musl.a(__init_stdio.o)
 .note.GNU-stack
                0x00000000        0x0 c:/program files/microchip/xc32/v4.21/bin/bin/../../lib/gcc/pic32c/8.3.1/../../../../pic32c/lib/thumb/v8-m.base/nofp\libc-musl.a(__out.o)
 .note.GNU-stack
                0x00000000        0x0 c:/program files/microchip/xc32/v4.21/bin/bin/../../lib/gcc/pic32c/8.3.1/../../../../pic32c/lib/thumb/v8-m.base/nofp\libc-musl.a(__stderr.o)
 .note.GNU-stack
                0x00000000        0x0 c:/program files/microchip/xc32/v4.21/bin/bin/../../lib/gcc/pic32c/8.3.1/../../../../pic32c/lib/thumb/v8-m.base/nofp\libc-musl.a(__stdio_close.o)
 .note.GNU-stack
                0x00000000        0x0 c:/program files/microchip/xc32/v4.21/bin/bin/../../lib/gcc/pic32c/8.3.1/../../../../pic32c/lib/thumb/v8-m.base/nofp\libc-musl.a(__stdio_write.o)
 .note.GNU-stack
                0x00000000        0x0 c:/program files/microchip/xc32/v4.21/bin/bin/../../lib/gcc/pic32c/8.3.1/../../../../pic32c/lib/thumb/v8-m.base/nofp\libc-musl.a(__stdout.o)
 .note.GNU-stack
                0x00000000        0x0 c:/program files/microchip/xc32/v4.21/bin/bin/../../lib/gcc/pic32c/8.3.1/../../../../pic32c/lib/thumb/v8-m.base/nofp\libc-musl.a(__towrite.o)
 .note.GNU-stack
                0x00000000        0x0 c:/program files/microchip/xc32/v4.21/bin/bin/../../lib/gcc/pic32c/8.3.1/../../../../pic32c/lib/thumb/v8-m.base/nofp\libc-musl.a(writev.o)
 .note.GNU-stack
                0x00000000        0x0 c:/program files/microchip/xc32/v4.21/bin/bin/../../lib/gcc/pic32c/8.3.1/../../../../pic32c/lib/thumb/v8-m.base/nofp\libc-musl.a(__int_vfprintf.o)
 .note.GNU-stack
                0x00000000        0x0 c:/program files/microchip/xc32/v4.21/bin/bin/../../lib/gcc/pic32c/8.3.1/../../../../pic32c/lib/thumb/v8-m.base/nofp\libc-musl.a(__fwrite.o)

__xc_reference_data
                0x00000000       0xd0
 __xc_reference_data
                0x00000000        0x8 c:/program files/microchip/xc32/v4.21/bin/bin/../../lib/gcc/pic32c/8.3.1/../../../../pic32c/lib/thumb/v8-m.base/nofp\libc-musl.a(stdin.o)
                0x00000000                __stdin_needs_rw
 __xc_reference_data
                0x00000008        0x8 c:/program files/microchip/xc32/v4.21/bin/bin/../../lib/gcc/pic32c/8.3.1/../../../../pic32c/lib/thumb/v8-m.base/nofp\libc-musl.a(stdout.o)
                0x00000008                __stdout_needs_init
 __xc_reference_data
                0x00000010       0x14 c:/program files/microchip/xc32/v4.21/bin/bin/../../lib/gcc/pic32c/8.3.1/../../../../pic32c/lib/thumb/v8-m.base/nofp\libc-musl.a(__io_init_needed.o)
                0x00000010                __io_init_needed
                0x0000001c                __io_init_needs_file
 __xc_reference_data
                0x00000024       0x20 c:/program files/microchip/xc32/v4.21/bin/bin/../../lib/gcc/pic32c/8.3.1/../../../../pic32c/lib/thumb/v8-m.base/nofp\libc-musl.a(__io_rw_needed.o)
                0x00000024                __io_rw_needed
 __xc_reference_data
                0x00000044        0x8 c:/program files/microchip/xc32/v4.21/bin/bin/../../lib/gcc/pic32c/8.3.1/../../../../pic32c/lib/thumb/v8-m.base/nofp\libc-musl.a(setvbuf.o)
                0x00000044                __setvbuf_needs_buf
 __xc_reference_data
                0x0000004c       0x34 c:/program files/microchip/xc32/v4.21/bin/bin/../../lib/gcc/pic32c/8.3.1/../../../../pic32c/lib/thumb/v8-m.base/nofp\libc-musl.a(__io_buf_needed.o)
                0x0000004c                __io_buf_needed
 __xc_reference_data
                0x00000080        0xc c:/program files/microchip/xc32/v4.21/bin/bin/../../lib/gcc/pic32c/8.3.1/../../../../pic32c/lib/thumb/v8-m.base/nofp\libc-musl.a(__io_file_needed.o)
                0x00000080                __io_file_needed
 __xc_reference_data
                0x0000008c       0x2c c:/program files/microchip/xc32/v4.21/bin/bin/../../lib/gcc/pic32c/8.3.1/../../../../pic32c/lib/thumb/v8-m.base/nofp\libc-musl.a(__io_std_needed.o)
                0x0000008c                __io_std_needed
 __xc_reference_data
                0x000000b8        0x8 c:/program files/microchip/xc32/v4.21/bin/bin/../../lib/gcc/pic32c/8.3.1/../../../../pic32c/lib/thumb/v8-m.base/nofp\libc-musl.a(__stderr.o)
                0x000000b8                __stderr_needs_file
 __xc_reference_data
                0x000000c0        0x8 c:/program files/microchip/xc32/v4.21/bin/bin/../../lib/gcc/pic32c/8.3.1/../../../../pic32c/lib/thumb/v8-m.base/nofp\libc-musl.a(__stdout.o)
                0x000000c0                __stdout_needs_file
 __xc_reference_data
                0x000000c8        0x8 c:/program files/microchip/xc32/v4.21/bin/bin/../../lib/gcc/pic32c/8.3.1/../../../../pic32c/lib/thumb/v8-m.base/nofp\libc-musl.a(__fwrite.o)
                0x000000c8                __fwrite_needs_std

.stack          0x20008af8      0x100
 .stack         0x20008af8      0x100 stack

.bss%1          0x20008000      0x618
 .bss           0x20008000      0x408 c:/program files/microchip/xc32/v4.21/bin/bin/../../lib/gcc/pic32c/8.3.1/../../../../pic32c/lib/thumb/v8-m.base/nofp\libc-musl.a(stdin.o)
 .bss           0x20008408      0x210 c:/program files/microchip/xc32/v4.21/bin/bin/../../lib/gcc/pic32c/8.3.1/../../../../pic32c/lib/thumb/v8-m.base/nofp\libc-musl.a(malloc.o)

.bss.timers%3   0x20008618       0xa0
 .bss.timers    0x20008618       0xa0 build/Sercom/production/_ext/2025105575/sys_time.o

.bss.gCryptoDev%4
                0x200086b8       0x60
 .bss.gCryptoDev
                0x200086b8       0x60 build/Sercom/production/_ext/1664057780/cryptocb.o

.bss%5          0x20008718       0x50
 .bss           0x20008718       0x50 c:/program files/microchip/xc32/v4.21/bin/bin/../../lib/gcc/pic32c/8.3.1/../../../../pic32c/lib/thumb/v8-m.base/nofp\libc-musl.a(libc.o)
                0x20008718                __progname_full
                0x20008718                program_invocation_name
                0x2000871c                program_invocation_short_name
                0x2000871c                __progname
                0x20008720                __sysinfo
                0x20008724                __hwcap
                0x20008728                __libc

.bss.gSystemCounterObj%6
                0x20008768       0x40
 .bss.gSystemCounterObj
                0x20008768       0x40 build/Sercom/production/_ext/2025105575/sys_time.o

.bss%7          0x200087a8       0x1c
 .bss           0x200087a8       0x1c c:/program files/microchip/xc32/v4.21/bin/bin/../../lib/gcc/pic32c/8.3.1/thumb/v8-m.base/nofp/crtbegin.o

.bss.TC2_CallbackObject%8
                0x200087c4        0x8
 .bss.TC2_CallbackObject
                0x200087c4        0x8 build/Sercom/production/_ext/1582435769/plib_tc2.o

.bss%9          0x200087cc        0x8
 .bss           0x200087cc        0x8 c:/program files/microchip/xc32/v4.21/bin/bin/../../lib/gcc/pic32c/8.3.1/../../../../pic32c/lib/thumb/v8-m.base/nofp\libc-musl.a(stdout.o)
                0x200087d0                __stdout_used

.bss.sysObj%10  0x200087d4        0x4
 .bss.sysObj    0x200087d4        0x4 build/Sercom/production/_ext/1491116340/initialization.o
                0x200087d4                sysObj

.bss%11         0x200087d8       0x10
 .bss           0x200087d8        0x4 c:/program files/microchip/xc32/v4.21/bin/bin/../../lib/gcc/pic32c/8.3.1/../../../../pic32c/lib/thumb/v8-m.base/nofp\libpic32c.a(data_init_0_1.o)
 .bss           0x200087dc        0x4 c:/program files/microchip/xc32/v4.21/bin/bin/../../lib/gcc/pic32c/8.3.1/../../../../pic32c/lib/thumb/v8-m.base/nofp\libc-musl.a(__environ.o)
                0x200087dc                __environ
                0x200087dc                environ
                0x200087dc                ___environ
                0x200087dc                _environ
 .bss           0x200087e0        0x4 c:/program files/microchip/xc32/v4.21/bin/bin/../../lib/gcc/pic32c/8.3.1/../../../../pic32c/lib/thumb/v8-m.base/nofp\libc-musl.a(__errno_location.o)
                0x200087e0                __errno_val
 .bss           0x200087e4        0x4 c:/program files/microchip/xc32/v4.21/bin/bin/../../lib/gcc/pic32c/8.3.1/../../../../pic32c/lib/thumb/v8-m.base/nofp\libpic32c.a(sbrk.o)

.bss.appData%15
                0x200087e8        0x1
 .bss.appData   0x200087e8        0x1 build/Sercom/production/_ext/1360937237/app.o
                0x200087e8                appData

.data%16        0x200087ec       0xec
 .data          0x200087ec       0x6c c:/program files/microchip/xc32/v4.21/bin/bin/../../lib/gcc/pic32c/8.3.1/../../../../pic32c/lib/thumb/v8-m.base/nofp\libc-musl.a(stdin.o)
                0x200087ec                __stdin_used
                0x200087f0                _stdin
 .data          0x20008858       0x60 c:/program files/microchip/xc32/v4.21/bin/bin/../../lib/gcc/pic32c/8.3.1/../../../../pic32c/lib/thumb/v8-m.base/nofp\libc-musl.a(__stdout.o)
 .data          0x200088b8       0x20 c:/program files/microchip/xc32/v4.21/bin/bin/../../lib/gcc/pic32c/8.3.1/../../../../pic32c/lib/thumb/v8-m.base/nofp\libc-musl.a(stdout.o)
                0x200088d4                _stdout

.eh_frame%z1    0x00000000        0x0
 .eh_frame      0x00000000        0x0 c:/program files/microchip/xc32/v4.21/bin/bin/../../lib/gcc/pic32c/8.3.1/thumb/v8-m.base/nofp/crtbegin.o

.text%19        0x00040184      0x31a
 .text          0x00040184      0x31a c:/program files/microchip/xc32/v4.21/bin/bin/../../lib/gcc/pic32c/8.3.1/thumb/v8-m.base/nofp\libgcc.a(_udivmoddi4.o)
                0x00040184                __udivmoddi4

.text.__printf_core%20
                0x000404a0      0x318
 .text.__printf_core
                0x000404a0      0x318 c:/program files/microchip/xc32/v4.21/bin/bin/../../lib/gcc/pic32c/8.3.1/../../../../pic32c/lib/thumb/v8-m.base/nofp\libc-musl.a(__printf_core.o)
                0x000404a0                __printf_core

.dinit%21       0x000407b8      0x1d0
 .dinit         0x000407b8      0x1d0 data_init

.text.malloc%22
                0x00040988      0x174
 .text.malloc   0x00040988      0x174 c:/program files/microchip/xc32/v4.21/bin/bin/../../lib/gcc/pic32c/8.3.1/../../../../pic32c/lib/thumb/v8-m.base/nofp\libc-musl.a(malloc.o)
                0x00040988                malloc

.text.__fmt_x%23
                0x00040afc      0x132
 .text.__fmt_x  0x00040afc      0x132 c:/program files/microchip/xc32/v4.21/bin/bin/../../lib/gcc/pic32c/8.3.1/../../../../pic32c/lib/thumb/v8-m.base/nofp\libc-musl.a(__fmt_x.o)
                0x00040afc                __fmt_x_needed
                0x00040afc                __fmt_x

.text.SYS_TIME_HwTimerCompareUpdate%24
                0x00040c2e       0xfe
 .text.SYS_TIME_HwTimerCompareUpdate
                0x00040c2e       0xfe build/Sercom/production/_ext/2025105575/sys_time.o

.text.SYS_TIME_PLIBCallback%25
                0x00040d2c       0xf8
 .text.SYS_TIME_PLIBCallback
                0x00040d2c       0xf8 build/Sercom/production/_ext/2025105575/sys_time.o

.text.SYS_TIME_AddToList%26
                0x00040e24       0xe4
 .text.SYS_TIME_AddToList
                0x00040e24       0xe4 build/Sercom/production/_ext/2025105575/sys_time.o

.text.free%27   0x00040f08       0xcc
 .text.free     0x00040f08       0xcc c:/program files/microchip/xc32/v4.21/bin/bin/../../lib/gcc/pic32c/8.3.1/../../../../pic32c/lib/thumb/v8-m.base/nofp\libc-musl.a(malloc.o)
                0x00040f08                free

.text.SYS_TIME_Initialize%28
                0x00040fd4       0xbe
 .text.SYS_TIME_Initialize
                0x00040fd4       0xbe build/Sercom/production/_ext/2025105575/sys_time.o
                0x00040fd4                SYS_TIME_Initialize

.text.__pop_int%29
                0x00041092       0xb6
 .text.__pop_int
                0x00041092       0xb6 c:/program files/microchip/xc32/v4.21/bin/bin/../../lib/gcc/pic32c/8.3.1/../../../../pic32c/lib/thumb/v8-m.base/nofp\libc-musl.a(__pop_int.o)
                0x00041092                __pop_int_needed
                0x00041092                __pop_int

.text.__fmt_d%30
                0x00041148       0xae
 .text.__fmt_d  0x00041148       0xae c:/program files/microchip/xc32/v4.21/bin/bin/../../lib/gcc/pic32c/8.3.1/../../../../pic32c/lib/thumb/v8-m.base/nofp\libc-musl.a(__fmt_d.o)
                0x00041148                __fmt_d
                0x00041148                __fmt_d_needed

.text.main%31   0x000411f6       0x90
 .text.main     0x000411f6       0x90 build/Sercom/production/_ext/1360937237/main.o
                0x000411f6                main

.rodata%32      0x00041288       0x8c
 .rodata        0x00041288       0x8c build/Sercom/production/_ext/1360937237/main.o

.text.__cvt_u%33
                0x00041314       0x84
 .text.__cvt_u  0x00041314       0x84 c:/program files/microchip/xc32/v4.21/bin/bin/../../lib/gcc/pic32c/8.3.1/../../../../pic32c/lib/thumb/v8-m.base/nofp\libc-musl.a(__fmt_u.o)
                0x00041314                __cvt_u

.text.__write_buffered%34
                0x00041398       0x82
 .text.__write_buffered
                0x00041398       0x82 c:/program files/microchip/xc32/v4.21/bin/bin/../../lib/gcc/pic32c/8.3.1/../../../../pic32c/lib/thumb/v8-m.base/nofp\libc-musl.a(__stdio_write.o)
                0x00041398                __do_write

.text.__stdio_write_buffered%35
                0x0004141a       0x7c
 .text.__stdio_write_buffered
                0x0004141a       0x7c c:/program files/microchip/xc32/v4.21/bin/bin/../../lib/gcc/pic32c/8.3.1/../../../../pic32c/lib/thumb/v8-m.base/nofp\libc-musl.a(__stdio_write.o)
                0x0004141a                __stdio_write_buffered

.text.__pad%36  0x00041496       0x7a
 .text.__pad    0x00041496       0x7a c:/program files/microchip/xc32/v4.21/bin/bin/../../lib/gcc/pic32c/8.3.1/../../../../pic32c/lib/thumb/v8-m.base/nofp\libc-musl.a(__printf_core.o)
                0x00041496                __pad

.text.__pic32c_data_initialization_impl%37
                0x00041510       0x70
 .text.__pic32c_data_initialization_impl
                0x00041510       0x70 c:/program files/microchip/xc32/v4.21/bin/bin/../../lib/gcc/pic32c/8.3.1/../../../../pic32c/lib/thumb/v8-m.base/nofp\libpic32c.a(data_init_0_1.o)
                0x00041510                __copy_needed
                0x00041510                __pic32c_data_initialization_impl

.text.__fmt_o%38
                0x00041580       0x6e
 .text.__fmt_o  0x00041580       0x6e c:/program files/microchip/xc32/v4.21/bin/bin/../../lib/gcc/pic32c/8.3.1/../../../../pic32c/lib/thumb/v8-m.base/nofp\libc-musl.a(__fmt_o.o)
                0x00041580                __fmt_o
                0x00041580                __fmt_o_needed

.text.__pop_ptr%39
                0x000415ee       0x68
 .text.__pop_ptr
                0x000415ee       0x68 c:/program files/microchip/xc32/v4.21/bin/bin/../../lib/gcc/pic32c/8.3.1/../../../../pic32c/lib/thumb/v8-m.base/nofp\libc-musl.a(__pop_ptr.o)
                0x000415ee                __pop_ptr
                0x000415ee                __pop_ptr_needed

.text.__stdio_read%40
                0x00041656       0x62
 .text.__stdio_read
                0x00041656       0x62 c:/program files/microchip/xc32/v4.21/bin/bin/../../lib/gcc/pic32c/8.3.1/../../../../pic32c/lib/thumb/v8-m.base/nofp\libc-musl.a(__stdio_read.o)
                0x00041656                __stdio_read

.text.SYS_TIME_RemoveFromList%41
                0x000416b8       0x5e
 .text.SYS_TIME_RemoveFromList
                0x000416b8       0x5e build/Sercom/production/_ext/2025105575/sys_time.o

.text.__libc_start_init%42
                0x00041718       0x5c
 .text.__libc_start_init
                0x00041718       0x5c c:/program files/microchip/xc32/v4.21/bin/bin/../../lib/gcc/pic32c/8.3.1/../../../../pic32c/lib/thumb/v8-m.base/nofp\libc-musl.a(__libc_start_main.o)
                0x00041718                __libc_init_array

.rodata%43      0x00041774       0x5c
 .rodata        0x00041774       0x5c c:/program files/microchip/xc32/v4.21/bin/bin/../../lib/gcc/pic32c/8.3.1/../../../../pic32c/lib/thumb/v8-m.base/nofp\libc-musl.a(malloc.o)

.text.__stdio_close_rw%44
                0x000417d0       0x5a
 .text.__stdio_close_rw
                0x000417d0       0x5a c:/program files/microchip/xc32/v4.21/bin/bin/../../lib/gcc/pic32c/8.3.1/../../../../pic32c/lib/thumb/v8-m.base/nofp\libc-musl.a(__stdio_close.o)
                0x000417d0                __stdio_close_rw

.text.TC2_TimerInitialize%45
                0x0004182c       0x58
 .text.TC2_TimerInitialize
                0x0004182c       0x58 build/Sercom/production/_ext/1582435769/plib_tc2.o
                0x0004182c                TC2_TimerInitialize

.text.SYS_Initialize%46
                0x00041884       0x58
 .text.SYS_Initialize
                0x00041884       0x58 build/Sercom/production/_ext/1491116340/initialization.o
                0x00041884                SYS_Initialize

.text.__fmt_u%47
                0x000418dc       0x56
 .text.__fmt_u  0x000418dc       0x56 c:/program files/microchip/xc32/v4.21/bin/bin/../../lib/gcc/pic32c/8.3.1/../../../../pic32c/lib/thumb/v8-m.base/nofp\libc-musl.a(__fmt_u.o)
                0x000418dc                __fmt_u_needed
                0x000418dc                __fmt_u

.text.Reset_Handler%48
                0x00041932       0x54
 .text.Reset_Handler
                0x00041932       0x54 build/Sercom/production/_ext/1491116340/startup_xc32.o
                0x00041932                Reset_Handler

.text.unbin%49  0x00041988       0x50
 .text.unbin    0x00041988       0x50 c:/program files/microchip/xc32/v4.21/bin/bin/../../lib/gcc/pic32c/8.3.1/../../../../pic32c/lib/thumb/v8-m.base/nofp\libc-musl.a(malloc.o)

.text.__fmt_s%50
                0x000419d8       0x4c
 .text.__fmt_s  0x000419d8       0x4c c:/program files/microchip/xc32/v4.21/bin/bin/../../lib/gcc/pic32c/8.3.1/../../../../pic32c/lib/thumb/v8-m.base/nofp\libc-musl.a(__fmt_s.o)
                0x000419d8                __fmt_s
                0x000419d8                __fmt_0_needed
                0x000419d8                __fmt_s_needed

.text.setvbuf%51
                0x00041a24       0x4c
 .text.setvbuf  0x00041a24       0x4c c:/program files/microchip/xc32/v4.21/bin/bin/../../lib/gcc/pic32c/8.3.1/../../../../pic32c/lib/thumb/v8-m.base/nofp\libc-musl.a(setvbuf.o)
                0x00041a24                setvbuf

.text.__vsnprintf%52
                0x00041a70       0x4c
 .text.__vsnprintf
                0x00041a70       0x4c c:/program files/microchip/xc32/v4.21/bin/bin/../../lib/gcc/pic32c/8.3.1/../../../../pic32c/lib/thumb/v8-m.base/nofp\libc-musl.a(__int_vsnprintf.o)
                0x00041a70                __vsnprintf

.text.TC0_TimerInitialize%53
                0x00041abc       0x46
 .text.TC0_TimerInitialize
                0x00041abc       0x46 build/Sercom/production/_ext/1582435769/plib_tc0.o
                0x00041abc                TC0_TimerInitialize

.text.SYS_TIME_GetTimerObject%54
                0x00041b02       0x44
 .text.SYS_TIME_GetTimerObject
                0x00041b02       0x44 build/Sercom/production/_ext/2025105575/sys_time.o

.text.SYS_TIME_ResourceLock%55
                0x00041b46       0x44
 .text.SYS_TIME_ResourceLock
                0x00041b46       0x44 build/Sercom/production/_ext/2025105575/sys_time.o

.text%56        0x00041b8a       0x44
 .text          0x00041b8a       0x44 c:/program files/microchip/xc32/v4.21/bin/bin/../../lib/gcc/pic32c/8.3.1/thumb/v8-m.base/nofp\libgcc.a(_muldi3.o)
                0x00041b8a                __muldi3
                0x00041b8a                __aeabi_lmul

.text%57        0x00041bd0       0x40
 .text          0x00041bd0       0x40 c:/program files/microchip/xc32/v4.21/bin/bin/../../lib/gcc/pic32c/8.3.1/thumb/v8-m.base/nofp/crtbegin.o

.text.TC2_Timer16bitCounterGet%58
                0x00041c10       0x40
 .text.TC2_Timer16bitCounterGet
                0x00041c10       0x40 build/Sercom/production/_ext/1582435769/plib_tc2.o
                0x00041c10                TC2_Timer16bitCounterGet

.text.wc_CryptoCb_FindDevice%59
                0x00041c50       0x40
 .text.wc_CryptoCb_FindDevice
                0x00041c50       0x40 build/Sercom/production/_ext/1664057780/cryptocb.o

.text.adjust_size%60
                0x00041c90       0x40
 .text.adjust_size
                0x00041c90       0x40 c:/program files/microchip/xc32/v4.21/bin/bin/../../lib/gcc/pic32c/8.3.1/../../../../pic32c/lib/thumb/v8-m.base/nofp\libc-musl.a(malloc.o)

.text%61        0x00041cd0       0x40
 .text          0x00041cd0       0x40 c:/program files/microchip/xc32/v4.21/bin/bin/../../lib/gcc/pic32c/8.3.1/thumb/v8-m.base/nofp\libgcc.a(_aeabi_uldivmod.o)
                0x00041cd0                __aeabi_uldivmod

.text.TC0_Timer32bitCounterGet%62
                0x00041d10       0x3e
 .text.TC0_Timer32bitCounterGet
                0x00041d10       0x3e build/Sercom/production/_ext/1582435769/plib_tc0.o
                0x00041d10                TC0_Timer32bitCounterGet

.text.SYS_INT_SourceDisable%63
                0x00041d4e       0x3e
 .text.SYS_INT_SourceDisable
                0x00041d4e       0x3e build/Sercom/production/_ext/10618399/sys_int.o
                0x00041d4e                SYS_INT_SourceDisable

.text.atoi%64   0x00041d8c       0x3e
 .text.atoi     0x00041d8c       0x3e c:/program files/microchip/xc32/v4.21/bin/bin/../../lib/gcc/pic32c/8.3.1/../../../../pic32c/lib/thumb/v8-m.base/nofp\libc-musl.a(atoi.o)
                0x00041d8c                atoi

.text.TC2_TimerInterruptHandler%65
                0x00041dca       0x3c
 .text.TC2_TimerInterruptHandler
                0x00041dca       0x3c build/Sercom/production/_ext/1582435769/plib_tc2.o
                0x00041dca                TC2_TimerInterruptHandler

.text.SYS_TIME_TimerDestroy%66
                0x00041e06       0x3c
 .text.SYS_TIME_TimerDestroy
                0x00041e06       0x3c build/Sercom/production/_ext/2025105575/sys_time.o
                0x00041e06                SYS_TIME_TimerDestroy

.text.bin_index%67
                0x00041e44       0x3c
 .text.bin_index
                0x00041e44       0x3c c:/program files/microchip/xc32/v4.21/bin/bin/../../lib/gcc/pic32c/8.3.1/../../../../pic32c/lib/thumb/v8-m.base/nofp\libc-musl.a(malloc.o)

.text%68        0x00041e80       0x3c
 .text          0x00041e80       0x3c c:/program files/microchip/xc32/v4.21/bin/bin/../../lib/gcc/pic32c/8.3.1/thumb/v8-m.base/nofp\libgcc.a(_clzsi2.o)
                0x00041e80                __clzsi2

.text.SYS_TIME_UpdateTimerList%69
                0x00041ebc       0x38
 .text.SYS_TIME_UpdateTimerList
                0x00041ebc       0x38 build/Sercom/production/_ext/2025105575/sys_time.o

.text.__fmt_state%70
                0x00041ef4       0x38
 .text.__fmt_state
                0x00041ef4       0x38 c:/program files/microchip/xc32/v4.21/bin/bin/../../lib/gcc/pic32c/8.3.1/../../../../pic32c/lib/thumb/v8-m.base/nofp\libc-musl.a(__printf_core.o)
                0x00041ef4                __fmt_state

.text.__out%71  0x00041f2c       0x38
 .text.__out    0x00041f2c       0x38 c:/program files/microchip/xc32/v4.21/bin/bin/../../lib/gcc/pic32c/8.3.1/../../../../pic32c/lib/thumb/v8-m.base/nofp\libc-musl.a(__out.o)
                0x00041f2c                __out
                0x00041f2c                __out_needed

.text.write%72  0x00041f64       0x38
 .text.write    0x00041f64       0x38 c:/program files/microchip/xc32/v4.21/bin/bin/../../lib/gcc/pic32c/8.3.1/../../../../pic32c/lib/thumb/v8-m.base/nofp\libpic32c.a(write.o)
                0x00041f64                write

.text.TRNG_ReadData%73
                0x00041f9c       0x34
 .text.TRNG_ReadData
                0x00041f9c       0x34 build/Sercom/production/_ext/302333297/plib_trng.o
                0x00041f9c                TRNG_ReadData

.text.alloc_rev%74
                0x00041fd0       0x30
 .text.alloc_rev
                0x00041fd0       0x30 c:/program files/microchip/xc32/v4.21/bin/bin/../../lib/gcc/pic32c/8.3.1/../../../../pic32c/lib/thumb/v8-m.base/nofp\libc-musl.a(malloc.o)

.text.alloc_fwd%75
                0x00042000       0x2e
 .text.alloc_fwd
                0x00042000       0x2e c:/program files/microchip/xc32/v4.21/bin/bin/../../lib/gcc/pic32c/8.3.1/../../../../pic32c/lib/thumb/v8-m.base/nofp\libc-musl.a(malloc.o)

.text._sbrk%76  0x00042030       0x2c
 .text._sbrk    0x00042030       0x2c c:/program files/microchip/xc32/v4.21/bin/bin/../../lib/gcc/pic32c/8.3.1/../../../../pic32c/lib/thumb/v8-m.base/nofp\libpic32c.a(sbrk.o)
                0x00042030                _sbrk

.text.wc_CryptoCb_RegisterDevice%77
                0x0004205c       0x2a
 .text.wc_CryptoCb_RegisterDevice
                0x0004205c       0x2a build/Sercom/production/_ext/1664057780/cryptocb.o
                0x0004205c                wc_CryptoCb_RegisterDevice

.text.__pop_float%78
                0x00042086       0x2a
 .text.__pop_float
                0x00042086       0x2a c:/program files/microchip/xc32/v4.21/bin/bin/../../lib/gcc/pic32c/8.3.1/../../../../pic32c/lib/thumb/v8-m.base/nofp\libc-musl.a(__pop_float.o)
                0x00042086                __pop_float_needed
                0x00042086                __pop_float

.text.__towrite_rw%79
                0x000420b0       0x2a
 .text.__towrite_rw
                0x000420b0       0x2a c:/program files/microchip/xc32/v4.21/bin/bin/../../lib/gcc/pic32c/8.3.1/../../../../pic32c/lib/thumb/v8-m.base/nofp\libc-musl.a(__towrite_rw.o)
                0x000420b0                __towrite_rw
                0x000420b0                __towrite_rw_needed

.text.NVIC_Initialize%80
                0x000420dc       0x28
 .text.NVIC_Initialize
                0x000420dc       0x28 build/Sercom/production/_ext/302508358/plib_nvic.o
                0x000420dc                NVIC_Initialize

.text.__readv%81
                0x00042104       0x28
 .text.__readv  0x00042104       0x28 c:/program files/microchip/xc32/v4.21/bin/bin/../../lib/gcc/pic32c/8.3.1/../../../../pic32c/lib/thumb/v8-m.base/nofp\libc-musl.a(readv.o)
                0x00042104                readv

.text.__writev%82
                0x0004212c       0x28
 .text.__writev
                0x0004212c       0x28 c:/program files/microchip/xc32/v4.21/bin/bin/../../lib/gcc/pic32c/8.3.1/../../../../pic32c/lib/thumb/v8-m.base/nofp\libc-musl.a(writev.o)
                0x0004212c                writev

.text.trim%83   0x00042154       0x26
 .text.trim     0x00042154       0x26 c:/program files/microchip/xc32/v4.21/bin/bin/../../lib/gcc/pic32c/8.3.1/../../../../pic32c/lib/thumb/v8-m.base/nofp\libc-musl.a(malloc.o)

.text.read%84   0x0004217a       0x26
 .text.read     0x0004217a       0x26 c:/program files/microchip/xc32/v4.21/bin/bin/../../lib/gcc/pic32c/8.3.1/../../../../pic32c/lib/thumb/v8-m.base/nofp\libpic32c.a(read.o)
                0x0004217a                read

.text.SYS_TIME_ResourceUnlock%85
                0x000421a0       0x24
 .text.SYS_TIME_ResourceUnlock
                0x000421a0       0x24 build/Sercom/production/_ext/2025105575/sys_time.o

.text.TC0_TimerStart%86
                0x000421c4       0x20
 .text.TC0_TimerStart
                0x000421c4       0x20 build/Sercom/production/_ext/1582435769/plib_tc0.o
                0x000421c4                TC0_TimerStart

.text.TC2_TimerStart%87
                0x000421e4       0x20
 .text.TC2_TimerStart
                0x000421e4       0x20 build/Sercom/production/_ext/1582435769/plib_tc2.o
                0x000421e4                TC2_TimerStart

.text.TC2_TimerStop%88
                0x00042204       0x20
 .text.TC2_TimerStop
                0x00042204       0x20 build/Sercom/production/_ext/1582435769/plib_tc2.o
                0x00042204                TC2_TimerStop

.text.SYS_INT_SourceRestore%89
                0x00042224       0x1e
 .text.SYS_INT_SourceRestore
                0x00042224       0x1e build/Sercom/production/_ext/10618399/sys_int.o
                0x00042224                SYS_INT_SourceRestore

.text.SYS_TIME_GetElapsedCount%90
                0x00042242       0x1e
 .text.SYS_TIME_GetElapsedCount
                0x00042242       0x1e build/Sercom/production/_ext/2025105575/sys_time.o

.text.TC0_Timer32bitCounterSet%91
                0x00042260       0x1c
 .text.TC0_Timer32bitCounterSet
                0x00042260       0x1c build/Sercom/production/_ext/1582435769/plib_tc0.o
                0x00042260                TC0_Timer32bitCounterSet

.text.TC2_Timer16bitPeriodSet%92
                0x0004227c       0x1c
 .text.TC2_Timer16bitPeriodSet
                0x0004227c       0x1c build/Sercom/production/_ext/1582435769/plib_tc2.o
                0x0004227c                TC2_Timer16bitPeriodSet

.text.TC2_Timer16bitCompareSet%93
                0x00042298       0x1c
 .text.TC2_Timer16bitCompareSet
                0x00042298       0x1c build/Sercom/production/_ext/1582435769/plib_tc2.o
                0x00042298                TC2_Timer16bitCompareSet

.rodata.sysTimePlibAPI%94
                0x000422b4       0x1c
 .rodata.sysTimePlibAPI
                0x000422b4       0x1c build/Sercom/production/_ext/1491116340/initialization.o

.text.lock_bin%95
                0x000422d0       0x1c
 .text.lock_bin
                0x000422d0       0x1c c:/program files/microchip/xc32/v4.21/bin/bin/../../lib/gcc/pic32c/8.3.1/../../../../pic32c/lib/thumb/v8-m.base/nofp\libc-musl.a(malloc.o)

.rodata%96      0x000422ec       0x1c
 .rodata        0x000422ec       0x1c c:/program files/microchip/xc32/v4.21/bin/bin/../../lib/gcc/pic32c/8.3.1/../../../../pic32c/lib/thumb/v8-m.base/nofp\libc-musl.a(__printf_core.o)

.text.APP_Tasks%97
                0x00042308       0x1a
 .text.APP_Tasks
                0x00042308       0x1a build/Sercom/production/_ext/1360937237/app.o
                0x00042308                APP_Tasks

.text.__towrite%98
                0x00042322       0x18
 .text.__towrite
                0x00042322       0x18 c:/program files/microchip/xc32/v4.21/bin/bin/../../lib/gcc/pic32c/8.3.1/../../../../pic32c/lib/thumb/v8-m.base/nofp\libc-musl.a(__towrite.o)
                0x00042322                __towrite

.text.__vfprintf%99
                0x0004233a       0x18
 .text.__vfprintf
                0x0004233a       0x18 c:/program files/microchip/xc32/v4.21/bin/bin/../../lib/gcc/pic32c/8.3.1/../../../../pic32c/lib/thumb/v8-m.base/nofp\libc-musl.a(__int_vfprintf.o)
                0x0004233a                __vfprintf

.text%100       0x00042354       0x30
 .text          0x00042354       0x18 c:/program files/microchip/xc32/v4.21/bin/bin/../../lib/gcc/pic32c/8.3.1/thumb/v8-m.base/nofp\libgcc.a(_lshrdi3.o)
                0x00042354                __lshrdi3
                0x00042354                __aeabi_llsr
 .text          0x0004236c       0x18 c:/program files/microchip/xc32/v4.21/bin/bin/../../lib/gcc/pic32c/8.3.1/thumb/v8-m.base/nofp\libgcc.a(_ashldi3.o)
                0x0004236c                __aeabi_llsl
                0x0004236c                __ashldi3

.text.__expand_heap%102
                0x00042384       0x16
 .text.__expand_heap
                0x00042384       0x16 c:/program files/microchip/xc32/v4.21/bin/bin/../../lib/gcc/pic32c/8.3.1/../../../../pic32c/lib/thumb/v8-m.base/nofp\libc-musl.a(expand_heap.o)
                0x00042384                __expand_heap

.text.__wrap_sprintf%103
                0x0004239a       0x16
 .text.__wrap_sprintf
                0x0004239a       0x16 c:/program files/microchip/xc32/v4.21/bin/bin/../../lib/gcc/pic32c/8.3.1/../../../../pic32c/lib/thumb/v8-m.base/nofp\libc-musl.a(__sio_sprintf_doux.o)
                0x0004239a                _dsprintf_cdnopuxX
                0x0004239a                _sprintf_cdnopuxX
                0x0004239a                __sprintf_oxX
                0x0004239a                __sprintf_di

.text.CRYPT_WCCB_Initialize%104
                0x000423b0       0x14
 .text.CRYPT_WCCB_Initialize
                0x000423b0       0x14 build/Sercom/production/_ext/172253694/crypt_wolfcryptcb.o
                0x000423b0                CRYPT_WCCB_Initialize

.text.__init_stdout%105
                0x000423c4       0x14
 .text.__init_stdout
                0x000423c4       0x14 c:/program files/microchip/xc32/v4.21/bin/bin/../../lib/gcc/pic32c/8.3.1/../../../../pic32c/lib/thumb/v8-m.base/nofp\libc-musl.a(stdout.o)
                0x000423c4                __init_stdout

.text.__vsprintf%106
                0x000423d8       0x14
 .text.__vsprintf
                0x000423d8       0x14 c:/program files/microchip/xc32/v4.21/bin/bin/../../lib/gcc/pic32c/8.3.1/../../../../pic32c/lib/thumb/v8-m.base/nofp\libc-musl.a(__int_vsprintf.o)
                0x000423d8                __vsprintf

.text.NVIC_INT_Disable%107
                0x000423ec       0x12
 .text.NVIC_INT_Disable
                0x000423ec       0x12 build/Sercom/production/_ext/302508358/plib_nvic.o
                0x000423ec                NVIC_INT_Disable

.text.NVIC_INT_Restore%108
                0x000423fe       0x12
 .text.NVIC_INT_Restore
                0x000423fe       0x12 build/Sercom/production/_ext/302508358/plib_nvic.o
                0x000423fe                NVIC_INT_Restore

.text.setbuf%109
                0x00042410       0x12
 .text.setbuf   0x00042410       0x12 c:/program files/microchip/xc32/v4.21/bin/bin/../../lib/gcc/pic32c/8.3.1/../../../../pic32c/lib/thumb/v8-m.base/nofp\libc-musl.a(setbuf.o)
                0x00042410                setbuf

.text.memcpy%110
                0x00042422       0x12
 .text.memcpy   0x00042422       0x12 c:/program files/microchip/xc32/v4.21/bin/bin/../../lib/gcc/pic32c/8.3.1/../../../../pic32c/lib/thumb/v8-m.base/nofp\libc-musl.a(memcpy.o)
                0x00042422                memcpy

.text.__fwrite%111
                0x00042434       0x12
 .text.__fwrite
                0x00042434       0x12 c:/program files/microchip/xc32/v4.21/bin/bin/../../lib/gcc/pic32c/8.3.1/../../../../pic32c/lib/thumb/v8-m.base/nofp\libc-musl.a(__fwrite.o)
                0x00042434                __fwrite
                0x00042434                __fwrite_needed

.text.memset%112
                0x00042446       0x10
 .text.memset   0x00042446       0x10 c:/program files/microchip/xc32/v4.21/bin/bin/../../lib/gcc/pic32c/8.3.1/../../../../pic32c/lib/thumb/v8-m.base/nofp\libc-musl.a(memset.o)
                0x00042446                memset

.text.__init_stdio%113
                0x00042456       0x10
 .text.__init_stdio
                0x00042456       0x10 c:/program files/microchip/xc32/v4.21/bin/bin/../../lib/gcc/pic32c/8.3.1/../../../../pic32c/lib/thumb/v8-m.base/nofp\libc-musl.a(__init_stdio.o)
                0x00042456                __init_stdio_needed
                0x00042456                __init_stdio

.text.TC2_TimerCallbackRegister%114
                0x00042466        0xe
 .text.TC2_TimerCallbackRegister
                0x00042466        0xe build/Sercom/production/_ext/1582435769/plib_tc2.o
                0x00042466                TC2_TimerCallbackRegister

.text.APP_Initialize%115
                0x00042474        0xe
 .text.APP_Initialize
                0x00042474        0xe build/Sercom/production/_ext/1360937237/app.o
                0x00042474                APP_Initialize

.text.tolower%116
                0x00042482        0xe
 .text.tolower  0x00042482        0xe c:/program files/microchip/xc32/v4.21/bin/bin/../../lib/gcc/pic32c/8.3.1/../../../../pic32c/lib/thumb/v8-m.base/nofp\libc-musl.a(tolower.o)
                0x00042482                tolower

.text.toupper%117
                0x00042490        0xe
 .text.toupper  0x00042490        0xe c:/program files/microchip/xc32/v4.21/bin/bin/../../lib/gcc/pic32c/8.3.1/../../../../pic32c/lib/thumb/v8-m.base/nofp\libc-musl.a(toupper.o)
                0x00042490                toupper

.text.strlen%118
                0x0004249e        0xe
 .text.strlen   0x0004249e        0xe c:/program files/microchip/xc32/v4.21/bin/bin/../../lib/gcc/pic32c/8.3.1/../../../../pic32c/lib/thumb/v8-m.base/nofp\libc-musl.a(strlen.o)
                0x0004249e                strlen

.text.TC2_TimerFrequencyGet%119
                0x000424ac        0xa
 .text.TC2_TimerFrequencyGet
                0x000424ac        0xa build/Sercom/production/_ext/1582435769/plib_tc2.o
                0x000424ac                TC2_TimerFrequencyGet

.text.__fwrite_min%120
                0x000424b6        0xa
 .text.__fwrite_min
                0x000424b6        0xa c:/program files/microchip/xc32/v4.21/bin/bin/../../lib/gcc/pic32c/8.3.1/../../../../pic32c/lib/thumb/v8-m.base/nofp\libc-musl.a(__out.o)
                0x000424b6                __stdio_write_unbuffered
                0x000424b6                __stdio_write

.text.SYS_INT_Disable%121
                0x000424c0        0x8
 .text.SYS_INT_Disable
                0x000424c0        0x8 build/Sercom/production/_ext/10618399/sys_int.o
                0x000424c0                SYS_INT_Disable

.text.SYS_INT_Restore%122
                0x000424c8        0x8
 .text.SYS_INT_Restore
                0x000424c8        0x8 build/Sercom/production/_ext/10618399/sys_int.o
                0x000424c8                SYS_INT_Restore

.rodata.sysTimeInitData%123
                0x000424d0        0x8
 .rodata.sysTimeInitData
                0x000424d0        0x8 build/Sercom/production/_ext/1491116340/initialization.o

.text.SYS_Tasks%124
                0x000424d8        0x8
 .text.SYS_Tasks
                0x000424d8        0x8 build/Sercom/production/_ext/1491116340/tasks.o
                0x000424d8                SYS_Tasks

.text.CRYPT_WCCB_Callback%125
                0x000424e0        0x8
 .text.CRYPT_WCCB_Callback
                0x000424e0        0x8 build/Sercom/production/_ext/172253694/crypt_wolfcryptcb.o
                0x000424e0                CRYPT_WCCB_Callback

.text.__pic32c_data_initialization%126
                0x000424e8        0x8
 .text.__pic32c_data_initialization
                0x000424e8        0x8 c:/program files/microchip/xc32/v4.21/bin/bin/../../lib/gcc/pic32c/8.3.1/../../../../pic32c/lib/thumb/v8-m.base/nofp\libpic32c.a(data_init_wrapper.o)
                0x000424e8                __pic32c_data_initialization

.text.__get_stdout%127
                0x000424f0        0x8
 .text.__get_stdout
                0x000424f0        0x8 c:/program files/microchip/xc32/v4.21/bin/bin/../../lib/gcc/pic32c/8.3.1/../../../../pic32c/lib/thumb/v8-m.base/nofp\libc-musl.a(__stdout.o)
                0x000424f0                __get_stdout
                0x000424f0                __init_stdout_needed

.rodata%128     0x000424f8        0x7
 .rodata        0x000424f8        0x7 c:/program files/microchip/xc32/v4.21/bin/bin/../../lib/gcc/pic32c/8.3.1/../../../../pic32c/lib/thumb/v8-m.base/nofp\libc-musl.a(__fmt_s.o)

.text.close%129
                0x00042500        0x6
 .text.close    0x00042500        0x6 c:/program files/microchip/xc32/v4.21/bin/bin/../../lib/gcc/pic32c/8.3.1/../../../../pic32c/lib/thumb/v8-m.base/nofp\libpic32c.a(close.o)
                0x00042500                close

.text.__dummy_fmt4%130
                0x00042506        0x4
 .text.__dummy_fmt4
                0x00042506        0x4 c:/program files/microchip/xc32/v4.21/bin/bin/../../lib/gcc/pic32c/8.3.1/../../../../pic32c/lib/thumb/v8-m.base/nofp\libc-musl.a(__printf_core.o)
                0x00042506                __fmt_fp
                0x00042506                __fmt_a

.text.__dummy%131
                0x0004250a        0x4
 .text.__dummy  0x0004250a        0x4 c:/program files/microchip/xc32/v4.21/bin/bin/../../lib/gcc/pic32c/8.3.1/../../../../pic32c/lib/thumb/v8-m.base/nofp\libc-musl.a(stdin.o)
                0x0004250a                __stdio_seek_rw

.text%132       0x00042510        0x4
 .text          0x00042510        0x4 c:/program files/microchip/xc32/v4.21/bin/bin/../../lib/gcc/pic32c/8.3.1/thumb/v8-m.base/nofp\libgcc.a(_dvmd_tls.o)
                0x00042510                __aeabi_idiv0
                0x00042510                __aeabi_ldiv0

.text.lseek%133
                0x00042514        0x4
 .text.lseek    0x00042514        0x4 c:/program files/microchip/xc32/v4.21/bin/bin/../../lib/gcc/pic32c/8.3.1/../../../../pic32c/lib/thumb/v8-m.base/nofp\libpic32c.a(lseek.o)
                0x00042514                lseek

.text.TRNG_Initialize%134
                0x0004049e        0x2
 .text.TRNG_Initialize
                0x0004049e        0x2 build/Sercom/production/_ext/302333297/plib_trng.o
                0x0004049e                TRNG_Initialize

.text.NonMaskableInt_Handler%135
                0x00041286        0x2
 .text.NonMaskableInt_Handler
                0x00041286        0x2 build/Sercom/production/_ext/1491116340/exceptions.o
                0x00041286                NonMaskableInt_Handler

.text.HardFault_Handler%136
                0x00041716        0x2
 .text.HardFault_Handler
                0x00041716        0x2 build/Sercom/production/_ext/1491116340/exceptions.o
                0x00041716                HardFault_Handler

.text.Dummy_App_Func%137
                0x0004182a        0x2
 .text.Dummy_App_Func
                0x0004182a        0x2 build/Sercom/production/_ext/1491116340/startup_xc32.o
                0x0004182a                _on_reset
                0x0004182a                _on_bootstrap
                0x0004182a                __xc32_on_reset
                0x0004182a                Dummy_App_Func
                0x0004182a                __xc32_on_bootstrap

.text.Dummy_Handler%138
                0x00041986        0x2
 .text.Dummy_Handler
                0x00041986        0x2 build/Sercom/production/_ext/1491116340/interrupts.o
                0x00041986                TRNG_Handler
                0x00041986                SysTick_Handler
                0x00041986                PendSV_Handler
                0x00041986                Dummy_Handler
                0x00041986                TC0_Handler
                0x00041986                SVCall_Handler

.text.__dummy%139
                0x00041bce        0x2
 .text.__dummy  0x00041bce        0x2 c:/program files/microchip/xc32/v4.21/bin/bin/../../lib/gcc/pic32c/8.3.1/../../../../pic32c/lib/thumb/v8-m.base/nofp\libc-musl.a(__libc_start_main.o)
                0x00041bce                __init_host

.text.__dummy%140
                0x00041e42        0x2
 .text.__dummy  0x00041e42        0x2 c:/program files/microchip/xc32/v4.21/bin/bin/../../lib/gcc/pic32c/8.3.1/../../../../pic32c/lib/thumb/v8-m.base/nofp\libc-musl.a(__init_stdio.o)
                0x00041e42                __init_stdin
                0x00041e42                __init_stderr

.text.__dummy%141
                0x0004202e        0x2
 .text.__dummy  0x0004202e        0x2 c:/program files/microchip/xc32/v4.21/bin/bin/../../lib/gcc/pic32c/8.3.1/../../../../pic32c/lib/thumb/v8-m.base/nofp\libc-musl.a(__stderr.o)
                0x0004202e                __stdio_seek

.text._mon_getc%142
                0x000420da        0x2
 .text._mon_getc
                0x000420da        0x2 c:/program files/microchip/xc32/v4.21/bin/bin/../../lib/gcc/pic32c/8.3.1/../../../../pic32c/lib/thumb/v8-m.base/nofp\libpic32c.a(_mon_getc.o)
                0x000420da                _mon_getc

.text._mon_putc%143
                0x00042352        0x2
 .text._mon_putc
                0x00042352        0x2 c:/program files/microchip/xc32/v4.21/bin/bin/../../lib/gcc/pic32c/8.3.1/../../../../pic32c/lib/thumb/v8-m.base/nofp\libpic32c.a(_mon_putc.o)
                0x00042352                _mon_putc
